

Microchip MPLAB XC8 Assembler V2.46 build 20240104201356 
                                                                                               Tue Sep 10 12:48:06 2024

Microchip MPLAB XC8 C Compiler v2.46 (Free license) build 20240104201356 Og1 
     1                           	processor	18F4620
     2                           	fnconf	rparam,??,?,0
     3                           	pagewidth 120
     4                           	opt	flic
     5                           	psect	idataCOMRAM,global,class=CODE,delta=1,noexec
     6                           	psect	idataBANK0,global,class=CODE,delta=1,noexec
     7                           	psect	idataBANK1,global,class=CODE,delta=1,noexec
     8                           	psect	nvCOMRAM,global,class=COMRAM,space=1,delta=1,lowdata,noexec
     9                           	psect	smallconst,global,reloc=2,class=SMALLCONST,delta=1,noexec
    10                           	psect	cinit,global,reloc=2,class=CODE,delta=1
    11                           	psect	bssCOMRAM,global,class=COMRAM,space=1,delta=1,lowdata,noexec
    12                           	psect	dataCOMRAM,global,class=COMRAM,space=1,delta=1,lowdata,noexec
    13                           	psect	bssBANK0,global,class=BANK0,space=1,delta=1,lowdata,noexec
    14                           	psect	dataBANK0,global,class=BANK0,space=1,delta=1,lowdata,noexec
    15                           	psect	bssBANK1,global,class=BANK1,space=1,delta=1,lowdata,noexec
    16                           	psect	dataBANK1,global,class=BANK1,space=1,delta=1,lowdata,noexec
    17                           	psect	cstackBANK0,global,class=BANK0,space=1,delta=1,lowdata,noexec
    18                           	psect	cstackCOMRAM,global,class=COMRAM,space=1,delta=1,lowdata,noexec
    19                           	psect	text0,global,reloc=2,class=CODE,delta=1
    20                           	psect	text1,global,reloc=2,class=CODE,delta=1
    21                           	psect	text2,global,reloc=2,class=CODE,delta=1
    22                           	psect	text3,global,reloc=2,class=CODE,delta=1
    23                           	psect	text4,global,reloc=2,class=CODE,delta=1
    24                           	psect	text5,global,reloc=2,class=CODE,delta=1
    25                           	psect	text6,global,reloc=2,class=CODE,delta=1
    26                           	psect	text7,global,reloc=2,class=CODE,delta=1
    27                           	psect	text8,global,reloc=2,class=CODE,delta=1
    28                           	psect	text9,global,reloc=2,class=CODE,delta=1
    29                           	psect	text10,global,reloc=2,class=CODE,delta=1
    30                           	psect	text11,global,reloc=2,class=CODE,delta=1
    31                           	psect	text12,global,reloc=2,class=CODE,delta=1
    32                           	psect	text13,global,reloc=2,class=CODE,delta=1
    33                           	psect	text14,global,reloc=2,class=CODE,delta=1
    34                           	psect	text15,global,reloc=2,class=CODE,delta=1
    35                           	psect	text16,global,reloc=2,class=CODE,delta=1
    36                           	psect	text17,global,reloc=2,class=CODE,delta=1
    37                           	psect	text18,global,reloc=2,class=CODE,delta=1
    38                           	psect	text19,global,reloc=2,class=CODE,delta=1
    39                           	psect	text20,global,reloc=2,class=CODE,delta=1
    40                           	psect	text21,global,reloc=2,class=CODE,delta=1
    41                           	psect	text22,global,reloc=2,class=CODE,delta=1
    42                           	psect	text23,global,reloc=2,class=CODE,delta=1
    43                           	psect	text24,global,reloc=2,class=CODE,delta=1
    44                           	psect	text25,global,reloc=2,class=CODE,delta=1
    45                           	psect	text26,global,reloc=2,class=CODE,delta=1
    46                           	psect	text27,global,reloc=2,class=CODE,delta=1
    47                           	psect	text28,global,reloc=2,class=CODE,delta=1
    48                           	psect	text29,global,reloc=2,class=CODE,delta=1
    49                           	psect	text30,global,reloc=2,class=CODE,delta=1
    50                           	psect	text31,global,reloc=2,class=CODE,delta=1
    51                           	psect	text32,global,reloc=2,class=CODE,delta=1
    52                           	psect	text33,global,reloc=2,class=CODE,delta=1,group=3
    53                           	psect	text34,global,reloc=2,class=CODE,delta=1,group=1
    54                           	psect	text35,global,reloc=2,class=CODE,delta=1,group=1
    55                           	psect	text36,global,reloc=2,class=CODE,delta=1,group=3
    56                           	psect	text37,global,reloc=2,class=CODE,delta=1,group=3
    57                           	psect	text38,global,reloc=2,class=CODE,delta=1,group=3
    58                           	psect	text39,global,reloc=2,class=CODE,delta=1,group=2
    59                           	psect	text40,global,reloc=2,class=CODE,delta=1,group=2
    60                           	psect	text41,global,reloc=2,class=CODE,delta=1,group=3
    61                           	psect	intcode,global,reloc=2,class=CODE,delta=1
    62                           	psect	intcode_body,global,reloc=2,class=CODE,delta=1
    63                           	psect	text43,global,reloc=2,class=CODE,delta=1
    64                           	psect	text44,global,reloc=2,class=CODE,delta=1
    65                           	psect	text45,global,reloc=2,class=CODE,delta=1
    66                           	psect	text46,global,reloc=2,class=CODE,delta=1
    67                           	psect	text47,global,reloc=2,class=CODE,delta=1
    68                           	psect	text48,global,reloc=2,class=CODE,delta=1
    69                           	psect	text49,global,reloc=2,class=CODE,delta=1
    70                           	psect	text50,global,reloc=2,class=CODE,delta=1
    71                           	psect	text51,global,reloc=2,class=CODE,delta=1
    72                           	psect	text52,global,reloc=2,class=CODE,delta=1
    73                           	psect	text53,global,reloc=2,class=CODE,delta=1
    74                           	psect	text54,global,reloc=2,class=CODE,delta=1
    75                           	psect	text55,global,reloc=2,class=CODE,delta=1
    76                           	psect	text56,global,reloc=2,class=CODE,delta=1
    77                           	psect	text57,global,reloc=2,class=CODE,delta=1
    78                           	psect	text58,global,reloc=2,class=CODE,delta=1
    79                           	psect	text59,global,reloc=2,class=CODE,delta=1
    80                           	psect	text60,global,reloc=2,class=CODE,delta=1
    81                           	psect	text61,global,reloc=2,class=CODE,delta=1
    82                           	psect	text62,global,reloc=2,class=CODE,delta=1
    83                           	psect	text63,global,reloc=2,class=CODE,delta=1
    84                           	psect	text64,global,reloc=2,class=CODE,delta=1
    85                           	psect	text65,global,reloc=2,class=CODE,delta=1
    86                           	psect	text66,global,reloc=2,class=CODE,delta=1
    87                           	psect	text67,global,reloc=2,class=CODE,delta=1
    88                           	psect	text68,global,reloc=2,class=CODE,delta=1
    89                           	psect	text69,global,reloc=2,class=CODE,delta=1
    90                           	psect	text70,global,reloc=2,class=CODE,delta=1
    91                           	psect	text71,global,reloc=2,class=CODE,delta=1
    92                           	psect	text72,global,reloc=2,class=CODE,delta=1
    93                           	psect	text73,global,reloc=2,class=CODE,delta=1
    94                           	psect	text74,global,reloc=2,class=CODE,delta=1
    95                           	psect	text75,global,reloc=2,class=CODE,delta=1
    96                           	psect	text76,global,reloc=2,class=CODE,delta=1
    97                           	psect	text77,global,reloc=2,class=CODE,delta=1
    98                           	psect	text78,global,reloc=2,class=CODE,delta=1
    99                           	psect	text79,global,reloc=2,class=CODE,delta=1
   100                           	psect	intsave_regs,global,class=BIGRAM,space=1,delta=1,noexec
   101                           	psect	rparam,global,class=COMRAM,space=1,delta=1,noexec
   102                           	psect	temp,global,ovrld,common,class=COMRAM,space=1,delta=1,lowdata
   103                           	psect	config,global,abs,ovrld,class=CONFIG,space=4,delta=1,noexec
   104   000000                     
   105                           ; Generated 17/10/2023 GMT
   106                           ; 
   107                           ; Copyright © 2023, Microchip Technology Inc. and its subsidiaries ("Microchip")
   108                           ; All rights reserved.
   109                           ; 
   110                           ; This software is developed by Microchip Technology Inc. and its subsidiaries ("Microch
      +                          ip").
   111                           ; 
   112                           ; Redistribution and use in source and binary forms, with or without modification, are
   113                           ; permitted provided that the following conditions are met:
   114                           ; 
   115                           ;     1. Redistributions of source code must retain the above copyright notice, this lis
      +                          t of
   116                           ;        conditions and the following disclaimer.
   117                           ; 
   118                           ;     2. Redistributions in binary form must reproduce the above copyright notice, this 
      +                          list
   119                           ;        of conditions and the following disclaimer in the documentation and/or other
   120                           ;        materials provided with the distribution. Publication is not required when
   121                           ;        this file is used in an embedded application.
   122                           ; 
   123                           ;     3. Microchip's name may not be used to endorse or promote products derived from th
      +                          is
   124                           ;        software without specific prior written permission.
   125                           ; 
   126                           ; THIS SOFTWARE IS PROVIDED BY MICROCHIP "AS IS" AND ANY EXPRESS OR IMPLIED WARRANTIES,
   127                           ; INCLUDING, BUT NOT LIMITED TO, THE IMPLIED WARRANTIES OF MERCHANTABILITY AND FITNESS F
      +                          OR
   128                           ; PURPOSE ARE DISCLAIMED.  IN NO EVENT SHALL MICROCHIP BE LIABLE FOR ANY DIRECT, INDIREC
      +                          T,
   129                           ; INCIDENTAL, SPECIAL, EXEMPLARY, OR CONSEQUENTIAL DAMAGES (INCLUDING BUT NOT LIMITED TO
   130                           ; PROCUREMENT OF SUBSTITUTE GOODS OR SERVICES; LOSS OF USE, DATA OR PROFITS; OR BUSINESS
   131                           ; INTERRUPTION) HOWSOEVER CAUSED AND ON ANY THEORY OF LIABILITY, WHETHER IN CONTRACT, ST
      +                          RICT
   132                           ; LIABILITY, OR TORT (INCLUDING NEGLIGENCE OR OTHERWISE) ARISING IN ANY WAY OUT OF THE U
      +                          SE OF
   133                           ; THIS SOFTWARE, EVEN IF ADVISED OF THE POSSIBILITY OF SUCH DAMAGE.
   134                           ; 
   135                           ; 
   136                           ; Code-generator required, PIC18F4620 Definitions
   137                           ; 
   138                           ; SFR Addresses
   139   000000                     
   140                           	psect	idataCOMRAM
   141   003CB8                     __pidataCOMRAM:
   142                           	callstack 0
   143                           
   144                           ;initializer for _RB7_flag
   145   003CB8  01                 	db	1
   146                           
   147                           ;initializer for _RB6_flag
   148   003CB9  01                 	db	1
   149                           
   150                           ;initializer for _RB5_flag
   151   003CBA  01                 	db	1
   152                           
   153                           ;initializer for _RB4_flag
   154   003CBB  01                 	db	1
   155                           
   156                           ;initializer for _rb6_obj
   157   003CBC  0C                 	db	low _RB6_HIGH_APP_ISR
   158   003CBD  3C                 	db	high _RB6_HIGH_APP_ISR
   159   003CBE  00                 	db	0
   160   003CBF  00                 	db	0
   161   003CC0  71                 	db	113
   162   003CC1  01                 	db	1
   163                           
   164                           ;initializer for _rb5_obj
   165   003CC2  00                 	db	0
   166   003CC3  00                 	db	0
   167   003CC4  B0                 	db	low _RB5_LOW_APP_ISR
   168   003CC5  3A                 	db	high _RB5_LOW_APP_ISR
   169   003CC6  69                 	db	105
   170   003CC7  01                 	db	1
   171                           
   172                           ;initializer for _rb4_obj
   173   003CC8  50                 	db	low _RB4_HIGH_APP_ISR
   174   003CC9  3C                 	db	high _RB4_HIGH_APP_ISR
   175   003CCA  00                 	db	0
   176   003CCB  00                 	db	0
   177   003CCC  61                 	db	97
   178   003CCD  01                 	db	1
   179                           
   180                           	psect	idataBANK0
   181   003B68                     __pidataBANK0:
   182                           	callstack 0
   183                           
   184                           ;initializer for _lat_registers
   185   003B68  89                 	db	137
   186   003B69  0F                 	db	15
   187   003B6A  8A                 	db	138
   188   003B6B  0F                 	db	15
   189   003B6C  8B                 	db	139
   190   003B6D  0F                 	db	15
   191   003B6E  8C                 	db	140
   192   003B6F  0F                 	db	15
   193   003B70  8D                 	db	141
   194   003B71  0F                 	db	15
   195                           
   196                           ;initializer for _tric_registers
   197   003B72  92                 	db	146
   198   003B73  0F                 	db	15
   199   003B74  93                 	db	147
   200   003B75  0F                 	db	15
   201   003B76  94                 	db	148
   202   003B77  0F                 	db	15
   203   003B78  95                 	db	149
   204   003B79  0F                 	db	15
   205   003B7A  96                 	db	150
   206   003B7B  0F                 	db	15
   207                           
   208                           ;initializer for _lcd
   209   003B7C  02                 	db	2
   210   003B7D  0A                 	db	10
   211   003B7E  12                 	db	18
   212   003B7F  1A                 	db	26
   213   003B80  22                 	db	34
   214   003B81  2A                 	db	42
   215                           
   216                           ;initializer for _btn6
   217   003B82  71                 	db	113
   218   003B83  01                 	db	1
   219   003B84  00                 	db	0
   220                           
   221                           ;initializer for _btn5
   222   003B85  69                 	db	105
   223   003B86  01                 	db	1
   224   003B87  00                 	db	0
   225                           
   226                           ;initializer for _btn4
   227   003B88  61                 	db	97
   228   003B89  01                 	db	1
   229   003B8A  00                 	db	0
   230                           
   231                           ;initializer for _btn3
   232   003B8B  51                 	db	81
   233   003B8C  01                 	db	1
   234   003B8D  00                 	db	0
   235                           
   236                           ;initializer for _btn2
   237   003B8E  49                 	db	73
   238   003B8F  01                 	db	1
   239   003B90  00                 	db	0
   240                           
   241                           ;initializer for _btn1
   242   003B91  41                 	db	65
   243   003B92  01                 	db	1
   244   003B93  00                 	db	0
   245                           
   246                           	psect	idataBANK1
   247   003C34                     __pidataBANK1:
   248                           	callstack 0
   249                           
   250                           ;initializer for _port_registers
   251   003C34  80                 	db	128
   252   003C35  0F                 	db	15
   253   003C36  81                 	db	129
   254   003C37  0F                 	db	15
   255   003C38  82                 	db	130
   256   003C39  0F                 	db	15
   257   003C3A  83                 	db	131
   258   003C3B  0F                 	db	15
   259   003C3C  84                 	db	132
   260   003C3D  0F                 	db	15
   261                           
   262                           ;initializer for _int2_obj
   263   003C3E  9E                 	db	low _INT2_APP_ISR
   264   003C3F  3C                 	db	high _INT2_APP_ISR
   265   003C40  51                 	db	81
   266   003C41  01                 	db	1
   267   003C42  02                 	db	2
   268   003C43  01                 	db	1
   269                           
   270                           ;initializer for _int1_obj
   271   003C44  6A                 	db	low _INT1_APP_ISR
   272   003C45  3C                 	db	high _INT1_APP_ISR
   273   003C46  49                 	db	73
   274   003C47  01                 	db	1
   275   003C48  01                 	db	1
   276   003C49  01                 	db	1
   277                           
   278                           ;initializer for _int0_obj
   279   003C4A  84                 	db	low _INT0_APP_ISR
   280   003C4B  3C                 	db	high _INT0_APP_ISR
   281   003C4C  41                 	db	65
   282   003C4D  01                 	db	1
   283   003C4E  00                 	db	0
   284   003C4F  01                 	db	1
   285   000000                     _INTCON2bits	set	4081
   286   000000                     _EECON2	set	4007
   287                           
   288                           	psect	nvCOMRAM
   289   00007C                     __pnvCOMRAM:
   290                           	callstack 0
   291   00007C                     _ret:
   292                           	callstack 0
   293   00007C                     	ds	1
   294   000000                     _PORTBbits	set	3969
   295   000000                     _EECON1bits	set	4006
   296   000000                     _EEDATA	set	4008
   297   000000                     _EEADR	set	4009
   298   000000                     _EEADRH	set	4010
   299   000000                     _INTCONbits	set	4082
   300   000000                     _PORTE	set	3972
   301   000000                     _PORTD	set	3971
   302   000000                     _PORTC	set	3970
   303   000000                     _PORTB	set	3969
   304   000000                     _PORTA	set	3968
   305   000000                     _LATA	set	3977
   306   000000                     _TRISA	set	3986
   307   000000                     _INTCON3bits	set	4080
   308   000000                     _TRISE	set	3990
   309   000000                     _TRISD	set	3989
   310   000000                     _TRISC	set	3988
   311   000000                     _TRISB	set	3987
   312   000000                     _LATE	set	3981
   313   000000                     _LATD	set	3980
   314   000000                     _LATC	set	3979
   315   000000                     _LATB	set	3978
   316                           
   317                           	psect	smallconst
   318   001000                     __psmallconst:
   319                           	callstack 0
   320   001000  00                 	db	0
   321   001001                     STR_12:
   322   001001  41                 	db	65	;'A'
   323   001002  20                 	db	32
   324   001003  69                 	db	105	;'i'
   325   001004  73                 	db	115	;'s'
   326   001005  20                 	db	32
   327   001006  74                 	db	116	;'t'
   328   001007  68                 	db	104	;'h'
   329   001008  65                 	db	101	;'e'
   330   001009  20                 	db	32
   331   00100A  77                 	db	119	;'w'
   332   00100B  69                 	db	105	;'i'
   333   00100C  6E                 	db	110	;'n'
   334   00100D  6E                 	db	110	;'n'
   335   00100E  65                 	db	101	;'e'
   336   00100F  72                 	db	114	;'r'
   337   001010  00                 	db	0
   338   001011                     STR_13:
   339   001011  42                 	db	66	;'B'
   340   001012  20                 	db	32
   341   001013  69                 	db	105	;'i'
   342   001014  73                 	db	115	;'s'
   343   001015  20                 	db	32
   344   001016  74                 	db	116	;'t'
   345   001017  68                 	db	104	;'h'
   346   001018  65                 	db	101	;'e'
   347   001019  20                 	db	32
   348   00101A  77                 	db	119	;'w'
   349   00101B  69                 	db	105	;'i'
   350   00101C  6E                 	db	110	;'n'
   351   00101D  6E                 	db	110	;'n'
   352   00101E  65                 	db	101	;'e'
   353   00101F  72                 	db	114	;'r'
   354   001020  00                 	db	0
   355   001021                     STR_14:
   356   001021  43                 	db	67	;'C'
   357   001022  20                 	db	32
   358   001023  69                 	db	105	;'i'
   359   001024  73                 	db	115	;'s'
   360   001025  20                 	db	32
   361   001026  74                 	db	116	;'t'
   362   001027  68                 	db	104	;'h'
   363   001028  65                 	db	101	;'e'
   364   001029  20                 	db	32
   365   00102A  77                 	db	119	;'w'
   366   00102B  69                 	db	105	;'i'
   367   00102C  6E                 	db	110	;'n'
   368   00102D  6E                 	db	110	;'n'
   369   00102E  65                 	db	101	;'e'
   370   00102F  72                 	db	114	;'r'
   371   001030  00                 	db	0
   372   001031                     STR_15:
   373   001031  44                 	db	68	;'D'
   374   001032  20                 	db	32
   375   001033  69                 	db	105	;'i'
   376   001034  73                 	db	115	;'s'
   377   001035  20                 	db	32
   378   001036  74                 	db	116	;'t'
   379   001037  68                 	db	104	;'h'
   380   001038  65                 	db	101	;'e'
   381   001039  20                 	db	32
   382   00103A  77                 	db	119	;'w'
   383   00103B  69                 	db	105	;'i'
   384   00103C  6E                 	db	110	;'n'
   385   00103D  6E                 	db	110	;'n'
   386   00103E  65                 	db	101	;'e'
   387   00103F  72                 	db	114	;'r'
   388   001040  00                 	db	0
   389   001041                     STR_7:
   390   001041  56                 	db	86	;'V'
   391   001042  6F                 	db	111	;'o'
   392   001043  74                 	db	116	;'t'
   393   001044  69                 	db	105	;'i'
   394   001045  6E                 	db	110	;'n'
   395   001046  67                 	db	103	;'g'
   396   001047  20                 	db	32
   397   001048  69                 	db	105	;'i'
   398   001049  73                 	db	115	;'s'
   399   00104A  20                 	db	32
   400   00104B  72                 	db	114	;'r'
   401   00104C  65                 	db	101	;'e'
   402   00104D  61                 	db	97	;'a'
   403   00104E  64                 	db	100	;'d'
   404   00104F  79                 	db	121	;'y'
   405   001050  00                 	db	0
   406   001051                     STR_4:
   407   001051  57                 	db	87	;'W'
   408   001052  65                 	db	101	;'e'
   409   001053  6C                 	db	108	;'l'
   410   001054  63                 	db	99	;'c'
   411   001055  6F                 	db	111	;'o'
   412   001056  6D                 	db	109	;'m'
   413   001057  65                 	db	101	;'e'
   414   001058  00                 	db	0
   415   001059                     STR_5:
   416   001059  4C                 	db	76	;'L'
   417   00105A  6F                 	db	111	;'o'
   418   00105B  61                 	db	97	;'a'
   419   00105C  64                 	db	100	;'d'
   420   00105D  69                 	db	105	;'i'
   421   00105E  6E                 	db	110	;'n'
   422   00105F  67                 	db	103	;'g'
   423   001060  00                 	db	0
   424   001061                     STR_6:
   425   001061  20                 	db	32
   426   001062  20                 	db	32
   427   001063  20                 	db	32
   428   001064  00                 	db	0
   429   001065                     STR_8:
   430   001065  41                 	db	65	;'A'
   431   001066  3A                 	db	58	;':'
   432   001067  00                 	db	0
   433   001068                     STR_9:
   434   001068  42                 	db	66	;'B'
   435   001069  3A                 	db	58	;':'
   436   00106A  00                 	db	0
   437   00106B                     STR_10:
   438   00106B  43                 	db	67	;'C'
   439   00106C  3A                 	db	58	;':'
   440   00106D  00                 	db	0
   441   00106E                     STR_11:
   442   00106E  44                 	db	68	;'D'
   443   00106F  3A                 	db	58	;':'
   444   001070  00                 	db	0
   445   001071                     STR_1:
   446   001071  25                 	db	37
   447   001072  69                 	db	105	;'i'
   448   001073  00                 	db	0
   449   001074  00                 	db	0	; dummy byte at the end
   450   000000                     
   451                           ; #config settings
   452                           
   453                           	psect	cinit
   454   002E22                     __pcinit:
   455                           	callstack 0
   456   002E22                     start_initialization:
   457                           	callstack 0
   458   002E22                     __initialization:
   459                           	callstack 0
   460                           
   461                           ; Initialize objects allocated to BANK1 (28 bytes)
   462                           ; load TBLPTR registers with __pidataBANK1
   463   002E22  0E34               	movlw	low __pidataBANK1
   464   002E24  6EF6               	movwf	tblptrl,c
   465   002E26  0E3C               	movlw	high __pidataBANK1
   466   002E28  6EF7               	movwf	tblptrh,c
   467   002E2A  0E00               	movlw	low (__pidataBANK1 shr (0+16))
   468   002E2C  6EF8               	movwf	tblptru,c
   469   002E2E  EE01  F020         	lfsr	0,__pdataBANK1
   470   002E32  EE10 F01C          	lfsr	1,28
   471   002E36                     copy_data0:
   472   002E36  0009               	tblrd		*+
   473   002E38  CFF5 FFEE          	movff	tablat,postinc0
   474   002E3C  50E5               	movf	postdec1,w,c
   475   002E3E  50E1               	movf	fsr1l,w,c
   476   002E40  E1FA               	bnz	copy_data0
   477                           
   478                           ; Initialize objects allocated to BANK0 (44 bytes)
   479                           ; load TBLPTR registers with __pidataBANK0
   480   002E42  0E68               	movlw	low __pidataBANK0
   481   002E44  6EF6               	movwf	tblptrl,c
   482   002E46  0E3B               	movlw	high __pidataBANK0
   483   002E48  6EF7               	movwf	tblptrh,c
   484   002E4A  0E00               	movlw	low (__pidataBANK0 shr (0+16))
   485   002E4C  6EF8               	movwf	tblptru,c
   486   002E4E  EE00  F0B5         	lfsr	0,__pdataBANK0
   487   002E52  EE10 F02C          	lfsr	1,44
   488   002E56                     copy_data1:
   489   002E56  0009               	tblrd		*+
   490   002E58  CFF5 FFEE          	movff	tablat,postinc0
   491   002E5C  50E5               	movf	postdec1,w,c
   492   002E5E  50E1               	movf	fsr1l,w,c
   493   002E60  E1FA               	bnz	copy_data1
   494                           
   495                           ; Initialize objects allocated to COMRAM (22 bytes)
   496                           ; load TBLPTR registers with __pidataCOMRAM
   497   002E62  0EB8               	movlw	low __pidataCOMRAM
   498   002E64  6EF6               	movwf	tblptrl,c
   499   002E66  0E3C               	movlw	high __pidataCOMRAM
   500   002E68  6EF7               	movwf	tblptrh,c
   501   002E6A  0E00               	movlw	low (__pidataCOMRAM shr (0+16))
   502   002E6C  6EF8               	movwf	tblptru,c
   503   002E6E  EE00  F066         	lfsr	0,__pdataCOMRAM
   504   002E72  EE10 F016          	lfsr	1,22
   505   002E76                     copy_data2:
   506   002E76  0009               	tblrd		*+
   507   002E78  CFF5 FFEE          	movff	tablat,postinc0
   508   002E7C  50E5               	movf	postdec1,w,c
   509   002E7E  50E1               	movf	fsr1l,w,c
   510   002E80  E1FA               	bnz	copy_data2
   511                           
   512                           ; Clear objects allocated to BANK1 (32 bytes)
   513   002E82  EE01  F000         	lfsr	0,__pbssBANK1
   514   002E86  0E20               	movlw	32
   515   002E88                     clear_0:
   516   002E88  6AEE               	clrf	postinc0,c
   517   002E8A  06E8               	decf	wreg,f,c
   518   002E8C  E1FD               	bnz	clear_0
   519                           
   520                           ; Clear objects allocated to BANK0 (29 bytes)
   521   002E8E  EE00  F0E1         	lfsr	0,__pbssBANK0
   522   002E92  0E1D               	movlw	29
   523   002E94                     clear_1:
   524   002E94  6AEE               	clrf	postinc0,c
   525   002E96  06E8               	decf	wreg,f,c
   526   002E98  E1FD               	bnz	clear_1
   527                           
   528                           ; Clear objects allocated to COMRAM (33 bytes)
   529   002E9A  EE00  F045         	lfsr	0,__pbssCOMRAM
   530   002E9E  0E21               	movlw	33
   531   002EA0                     clear_2:
   532   002EA0  6AEE               	clrf	postinc0,c
   533   002EA2  06E8               	decf	wreg,f,c
   534   002EA4  E1FD               	bnz	clear_2
   535   002EA6                     end_of_initialization:
   536                           	callstack 0
   537   002EA6                     __end_of__initialization:
   538                           	callstack 0
   539   002EA6  907D               	bcf	int$flags,0,c	;clear compiler interrupt flag (level 1)
   540   002EA8  927D               	bcf	int$flags,1,c	;clear compiler interrupt flag (level 2)
   541   002EAA  0100               	movlb	0
   542   002EAC  EF72  F01C         	goto	_main	;jump to C main() function
   543                           
   544                           	psect	bssCOMRAM
   545   000045                     __pbssCOMRAM:
   546                           	callstack 0
   547   000045                     convert_uint16_to_string@F3236:
   548                           	callstack 0
   549   000045                     	ds	6
   550   00004B                     _width:
   551                           	callstack 0
   552   00004B                     	ds	2
   553   00004D                     _prec:
   554                           	callstack 0
   555   00004D                     	ds	2
   556   00004F                     _RB7_InterruptHandler_LOW:
   557                           	callstack 0
   558   00004F                     	ds	2
   559   000051                     _RB7_InterruptHandler_HIGH:
   560                           	callstack 0
   561   000051                     	ds	2
   562   000053                     _RB6_InterruptHandler_LOW:
   563                           	callstack 0
   564   000053                     	ds	2
   565   000055                     _RB6_InterruptHandler_HIGH:
   566                           	callstack 0
   567   000055                     	ds	2
   568   000057                     _RB5_InterruptHandler_LOW:
   569                           	callstack 0
   570   000057                     	ds	2
   571   000059                     _RB5_InterruptHandler_HIGH:
   572                           	callstack 0
   573   000059                     	ds	2
   574   00005B                     _RB4_InterruptHandler_LOW:
   575                           	callstack 0
   576   00005B                     	ds	2
   577   00005D                     _RB4_InterruptHandler_HIGH:
   578                           	callstack 0
   579   00005D                     	ds	2
   580   00005F                     _INT2_InterruptHandler:
   581                           	callstack 0
   582   00005F                     	ds	2
   583   000061                     _INT1_InterruptHandler:
   584                           	callstack 0
   585   000061                     	ds	2
   586   000063                     _INT0_InterruptHandler:
   587                           	callstack 0
   588   000063                     	ds	2
   589   000065                     _flags:
   590                           	callstack 0
   591   000065                     	ds	1
   592                           
   593                           	psect	dataCOMRAM
   594   000066                     __pdataCOMRAM:
   595                           	callstack 0
   596   000066                     _RB7_flag:
   597                           	callstack 0
   598   000066                     	ds	1
   599   000067                     _RB6_flag:
   600                           	callstack 0
   601   000067                     	ds	1
   602   000068                     _RB5_flag:
   603                           	callstack 0
   604   000068                     	ds	1
   605   000069                     _RB4_flag:
   606                           	callstack 0
   607   000069                     	ds	1
   608   00006A                     _rb6_obj:
   609                           	callstack 0
   610   00006A                     	ds	6
   611   000070                     _rb5_obj:
   612                           	callstack 0
   613   000070                     	ds	6
   614   000076                     _rb4_obj:
   615                           	callstack 0
   616   000076                     	ds	6
   617                           
   618                           	psect	bssBANK0
   619   0000E1                     __pbssBANK0:
   620                           	callstack 0
   621   0000E1                     _operation_mode:
   622                           	callstack 0
   623   0000E1                     	ds	1
   624   0000E2                     _can_D_str:
   625                           	callstack 0
   626   0000E2                     	ds	6
   627   0000E8                     _can_C_str:
   628                           	callstack 0
   629   0000E8                     	ds	6
   630   0000EE                     _can_B_str:
   631                           	callstack 0
   632   0000EE                     	ds	6
   633   0000F4                     _can_A_str:
   634                           	callstack 0
   635   0000F4                     	ds	6
   636   0000FA                     _can_D:
   637                           	callstack 0
   638   0000FA                     	ds	1
   639   0000FB                     _can_C:
   640                           	callstack 0
   641   0000FB                     	ds	1
   642   0000FC                     _can_B:
   643                           	callstack 0
   644   0000FC                     	ds	1
   645   0000FD                     _can_A:
   646                           	callstack 0
   647   0000FD                     	ds	1
   648                           
   649                           	psect	dataBANK0
   650   0000B5                     __pdataBANK0:
   651                           	callstack 0
   652   0000B5                     _lat_registers:
   653                           	callstack 0
   654   0000B5                     	ds	10
   655   0000BF                     _tric_registers:
   656                           	callstack 0
   657   0000BF                     	ds	10
   658   0000C9                     _lcd:
   659                           	callstack 0
   660   0000C9                     	ds	6
   661   0000CF                     _btn6:
   662                           	callstack 0
   663   0000CF                     	ds	3
   664   0000D2                     _btn5:
   665                           	callstack 0
   666   0000D2                     	ds	3
   667   0000D5                     _btn4:
   668                           	callstack 0
   669   0000D5                     	ds	3
   670   0000D8                     _btn3:
   671                           	callstack 0
   672   0000D8                     	ds	3
   673   0000DB                     _btn2:
   674                           	callstack 0
   675   0000DB                     	ds	3
   676   0000DE                     _btn1:
   677                           	callstack 0
   678   0000DE                     	ds	3
   679                           
   680                           	psect	bssBANK1
   681   000100                     __pbssBANK1:
   682                           	callstack 0
   683   000100                     _dbuf:
   684                           	callstack 0
   685   000100                     	ds	32
   686                           
   687                           	psect	dataBANK1
   688   000120                     __pdataBANK1:
   689                           	callstack 0
   690   000120                     _port_registers:
   691                           	callstack 0
   692   000120                     	ds	10
   693   00012A                     _int2_obj:
   694                           	callstack 0
   695   00012A                     	ds	6
   696   000130                     _int1_obj:
   697                           	callstack 0
   698   000130                     	ds	6
   699   000136                     _int0_obj:
   700                           	callstack 0
   701   000136                     	ds	6
   702                           
   703                           	psect	cstackBANK0
   704   000080                     __pcstackBANK0:
   705                           	callstack 0
   706   000080                     ?___awdiv:
   707                           	callstack 0
   708   000080                     ?___awmod:
   709                           	callstack 0
   710   000080                     memset@dest:
   711                           	callstack 0
   712   000080                     Data_EEPROM_ReadByte@adr:
   713                           	callstack 0
   714   000080                     gpio_pin_direction_initialize@pin_config:
   715                           	callstack 0
   716   000080                     gpio_pin_write_logic@pin_config:
   717                           	callstack 0
   718   000080                     interrupt_INTx_enable@int_obj:
   719                           	callstack 0
   720   000080                     interrupt_INTx_disable@int_obj:
   721                           	callstack 0
   722   000080                     interrupt_INTx_edge_init@int_obj:
   723                           	callstack 0
   724   000080                     interrupt_INTx_clear_flag@int_obj:
   725                           	callstack 0
   726   000080                     INT0_SetInterruptHandler@InterruptHandler:
   727                           	callstack 0
   728   000080                     INT1_SetInterruptHandler@InterruptHandler:
   729                           	callstack 0
   730   000080                     INT2_SetInterruptHandler@InterruptHandler:
   731                           	callstack 0
   732   000080                     ___awdiv@dividend:
   733                           	callstack 0
   734   000080                     ___awmod@dividend:
   735                           	callstack 0
   736   000080                     fputc@c:
   737                           	callstack 0
   738                           
   739                           ; 2 bytes @ 0x0
   740   000080                     	ds	1
   741   000081                     memset@c:
   742                           	callstack 0
   743                           
   744                           ; 2 bytes @ 0x1
   745   000081                     	ds	1
   746   000082                     ??_gpio_pin_direction_initialize:
   747   000082                     ??_interrupt_INTx_disable:
   748   000082                     ??_interrupt_INTx_clear_flag:
   749   000082                     ??_interrupt_INTx_edge_init:
   750   000082                     ??_interrupt_INTx_enable:
   751   000082                     Data_EEPROM_ReadByte@data:
   752                           	callstack 0
   753   000082                     gpio_pin_write_logic@logic:
   754                           	callstack 0
   755   000082                     fputc@fp:
   756                           	callstack 0
   757   000082                     interrupt_INTx_SetInterruptHandler@int_obj:
   758                           	callstack 0
   759   000082                     ___awdiv@divisor:
   760                           	callstack 0
   761   000082                     ___awmod@divisor:
   762                           	callstack 0
   763                           
   764                           ; 2 bytes @ 0x2
   765   000082                     	ds	1
   766   000083                     ??_gpio_pin_write_logic:
   767   000083                     ??_fputc:
   768   000083                     memset@n:
   769                           	callstack 0
   770                           
   771                           ; 2 bytes @ 0x3
   772   000083                     	ds	1
   773   000084                     ??_interrupt_INTx_SetInterruptHandler:
   774   000084                     interrupt_INTx_enable@ret:
   775                           	callstack 0
   776   000084                     interrupt_INTx_disable@ret:
   777                           	callstack 0
   778   000084                     interrupt_INTx_edge_init@ret:
   779                           	callstack 0
   780   000084                     interrupt_INTx_clear_flag@ret:
   781                           	callstack 0
   782   000084                     ___awdiv@counter:
   783                           	callstack 0
   784   000084                     ___awmod@counter:
   785                           	callstack 0
   786                           
   787                           ; 1 bytes @ 0x4
   788   000084                     	ds	1
   789   000085                     ___awdiv@sign:
   790                           	callstack 0
   791   000085                     ___awmod@sign:
   792                           	callstack 0
   793   000085                     memset@p:
   794                           	callstack 0
   795                           
   796                           ; 1 bytes @ 0x5
   797   000085                     	ds	1
   798   000086                     ?_abs:
   799                           	callstack 0
   800   000086                     interrupt_INTx_SetInterruptHandler@ret:
   801                           	callstack 0
   802   000086                     ___awdiv@quotient:
   803                           	callstack 0
   804   000086                     abs@a:
   805                           	callstack 0
   806                           
   807                           ; 2 bytes @ 0x6
   808   000086                     	ds	1
   809   000087                     gpio_pin_direction_initialize@ret:
   810                           	callstack 0
   811                           
   812                           ; 1 bytes @ 0x7
   813   000087                     	ds	1
   814   000088                     ??_abs:
   815   000088                     button_initialize@btn:
   816                           	callstack 0
   817   000088                     gpio_pin_write_logic@ret:
   818                           	callstack 0
   819   000088                     interrupt_RBx_initialize@int_obj:
   820                           	callstack 0
   821                           
   822                           ; 1 bytes @ 0x8
   823   000088                     	ds	1
   824   000089                     ??_interrupt_RBx_initialize:
   825   000089                     button_initialize@ret:
   826                           	callstack 0
   827   000089                     lcd_send_4bits@lcd:
   828                           	callstack 0
   829   000089                     lcd_4bit_enable_signal@lcd:
   830                           	callstack 0
   831   000089                     gpio_pin_initialize@pin_config:
   832                           	callstack 0
   833                           
   834                           ; 2 bytes @ 0x9
   835   000089                     	ds	1
   836   00008A                     ??_lcd_4bit_enable_signal:
   837   00008A                     lcd_send_4bits@data:
   838                           	callstack 0
   839   00008A                     interrupt_RBx_initialize@ret:
   840                           	callstack 0
   841   00008A                     vfpfcnvrt@fp:
   842                           	callstack 0
   843                           
   844                           ; 1 bytes @ 0xA
   845   00008A                     	ds	1
   846   00008B                     ??_gpio_pin_initialize:
   847   00008B                     ??_lcd_send_4bits:
   848   00008B                     lcd_4bit_enable_signal@ret:
   849                           	callstack 0
   850   00008B                     vfpfcnvrt@fmt:
   851                           	callstack 0
   852                           
   853                           ; 1 bytes @ 0xB
   854   00008B                     	ds	1
   855   00008C                     lcd_send_4bits@ret:
   856                           	callstack 0
   857   00008C                     gpio_pin_initialize@ret:
   858                           	callstack 0
   859   00008C                     vfpfcnvrt@ap:
   860                           	callstack 0
   861                           
   862                           ; 1 bytes @ 0xC
   863   00008C                     	ds	1
   864   00008D                     ??_vfpfcnvrt:
   865   00008D                     lcd_4bit_send_command@lcd:
   866                           	callstack 0
   867   00008D                     lcd_4bit_send_char_data@lcd:
   868                           	callstack 0
   869   00008D                     interrupt_INTx_pin_init@int_obj:
   870                           	callstack 0
   871                           
   872                           ; 2 bytes @ 0xD
   873   00008D                     	ds	1
   874   00008E                     lcd_4bit_send_command@command:
   875                           	callstack 0
   876   00008E                     lcd_4bit_send_char_data@data:
   877                           	callstack 0
   878   00008E                     vfpfcnvrt@done:
   879                           	callstack 0
   880                           
   881                           ; 1 bytes @ 0xE
   882   00008E                     	ds	1
   883   00008F                     lcd_4bit_send_command@ret:
   884                           	callstack 0
   885   00008F                     lcd_4bit_send_char_data@ret:
   886                           	callstack 0
   887   00008F                     interrupt_INTx_pin_init@ret:
   888                           	callstack 0
   889   00008F                     vfpfcnvrt@cp:
   890                           	callstack 0
   891                           
   892                           ; 1 bytes @ 0xF
   893   00008F                     	ds	1
   894   000090                     lcd_4bit_initialize@lcd:
   895                           	callstack 0
   896   000090                     lcd_4bit_set_cursor@lcd:
   897                           	callstack 0
   898   000090                     interrupt_INTx_initialize@int_obj:
   899                           	callstack 0
   900   000090                     vfpfcnvrt@convarg:
   901                           	callstack 0
   902                           
   903                           ; 4 bytes @ 0x10
   904   000090                     	ds	1
   905   000091                     ??_lcd_4bit_initialize:
   906   000091                     lcd_4bit_set_cursor@row:
   907                           	callstack 0
   908                           
   909                           ; 1 bytes @ 0x11
   910   000091                     	ds	1
   911   000092                     lcd_4bit_initialize@data_pins_counter:
   912                           	callstack 0
   913   000092                     lcd_4bit_set_cursor@column:
   914                           	callstack 0
   915   000092                     interrupt_INTx_initialize@ret:
   916                           	callstack 0
   917                           
   918                           ; 1 bytes @ 0x12
   919   000092                     	ds	1
   920   000093                     lcd_4bit_initialize@ret:
   921                           	callstack 0
   922   000093                     lcd_4bit_set_cursor@ret:
   923                           	callstack 0
   924   000093                     mcal_initialize@ret:
   925                           	callstack 0
   926                           
   927                           ; 1 bytes @ 0x13
   928   000093                     	ds	1
   929   000094                     lcd_4bit_send_char_data_pos@lcd:
   930                           	callstack 0
   931   000094                     lcd_4bit_send_string_pos@lcd:
   932                           	callstack 0
   933   000094                     ecu_initialize@ret:
   934                           	callstack 0
   935   000094                     vfpfcnvrt@c:
   936                           	callstack 0
   937                           
   938                           ; 1 bytes @ 0x14
   939   000094                     	ds	1
   940   000095                     ?_vfprintf:
   941                           	callstack 0
   942   000095                     lcd_4bit_send_char_data_pos@data:
   943                           	callstack 0
   944   000095                     vfprintf@fp:
   945                           	callstack 0
   946   000095                     lcd_4bit_send_string_pos@str:
   947                           	callstack 0
   948                           
   949                           ; 2 bytes @ 0x15
   950   000095                     	ds	1
   951   000096                     lcd_4bit_send_char_data_pos@row:
   952                           	callstack 0
   953   000096                     vfprintf@fmt:
   954                           	callstack 0
   955                           
   956                           ; 1 bytes @ 0x16
   957   000096                     	ds	1
   958   000097                     lcd_4bit_send_char_data_pos@column:
   959                           	callstack 0
   960   000097                     lcd_4bit_send_string_pos@row:
   961                           	callstack 0
   962   000097                     vfprintf@ap:
   963                           	callstack 0
   964                           
   965                           ; 1 bytes @ 0x17
   966   000097                     	ds	1
   967   000098                     lcd_4bit_send_char_data_pos@ret:
   968                           	callstack 0
   969   000098                     lcd_4bit_send_string_pos@column:
   970                           	callstack 0
   971   000098                     vfprintf@cfmt:
   972                           	callstack 0
   973                           
   974                           ; 1 bytes @ 0x18
   975   000098                     	ds	1
   976   000099                     ?_sprintf:
   977                           	callstack 0
   978   000099                     lcd_4bit_send_string_pos@ret:
   979                           	callstack 0
   980   000099                     sprintf@s:
   981                           	callstack 0
   982                           
   983                           ; 1 bytes @ 0x19
   984   000099                     	ds	1
   985   00009A                     ??_welcome_message:
   986   00009A                     ??_loading_screen:
   987   00009A                     sprintf@fmt:
   988                           	callstack 0
   989                           
   990                           ; 1 bytes @ 0x1A
   991   00009A                     	ds	2
   992   00009C                     loading_screen@counter2:
   993                           	callstack 0
   994                           
   995                           ; 1 bytes @ 0x1C
   996   00009C                     	ds	1
   997   00009D                     loading_screen@counter1:
   998                           	callstack 0
   999   00009D                     sprintf@ap:
  1000                           	callstack 0
  1001                           
  1002                           ; 1 bytes @ 0x1D
  1003   00009D                     	ds	1
  1004   00009E                     sprintf@f:
  1005                           	callstack 0
  1006                           
  1007                           ; 12 bytes @ 0x1E
  1008   00009E                     	ds	12
  1009   0000AA                     convert_uint16_to_string@value:
  1010                           	callstack 0
  1011                           
  1012                           ; 2 bytes @ 0x2A
  1013   0000AA                     	ds	2
  1014   0000AC                     convert_uint16_to_string@str:
  1015                           	callstack 0
  1016                           
  1017                           ; 1 bytes @ 0x2C
  1018   0000AC                     	ds	1
  1019   0000AD                     convert_uint16_to_string@temp_str:
  1020                           	callstack 0
  1021                           
  1022                           ; 6 bytes @ 0x2D
  1023   0000AD                     	ds	6
  1024   0000B3                     convert_uint16_to_string@ret:
  1025                           	callstack 0
  1026                           
  1027                           ; 1 bytes @ 0x33
  1028   0000B3                     	ds	1
  1029   0000B4                     convert_uint16_to_string@data_counter:
  1030                           	callstack 0
  1031                           
  1032                           ; 1 bytes @ 0x34
  1033   0000B4                     	ds	1
  1034   0000B5                     
  1035                           ; 1 bytes @ 0x35
  1036                           
  1037                           	psect	cstackCOMRAM
  1038   000001                     __pcstackCOMRAM:
  1039                           	callstack 0
  1040   000001                     ?i2___awdiv:
  1041                           	callstack 0
  1042   000001                     ?i2___awmod:
  1043                           	callstack 0
  1044   000001                     i2memset@dest:
  1045                           	callstack 0
  1046   000001                     Data_EEPROM_WriteByte@adr:
  1047                           	callstack 0
  1048   000001                     i2Data_EEPROM_ReadByte@adr:
  1049                           	callstack 0
  1050   000001                     i2gpio_pin_write_logic@pin_config:
  1051                           	callstack 0
  1052   000001                     i2___awdiv@dividend:
  1053                           	callstack 0
  1054   000001                     i2___awmod@dividend:
  1055                           	callstack 0
  1056   000001                     i2fputc@c:
  1057                           	callstack 0
  1058                           
  1059                           ; 2 bytes @ 0x0
  1060   000001                     	ds	1
  1061   000002                     i2memset@c:
  1062                           	callstack 0
  1063                           
  1064                           ; 2 bytes @ 0x1
  1065   000002                     	ds	1
  1066   000003                     Data_EEPROM_WriteByte@data:
  1067                           	callstack 0
  1068   000003                     i2Data_EEPROM_ReadByte@data:
  1069                           	callstack 0
  1070   000003                     i2gpio_pin_write_logic@logic:
  1071                           	callstack 0
  1072   000003                     i2fputc@fp:
  1073                           	callstack 0
  1074   000003                     i2___awdiv@divisor:
  1075                           	callstack 0
  1076   000003                     i2___awmod@divisor:
  1077                           	callstack 0
  1078                           
  1079                           ; 2 bytes @ 0x2
  1080   000003                     	ds	1
  1081   000004                     ??i2_gpio_pin_write_logic:
  1082   000004                     ??i2_fputc:
  1083   000004                     Data_EEPROM_WriteByte@Global_Interrupt_status:
  1084                           	callstack 0
  1085   000004                     i2memset@n:
  1086                           	callstack 0
  1087                           
  1088                           ; 2 bytes @ 0x3
  1089   000004                     	ds	1
  1090   000005                     i2___awdiv@counter:
  1091                           	callstack 0
  1092   000005                     i2___awmod@counter:
  1093                           	callstack 0
  1094                           
  1095                           ; 1 bytes @ 0x4
  1096   000005                     	ds	1
  1097   000006                     i2___awdiv@sign:
  1098                           	callstack 0
  1099   000006                     i2___awmod@sign:
  1100                           	callstack 0
  1101   000006                     i2memset@p:
  1102                           	callstack 0
  1103                           
  1104                           ; 1 bytes @ 0x5
  1105   000006                     	ds	1
  1106   000007                     ?i2_abs:
  1107                           	callstack 0
  1108   000007                     i2___awdiv@quotient:
  1109                           	callstack 0
  1110   000007                     i2abs@a:
  1111                           	callstack 0
  1112                           
  1113                           ; 2 bytes @ 0x6
  1114   000007                     	ds	2
  1115   000009                     ??i2_abs:
  1116   000009                     i2gpio_pin_write_logic@ret:
  1117                           	callstack 0
  1118                           
  1119                           ; 1 bytes @ 0x8
  1120   000009                     	ds	1
  1121   00000A                     i2lcd_send_4bits@lcd:
  1122                           	callstack 0
  1123   00000A                     i2lcd_4bit_enable_signal@lcd:
  1124                           	callstack 0
  1125                           
  1126                           ; 1 bytes @ 0x9
  1127   00000A                     	ds	1
  1128   00000B                     ??i2_lcd_4bit_enable_signal:
  1129   00000B                     i2lcd_send_4bits@data:
  1130                           	callstack 0
  1131   00000B                     i2vfpfcnvrt@fp:
  1132                           	callstack 0
  1133                           
  1134                           ; 1 bytes @ 0xA
  1135   00000B                     	ds	1
  1136   00000C                     ??i2_lcd_send_4bits:
  1137   00000C                     i2lcd_4bit_enable_signal@ret:
  1138                           	callstack 0
  1139   00000C                     i2vfpfcnvrt@fmt:
  1140                           	callstack 0
  1141                           
  1142                           ; 1 bytes @ 0xB
  1143   00000C                     	ds	1
  1144   00000D                     i2lcd_send_4bits@ret:
  1145                           	callstack 0
  1146   00000D                     i2vfpfcnvrt@ap:
  1147                           	callstack 0
  1148                           
  1149                           ; 1 bytes @ 0xC
  1150   00000D                     	ds	1
  1151   00000E                     ??i2_vfpfcnvrt:
  1152   00000E                     i2lcd_4bit_send_command@lcd:
  1153                           	callstack 0
  1154   00000E                     i2lcd_4bit_send_char_data@lcd:
  1155                           	callstack 0
  1156                           
  1157                           ; 1 bytes @ 0xD
  1158   00000E                     	ds	1
  1159   00000F                     i2lcd_4bit_send_command@command:
  1160                           	callstack 0
  1161   00000F                     i2lcd_4bit_send_char_data@data:
  1162                           	callstack 0
  1163   00000F                     i2vfpfcnvrt@done:
  1164                           	callstack 0
  1165                           
  1166                           ; 1 bytes @ 0xE
  1167   00000F                     	ds	1
  1168   000010                     i2lcd_4bit_send_command@ret:
  1169                           	callstack 0
  1170   000010                     i2lcd_4bit_send_char_data@ret:
  1171                           	callstack 0
  1172   000010                     i2vfpfcnvrt@cp:
  1173                           	callstack 0
  1174                           
  1175                           ; 1 bytes @ 0xF
  1176   000010                     	ds	1
  1177   000011                     i2lcd_4bit_set_cursor@lcd:
  1178                           	callstack 0
  1179   000011                     i2vfpfcnvrt@convarg:
  1180                           	callstack 0
  1181                           
  1182                           ; 4 bytes @ 0x10
  1183   000011                     	ds	1
  1184   000012                     i2lcd_4bit_set_cursor@row:
  1185                           	callstack 0
  1186                           
  1187                           ; 1 bytes @ 0x11
  1188   000012                     	ds	1
  1189   000013                     i2lcd_4bit_set_cursor@column:
  1190                           	callstack 0
  1191                           
  1192                           ; 1 bytes @ 0x12
  1193   000013                     	ds	1
  1194   000014                     i2lcd_4bit_set_cursor@ret:
  1195                           	callstack 0
  1196                           
  1197                           ; 1 bytes @ 0x13
  1198   000014                     	ds	1
  1199   000015                     i2lcd_4bit_send_string_pos@lcd:
  1200                           	callstack 0
  1201   000015                     i2vfpfcnvrt@c:
  1202                           	callstack 0
  1203                           
  1204                           ; 1 bytes @ 0x14
  1205   000015                     	ds	1
  1206   000016                     ?i2_vfprintf:
  1207                           	callstack 0
  1208   000016                     i2vfprintf@fp:
  1209                           	callstack 0
  1210   000016                     i2lcd_4bit_send_string_pos@str:
  1211                           	callstack 0
  1212                           
  1213                           ; 2 bytes @ 0x15
  1214   000016                     	ds	1
  1215   000017                     i2vfprintf@fmt:
  1216                           	callstack 0
  1217                           
  1218                           ; 1 bytes @ 0x16
  1219   000017                     	ds	1
  1220   000018                     i2lcd_4bit_send_string_pos@row:
  1221                           	callstack 0
  1222   000018                     i2vfprintf@ap:
  1223                           	callstack 0
  1224                           
  1225                           ; 1 bytes @ 0x17
  1226   000018                     	ds	1
  1227   000019                     i2lcd_4bit_send_string_pos@column:
  1228                           	callstack 0
  1229   000019                     i2vfprintf@cfmt:
  1230                           	callstack 0
  1231                           
  1232                           ; 1 bytes @ 0x18
  1233   000019                     	ds	1
  1234   00001A                     ?i2_sprintf:
  1235                           	callstack 0
  1236   00001A                     i2lcd_4bit_send_string_pos@ret:
  1237                           	callstack 0
  1238   00001A                     i2sprintf@s:
  1239                           	callstack 0
  1240                           
  1241                           ; 1 bytes @ 0x19
  1242   00001A                     	ds	1
  1243   00001B                     i2sprintf@fmt:
  1244                           	callstack 0
  1245                           
  1246                           ; 1 bytes @ 0x1A
  1247   00001B                     	ds	3
  1248   00001E                     i2sprintf@ap:
  1249                           	callstack 0
  1250                           
  1251                           ; 1 bytes @ 0x1D
  1252   00001E                     	ds	1
  1253   00001F                     i2sprintf@f:
  1254                           	callstack 0
  1255                           
  1256                           ; 12 bytes @ 0x1E
  1257   00001F                     	ds	12
  1258   00002B                     i2convert_uint16_to_string@value:
  1259                           	callstack 0
  1260                           
  1261                           ; 2 bytes @ 0x2A
  1262   00002B                     	ds	2
  1263   00002D                     i2convert_uint16_to_string@str:
  1264                           	callstack 0
  1265                           
  1266                           ; 1 bytes @ 0x2C
  1267   00002D                     	ds	1
  1268   00002E                     i2convert_uint16_to_string@temp_str:
  1269                           	callstack 0
  1270                           
  1271                           ; 6 bytes @ 0x2D
  1272   00002E                     	ds	6
  1273   000034                     i2convert_uint16_to_string@ret:
  1274                           	callstack 0
  1275                           
  1276                           ; 1 bytes @ 0x33
  1277   000034                     	ds	1
  1278   000035                     i2convert_uint16_to_string@data_counter:
  1279                           	callstack 0
  1280                           
  1281                           ; 1 bytes @ 0x34
  1282   000035                     	ds	1
  1283   000036                     RB4_ISR@RB4_source:
  1284                           	callstack 0
  1285   000036                     RB5_ISR@RB5_source:
  1286                           	callstack 0
  1287   000036                     RB6_ISR@RB6_source:
  1288                           	callstack 0
  1289   000036                     RB7_ISR@RB7_source:
  1290                           	callstack 0
  1291                           
  1292                           ; 1 bytes @ 0x35
  1293   000036                     	ds	1
  1294   000037                     ??_InterruptManager:
  1295                           
  1296                           ; 1 bytes @ 0x36
  1297   000037                     	ds	14
  1298                           
  1299 ;;
  1300 ;;Main: autosize = 0, tempsize = 0, incstack = 0, save=0
  1301 ;;
  1302 ;; *************** function _main *****************
  1303 ;; Defined at:
  1304 ;;		line 33 in file "application.c"
  1305 ;; Parameters:    Size  Location     Type
  1306 ;;		None
  1307 ;; Auto vars:     Size  Location     Type
  1308 ;;		None
  1309 ;; Return value:  Size  Location     Type
  1310 ;;                  2  752[None  ] int 
  1311 ;; Registers used:
  1312 ;;		wreg, fsr0l, fsr0h, fsr1l, fsr1h, fsr2l, fsr2h, status,2, status,0, tblptrl, tblptrh, tblptru, prodl, prodh, cstack
  1313 ;; Tracked objects:
  1314 ;;		On entry : 0/0
  1315 ;;		On exit  : 0/0
  1316 ;;		Unchanged: 0/0
  1317 ;; Data sizes:     COMRAM   BANK0   BANK1   BANK2   BANK3   BANK4   BANK5   BANK6   BANK7   BANK8   BANK9  BANK10  BANK1
      +1  BANK12  BANK13  BANK14  BANK15
  1318 ;;      Params:         0       0       0       0       0       0       0       0       0       0       0       0       
      +0       0       0       0       0
  1319 ;;      Locals:         0       0       0       0       0       0       0       0       0       0       0       0       
      +0       0       0       0       0
  1320 ;;      Temps:          0       0       0       0       0       0       0       0       0       0       0       0       
      +0       0       0       0       0
  1321 ;;      Totals:         0       0       0       0       0       0       0       0       0       0       0       0       
      +0       0       0       0       0
  1322 ;;Total ram usage:        0 bytes
  1323 ;; Hardware stack levels required when called: 17
  1324 ;; This function calls:
  1325 ;;		_display
  1326 ;;		_ecu_initialize
  1327 ;;		_loading_screen
  1328 ;;		_mcal_initialize
  1329 ;;		_welcome_message
  1330 ;;		_winner
  1331 ;; This function is called by:
  1332 ;;		Startup code after reset
  1333 ;; This function uses a non-reentrant model
  1334 ;;
  1335                           
  1336                           	psect	text0
  1337   0038E4                     __ptext0:
  1338                           	callstack 0
  1339   0038E4                     _main:
  1340                           	callstack 14
  1341   0038E4                     
  1342                           ;application.c: 35:     ecu_initialize();
  1343   0038E4  ECAA  F01A         	call	_ecu_initialize	;wreg free
  1344                           
  1345                           ;application.c: 37:     mcal_initialize();
  1346   0038E8  EC7E  F01A         	call	_mcal_initialize	;wreg free
  1347   0038EC                     
  1348                           ;application.c: 39:     welcome_message();
  1349   0038EC  EC4F  F01A         	call	_welcome_message	;wreg free
  1350   0038F0                     
  1351                           ;application.c: 41:     loading_screen();
  1352   0038F0  EC32  F00C         	call	_loading_screen	;wreg free
  1353   0038F4                     l7119:
  1354                           
  1355                           ;application.c: 44:         if(operation_mode){
  1356   0038F4  0100               	movlb	0	; () banked
  1357   0038F6  51E1               	movf	_operation_mode& (0+255),w,b
  1358   0038F8  B4D8               	btfsc	status,2,c
  1359   0038FA  EF81  F01C         	goto	u7141
  1360   0038FE  EF83  F01C         	goto	u7140
  1361   003902                     u7141:
  1362   003902  EF87  F01C         	goto	l7123
  1363   003906                     u7140:
  1364   003906                     
  1365                           ; BSR set to: 0
  1366                           ;application.c: 45:             winner();
  1367   003906  ECD4  F00C         	call	_winner	;wreg free
  1368                           
  1369                           ;application.c: 46:         }
  1370   00390A  EF7A  F01C         	goto	l7119
  1371   00390E                     l7123:
  1372                           
  1373                           ; BSR set to: 0
  1374                           ;application.c: 49:             display();
  1375   00390E  EC87  F00B         	call	_display	;wreg free
  1376   003912  EF7A  F01C         	goto	l7119
  1377   003916  EF07  F000         	goto	start
  1378   00391A                     __end_of_main:
  1379                           	callstack 0
  1380                           
  1381 ;; *************** function _winner *****************
  1382 ;; Defined at:
  1383 ;;		line 171 in file "application.c"
  1384 ;; Parameters:    Size  Location     Type
  1385 ;;		None
  1386 ;; Auto vars:     Size  Location     Type
  1387 ;;		None
  1388 ;; Return value:  Size  Location     Type
  1389 ;;                  1    wreg      void 
  1390 ;; Registers used:
  1391 ;;		wreg, fsr0l, fsr0h, fsr2l, fsr2h, status,2, status,0, tblptrl, tblptrh, tblptru, prodl, prodh, cstack
  1392 ;; Tracked objects:
  1393 ;;		On entry : 0/0
  1394 ;;		On exit  : 0/0
  1395 ;;		Unchanged: 0/0
  1396 ;; Data sizes:     COMRAM   BANK0   BANK1   BANK2   BANK3   BANK4   BANK5   BANK6   BANK7   BANK8   BANK9  BANK10  BANK1
      +1  BANK12  BANK13  BANK14  BANK15
  1397 ;;      Params:         0       0       0       0       0       0       0       0       0       0       0       0       
      +0       0       0       0       0
  1398 ;;      Locals:         0       0       0       0       0       0       0       0       0       0       0       0       
      +0       0       0       0       0
  1399 ;;      Temps:          0       0       0       0       0       0       0       0       0       0       0       0       
      +0       0       0       0       0
  1400 ;;      Totals:         0       0       0       0       0       0       0       0       0       0       0       0       
      +0       0       0       0       0
  1401 ;;Total ram usage:        0 bytes
  1402 ;; Hardware stack levels used: 1
  1403 ;; Hardware stack levels required when called: 15
  1404 ;; This function calls:
  1405 ;;		_lcd_4bit_send_command
  1406 ;;		_lcd_4bit_send_string_pos
  1407 ;; This function is called by:
  1408 ;;		_main
  1409 ;; This function uses a non-reentrant model
  1410 ;;
  1411                           
  1412                           	psect	text1
  1413   0019A8                     __ptext1:
  1414                           	callstack 0
  1415   0019A8                     _winner:
  1416                           	callstack 15
  1417   0019A8                     
  1418                           ;application.c: 172:  if((can_A > can_B) && (can_A > can_C) && (can_A > can_D)){
  1419   0019A8  0100               	movlb	0	; () banked
  1420   0019AA  51FD               	movf	_can_A& (0+255),w,b
  1421   0019AC  5DFC               	subwf	_can_B& (0+255),w,b
  1422   0019AE  B0D8               	btfsc	status,0,c
  1423   0019B0  EFDC  F00C         	goto	u6521
  1424   0019B4  EFDE  F00C         	goto	u6520
  1425   0019B8                     u6521:
  1426   0019B8  EF00  F00D         	goto	l6777
  1427   0019BC                     u6520:
  1428   0019BC                     
  1429                           ; BSR set to: 0
  1430   0019BC  51FD               	movf	_can_A& (0+255),w,b
  1431   0019BE  5DFB               	subwf	_can_C& (0+255),w,b
  1432   0019C0  B0D8               	btfsc	status,0,c
  1433   0019C2  EFE5  F00C         	goto	u6531
  1434   0019C6  EFE7  F00C         	goto	u6530
  1435   0019CA                     u6531:
  1436   0019CA  EF00  F00D         	goto	l6777
  1437   0019CE                     u6530:
  1438   0019CE                     
  1439                           ; BSR set to: 0
  1440   0019CE  51FD               	movf	_can_A& (0+255),w,b
  1441   0019D0  5DFA               	subwf	_can_D& (0+255),w,b
  1442   0019D2  B0D8               	btfsc	status,0,c
  1443   0019D4  EFEE  F00C         	goto	u6541
  1444   0019D8  EFF0  F00C         	goto	u6540
  1445   0019DC                     u6541:
  1446   0019DC  EF00  F00D         	goto	l6777
  1447   0019E0                     u6540:
  1448   0019E0                     
  1449                           ; BSR set to: 0
  1450                           ;application.c: 174:         lcd_4bit_send_string_pos(&lcd, (uint8 *)"A is the winner", 
      +                          1, 1);
  1451   0019E0  0EC9               	movlw	low _lcd
  1452   0019E2  6F94               	movwf	lcd_4bit_send_string_pos@lcd& (0+255),b
  1453   0019E4  0E01               	movlw	low STR_12
  1454   0019E6  6F95               	movwf	lcd_4bit_send_string_pos@str& (0+255),b
  1455   0019E8  5195               	movf	lcd_4bit_send_string_pos@str& (0+255),w,b
  1456   0019EA  A4D8               	btfss	status,2,c
  1457   0019EC  0E10               	movlw	high __smallconst
  1458   0019EE  6F96               	movwf	(lcd_4bit_send_string_pos@str+1)& (0+255),b
  1459   0019F0  0E01               	movlw	1
  1460   0019F2  6F97               	movwf	lcd_4bit_send_string_pos@row& (0+255),b
  1461   0019F4  0E01               	movlw	1
  1462   0019F6  6F98               	movwf	lcd_4bit_send_string_pos@column& (0+255),b
  1463   0019F8  EC92  F013         	call	_lcd_4bit_send_string_pos	;wreg free
  1464                           
  1465                           ;application.c: 175:     }
  1466   0019FC  EF64  F00D         	goto	l6795
  1467   001A00                     l6777:
  1468                           
  1469                           ; BSR set to: 0
  1470   001A00  51FC               	movf	_can_B& (0+255),w,b
  1471   001A02  5DFD               	subwf	_can_A& (0+255),w,b
  1472   001A04  B0D8               	btfsc	status,0,c
  1473   001A06  EF07  F00D         	goto	u6551
  1474   001A0A  EF09  F00D         	goto	u6550
  1475   001A0E                     u6551:
  1476   001A0E  EF2B  F00D         	goto	l6785
  1477   001A12                     u6550:
  1478   001A12                     
  1479                           ; BSR set to: 0
  1480   001A12  51FC               	movf	_can_B& (0+255),w,b
  1481   001A14  5DFB               	subwf	_can_C& (0+255),w,b
  1482   001A16  B0D8               	btfsc	status,0,c
  1483   001A18  EF10  F00D         	goto	u6561
  1484   001A1C  EF12  F00D         	goto	u6560
  1485   001A20                     u6561:
  1486   001A20  EF2B  F00D         	goto	l6785
  1487   001A24                     u6560:
  1488   001A24                     
  1489                           ; BSR set to: 0
  1490   001A24  51FC               	movf	_can_B& (0+255),w,b
  1491   001A26  5DFA               	subwf	_can_D& (0+255),w,b
  1492   001A28  B0D8               	btfsc	status,0,c
  1493   001A2A  EF19  F00D         	goto	u6571
  1494   001A2E  EF1B  F00D         	goto	u6570
  1495   001A32                     u6571:
  1496   001A32  EF2B  F00D         	goto	l6785
  1497   001A36                     u6570:
  1498   001A36                     
  1499                           ; BSR set to: 0
  1500                           ;application.c: 178:         lcd_4bit_send_string_pos(&lcd, (uint8 *)"B is the winner", 
      +                          1, 1);
  1501   001A36  0EC9               	movlw	low _lcd
  1502   001A38  6F94               	movwf	lcd_4bit_send_string_pos@lcd& (0+255),b
  1503   001A3A  0E11               	movlw	low STR_13
  1504   001A3C  6F95               	movwf	lcd_4bit_send_string_pos@str& (0+255),b
  1505   001A3E  5195               	movf	lcd_4bit_send_string_pos@str& (0+255),w,b
  1506   001A40  A4D8               	btfss	status,2,c
  1507   001A42  0E10               	movlw	high __smallconst
  1508   001A44  6F96               	movwf	(lcd_4bit_send_string_pos@str+1)& (0+255),b
  1509   001A46  0E01               	movlw	1
  1510   001A48  6F97               	movwf	lcd_4bit_send_string_pos@row& (0+255),b
  1511   001A4A  0E01               	movlw	1
  1512   001A4C  6F98               	movwf	lcd_4bit_send_string_pos@column& (0+255),b
  1513   001A4E  EC92  F013         	call	_lcd_4bit_send_string_pos	;wreg free
  1514                           
  1515                           ;application.c: 179:     }
  1516   001A52  EF64  F00D         	goto	l6795
  1517   001A56                     l6785:
  1518                           
  1519                           ; BSR set to: 0
  1520   001A56  51FB               	movf	_can_C& (0+255),w,b
  1521   001A58  5DFD               	subwf	_can_A& (0+255),w,b
  1522   001A5A  B0D8               	btfsc	status,0,c
  1523   001A5C  EF32  F00D         	goto	u6581
  1524   001A60  EF34  F00D         	goto	u6580
  1525   001A64                     u6581:
  1526   001A64  EF56  F00D         	goto	l6793
  1527   001A68                     u6580:
  1528   001A68                     
  1529                           ; BSR set to: 0
  1530   001A68  51FB               	movf	_can_C& (0+255),w,b
  1531   001A6A  5DFC               	subwf	_can_B& (0+255),w,b
  1532   001A6C  B0D8               	btfsc	status,0,c
  1533   001A6E  EF3B  F00D         	goto	u6591
  1534   001A72  EF3D  F00D         	goto	u6590
  1535   001A76                     u6591:
  1536   001A76  EF56  F00D         	goto	l6793
  1537   001A7A                     u6590:
  1538   001A7A                     
  1539                           ; BSR set to: 0
  1540   001A7A  51FB               	movf	_can_C& (0+255),w,b
  1541   001A7C  5DFA               	subwf	_can_D& (0+255),w,b
  1542   001A7E  B0D8               	btfsc	status,0,c
  1543   001A80  EF44  F00D         	goto	u6601
  1544   001A84  EF46  F00D         	goto	u6600
  1545   001A88                     u6601:
  1546   001A88  EF56  F00D         	goto	l6793
  1547   001A8C                     u6600:
  1548   001A8C                     
  1549                           ; BSR set to: 0
  1550                           ;application.c: 182:         lcd_4bit_send_string_pos(&lcd, (uint8 *)"C is the winner", 
      +                          1, 1);
  1551   001A8C  0EC9               	movlw	low _lcd
  1552   001A8E  6F94               	movwf	lcd_4bit_send_string_pos@lcd& (0+255),b
  1553   001A90  0E21               	movlw	low STR_14
  1554   001A92  6F95               	movwf	lcd_4bit_send_string_pos@str& (0+255),b
  1555   001A94  5195               	movf	lcd_4bit_send_string_pos@str& (0+255),w,b
  1556   001A96  A4D8               	btfss	status,2,c
  1557   001A98  0E10               	movlw	high __smallconst
  1558   001A9A  6F96               	movwf	(lcd_4bit_send_string_pos@str+1)& (0+255),b
  1559   001A9C  0E01               	movlw	1
  1560   001A9E  6F97               	movwf	lcd_4bit_send_string_pos@row& (0+255),b
  1561   001AA0  0E01               	movlw	1
  1562   001AA2  6F98               	movwf	lcd_4bit_send_string_pos@column& (0+255),b
  1563   001AA4  EC92  F013         	call	_lcd_4bit_send_string_pos	;wreg free
  1564                           
  1565                           ;application.c: 183:     }
  1566   001AA8  EF64  F00D         	goto	l6795
  1567   001AAC                     l6793:
  1568                           
  1569                           ; BSR set to: 0
  1570                           ;application.c: 186:         lcd_4bit_send_string_pos(&lcd, (uint8 *)"D is the winner", 
      +                          1, 1);
  1571   001AAC  0EC9               	movlw	low _lcd
  1572   001AAE  6F94               	movwf	lcd_4bit_send_string_pos@lcd& (0+255),b
  1573   001AB0  0E31               	movlw	low STR_15
  1574   001AB2  6F95               	movwf	lcd_4bit_send_string_pos@str& (0+255),b
  1575   001AB4  5195               	movf	lcd_4bit_send_string_pos@str& (0+255),w,b
  1576   001AB6  A4D8               	btfss	status,2,c
  1577   001AB8  0E10               	movlw	high __smallconst
  1578   001ABA  6F96               	movwf	(lcd_4bit_send_string_pos@str+1)& (0+255),b
  1579   001ABC  0E01               	movlw	1
  1580   001ABE  6F97               	movwf	lcd_4bit_send_string_pos@row& (0+255),b
  1581   001AC0  0E01               	movlw	1
  1582   001AC2  6F98               	movwf	lcd_4bit_send_string_pos@column& (0+255),b
  1583   001AC4  EC92  F013         	call	_lcd_4bit_send_string_pos	;wreg free
  1584   001AC8                     l6795:
  1585                           
  1586                           ;application.c: 188:     if(operation_mode == 0){
  1587   001AC8  0100               	movlb	0	; () banked
  1588   001ACA  51E1               	movf	_operation_mode& (0+255),w,b
  1589   001ACC  A4D8               	btfss	status,2,c
  1590   001ACE  EF6B  F00D         	goto	u6611
  1591   001AD2  EF6D  F00D         	goto	u6610
  1592   001AD6                     u6611:
  1593   001AD6  EF74  F00D         	goto	l814
  1594   001ADA                     u6610:
  1595   001ADA                     
  1596                           ; BSR set to: 0
  1597                           ;application.c: 189:         ret = lcd_4bit_send_command(&lcd, 0x01);
  1598   001ADA  0EC9               	movlw	low _lcd
  1599   001ADC  6F8D               	movwf	lcd_4bit_send_command@lcd& (0+255),b
  1600   001ADE  0E01               	movlw	1
  1601   001AE0  6F8E               	movwf	lcd_4bit_send_command@command& (0+255),b
  1602   001AE2  EC7F  F019         	call	_lcd_4bit_send_command	;wreg free
  1603   001AE6  6E7C               	movwf	_ret^0,c
  1604   001AE8                     l814:
  1605   001AE8  0012               	return		;funcret
  1606   001AEA                     __end_of_winner:
  1607                           	callstack 0
  1608                           
  1609 ;; *************** function _welcome_message *****************
  1610 ;; Defined at:
  1611 ;;		line 103 in file "application.c"
  1612 ;; Parameters:    Size  Location     Type
  1613 ;;		None
  1614 ;; Auto vars:     Size  Location     Type
  1615 ;;		None
  1616 ;; Return value:  Size  Location     Type
  1617 ;;                  1    wreg      void 
  1618 ;; Registers used:
  1619 ;;		wreg, fsr0l, fsr0h, fsr2l, fsr2h, status,2, status,0, tblptrl, tblptrh, tblptru, prodl, prodh, cstack
  1620 ;; Tracked objects:
  1621 ;;		On entry : 0/0
  1622 ;;		On exit  : 0/0
  1623 ;;		Unchanged: 0/0
  1624 ;; Data sizes:     COMRAM   BANK0   BANK1   BANK2   BANK3   BANK4   BANK5   BANK6   BANK7   BANK8   BANK9  BANK10  BANK1
      +1  BANK12  BANK13  BANK14  BANK15
  1625 ;;      Params:         0       0       0       0       0       0       0       0       0       0       0       0       
      +0       0       0       0       0
  1626 ;;      Locals:         0       0       0       0       0       0       0       0       0       0       0       0       
      +0       0       0       0       0
  1627 ;;      Temps:          0       2       0       0       0       0       0       0       0       0       0       0       
      +0       0       0       0       0
  1628 ;;      Totals:         0       2       0       0       0       0       0       0       0       0       0       0       
      +0       0       0       0       0
  1629 ;;Total ram usage:        2 bytes
  1630 ;; Hardware stack levels used: 1
  1631 ;; Hardware stack levels required when called: 15
  1632 ;; This function calls:
  1633 ;;		_lcd_4bit_send_command
  1634 ;;		_lcd_4bit_send_string_pos
  1635 ;; This function is called by:
  1636 ;;		_main
  1637 ;; This function uses a non-reentrant model
  1638 ;;
  1639                           
  1640                           	psect	text2
  1641   00349E                     __ptext2:
  1642                           	callstack 0
  1643   00349E                     _welcome_message:
  1644                           	callstack 15
  1645   00349E                     
  1646                           ;application.c: 104:     ret = lcd_4bit_send_string_pos(&lcd, (uint8 *)"Welcome", 1, 5);
  1647   00349E  0EC9               	movlw	low _lcd
  1648   0034A0  0100               	movlb	0	; () banked
  1649   0034A2  6F94               	movwf	lcd_4bit_send_string_pos@lcd& (0+255),b
  1650   0034A4  0E51               	movlw	low STR_4
  1651   0034A6  6F95               	movwf	lcd_4bit_send_string_pos@str& (0+255),b
  1652   0034A8  5195               	movf	lcd_4bit_send_string_pos@str& (0+255),w,b
  1653   0034AA  A4D8               	btfss	status,2,c
  1654   0034AC  0E10               	movlw	high __smallconst
  1655   0034AE  6F96               	movwf	(lcd_4bit_send_string_pos@str+1)& (0+255),b
  1656   0034B0  0E01               	movlw	1
  1657   0034B2  6F97               	movwf	lcd_4bit_send_string_pos@row& (0+255),b
  1658   0034B4  0E05               	movlw	5
  1659   0034B6  6F98               	movwf	lcd_4bit_send_string_pos@column& (0+255),b
  1660   0034B8  EC92  F013         	call	_lcd_4bit_send_string_pos	;wreg free
  1661   0034BC  6E7C               	movwf	_ret^0,c
  1662   0034BE                     
  1663                           ;application.c: 105:     _delay((unsigned long)((500)*(4000000UL/4000.0)));
  1664   0034BE  0E03               	movlw	3
  1665   0034C0  0100               	movlb	0	; () banked
  1666   0034C2  6F9B               	movwf	(??_welcome_message+1)& (0+255),b
  1667   0034C4  0E8A               	movlw	138
  1668   0034C6  6F9A               	movwf	??_welcome_message& (0+255),b
  1669   0034C8  0E55               	movlw	85
  1670   0034CA                     u7157:
  1671   0034CA  2EE8               	decfsz	wreg,f,c
  1672   0034CC  D7FE               	bra	u7157
  1673   0034CE  2F9A               	decfsz	??_welcome_message& (0+255),f,b
  1674   0034D0  D7FC               	bra	u7157
  1675   0034D2  2F9B               	decfsz	(??_welcome_message+1)& (0+255),f,b
  1676   0034D4  D7FA               	bra	u7157
  1677   0034D6  D000               	nop2	
  1678   0034D8                     
  1679                           ;application.c: 106:     ret = lcd_4bit_send_command(&lcd, 0x01);
  1680   0034D8  0EC9               	movlw	low _lcd
  1681   0034DA  0100               	movlb	0	; () banked
  1682   0034DC  6F8D               	movwf	lcd_4bit_send_command@lcd& (0+255),b
  1683   0034DE  0E01               	movlw	1
  1684   0034E0  6F8E               	movwf	lcd_4bit_send_command@command& (0+255),b
  1685   0034E2  EC7F  F019         	call	_lcd_4bit_send_command	;wreg free
  1686   0034E6  6E7C               	movwf	_ret^0,c
  1687   0034E8                     
  1688                           ;application.c: 107:     _delay((unsigned long)((100)*(4000000UL/4000.0)));
  1689   0034E8  0E82               	movlw	130
  1690   0034EA  0100               	movlb	0	; () banked
  1691   0034EC  6F9A               	movwf	??_welcome_message& (0+255),b
  1692   0034EE  0EDD               	movlw	221
  1693   0034F0                     u7167:
  1694   0034F0  2EE8               	decfsz	wreg,f,c
  1695   0034F2  D7FE               	bra	u7167
  1696   0034F4  2F9A               	decfsz	??_welcome_message& (0+255),f,b
  1697   0034F6  D7FC               	bra	u7167
  1698   0034F8  D000               	nop2	
  1699   0034FA  0012               	return		;funcret
  1700   0034FC                     __end_of_welcome_message:
  1701                           	callstack 0
  1702                           
  1703 ;; *************** function _mcal_initialize *****************
  1704 ;; Defined at:
  1705 ;;		line 67 in file "MCAL_Layer/mcal_init.c"
  1706 ;; Parameters:    Size  Location     Type
  1707 ;;		None
  1708 ;; Auto vars:     Size  Location     Type
  1709 ;;  ret             1   19[BANK0 ] unsigned char 
  1710 ;; Return value:  Size  Location     Type
  1711 ;;                  1    wreg      void 
  1712 ;; Registers used:
  1713 ;;		wreg, fsr2l, fsr2h, status,2, status,0, prodl, prodh, cstack
  1714 ;; Tracked objects:
  1715 ;;		On entry : 0/0
  1716 ;;		On exit  : 0/0
  1717 ;;		Unchanged: 0/0
  1718 ;; Data sizes:     COMRAM   BANK0   BANK1   BANK2   BANK3   BANK4   BANK5   BANK6   BANK7   BANK8   BANK9  BANK10  BANK1
      +1  BANK12  BANK13  BANK14  BANK15
  1719 ;;      Params:         0       0       0       0       0       0       0       0       0       0       0       0       
      +0       0       0       0       0
  1720 ;;      Locals:         0       1       0       0       0       0       0       0       0       0       0       0       
      +0       0       0       0       0
  1721 ;;      Temps:          0       0       0       0       0       0       0       0       0       0       0       0       
      +0       0       0       0       0
  1722 ;;      Totals:         0       1       0       0       0       0       0       0       0       0       0       0       
      +0       0       0       0       0
  1723 ;;Total ram usage:        1 bytes
  1724 ;; Hardware stack levels used: 1
  1725 ;; Hardware stack levels required when called: 14
  1726 ;; This function calls:
  1727 ;;		_interrupt_INTx_initialize
  1728 ;;		_interrupt_RBx_initialize
  1729 ;; This function is called by:
  1730 ;;		_main
  1731 ;; This function uses a non-reentrant model
  1732 ;;
  1733                           
  1734                           	psect	text3
  1735   0034FC                     __ptext3:
  1736                           	callstack 0
  1737   0034FC                     _mcal_initialize:
  1738                           	callstack 16
  1739   0034FC                     
  1740                           ;MCAL_Layer/mcal_init.c: 69:     ret = interrupt_INTx_initialize(&int0_obj);
  1741   0034FC  0E36               	movlw	low _int0_obj
  1742   0034FE  0100               	movlb	0	; () banked
  1743   003500  6F90               	movwf	interrupt_INTx_initialize@int_obj& (0+255),b
  1744   003502  0E01               	movlw	high _int0_obj
  1745   003504  6F91               	movwf	(interrupt_INTx_initialize@int_obj+1)& (0+255),b
  1746   003506  EC94  F018         	call	_interrupt_INTx_initialize	;wreg free
  1747   00350A  0100               	movlb	0	; () banked
  1748   00350C  6F93               	movwf	mcal_initialize@ret& (0+255),b
  1749   00350E                     
  1750                           ; BSR set to: 0
  1751                           ;MCAL_Layer/mcal_init.c: 70:     ret &= interrupt_INTx_initialize(&int1_obj);
  1752   00350E  0E30               	movlw	low _int1_obj
  1753   003510  6F90               	movwf	interrupt_INTx_initialize@int_obj& (0+255),b
  1754   003512  0E01               	movlw	high _int1_obj
  1755   003514  6F91               	movwf	(interrupt_INTx_initialize@int_obj+1)& (0+255),b
  1756   003516  EC94  F018         	call	_interrupt_INTx_initialize	;wreg free
  1757   00351A  0100               	movlb	0	; () banked
  1758   00351C  1793               	andwf	mcal_initialize@ret& (0+255),f,b
  1759   00351E                     
  1760                           ; BSR set to: 0
  1761                           ;MCAL_Layer/mcal_init.c: 71:     ret &= interrupt_INTx_initialize(&int2_obj);
  1762   00351E  0E2A               	movlw	low _int2_obj
  1763   003520  6F90               	movwf	interrupt_INTx_initialize@int_obj& (0+255),b
  1764   003522  0E01               	movlw	high _int2_obj
  1765   003524  6F91               	movwf	(interrupt_INTx_initialize@int_obj+1)& (0+255),b
  1766   003526  EC94  F018         	call	_interrupt_INTx_initialize	;wreg free
  1767   00352A  0100               	movlb	0	; () banked
  1768   00352C  1793               	andwf	mcal_initialize@ret& (0+255),f,b
  1769   00352E                     
  1770                           ; BSR set to: 0
  1771                           ;MCAL_Layer/mcal_init.c: 72:     ret &= interrupt_RBx_initialize(&rb4_obj);
  1772   00352E  0E76               	movlw	low _rb4_obj
  1773   003530  6F88               	movwf	interrupt_RBx_initialize@int_obj& (0+255),b
  1774   003532  EC92  F011         	call	_interrupt_RBx_initialize	;wreg free
  1775   003536  0100               	movlb	0	; () banked
  1776   003538  1793               	andwf	mcal_initialize@ret& (0+255),f,b
  1777   00353A                     
  1778                           ; BSR set to: 0
  1779                           ;MCAL_Layer/mcal_init.c: 73:     ret &= interrupt_RBx_initialize(&rb5_obj);
  1780   00353A  0E70               	movlw	low _rb5_obj
  1781   00353C  6F88               	movwf	interrupt_RBx_initialize@int_obj& (0+255),b
  1782   00353E  EC92  F011         	call	_interrupt_RBx_initialize	;wreg free
  1783   003542  0100               	movlb	0	; () banked
  1784   003544  1793               	andwf	mcal_initialize@ret& (0+255),f,b
  1785   003546                     
  1786                           ; BSR set to: 0
  1787                           ;MCAL_Layer/mcal_init.c: 74:     ret &= interrupt_RBx_initialize(&rb6_obj);
  1788   003546  0E6A               	movlw	low _rb6_obj
  1789   003548  6F88               	movwf	interrupt_RBx_initialize@int_obj& (0+255),b
  1790   00354A  EC92  F011         	call	_interrupt_RBx_initialize	;wreg free
  1791   00354E  0100               	movlb	0	; () banked
  1792   003550  1793               	andwf	mcal_initialize@ret& (0+255),f,b
  1793   003552                     
  1794                           ; BSR set to: 0
  1795   003552  0012               	return		;funcret
  1796   003554                     __end_of_mcal_initialize:
  1797                           	callstack 0
  1798                           
  1799 ;; *************** function _interrupt_RBx_initialize *****************
  1800 ;; Defined at:
  1801 ;;		line 170 in file "MCAL_Layer/Interrupt/mcal_external_interrupt.c"
  1802 ;; Parameters:    Size  Location     Type
  1803 ;;  int_obj         1    8[BANK0 ] PTR const struct .
  1804 ;;		 -> rb6_obj(6), rb5_obj(6), rb4_obj(6), 
  1805 ;; Auto vars:     Size  Location     Type
  1806 ;;  ret             1   10[BANK0 ] unsigned char 
  1807 ;; Return value:  Size  Location     Type
  1808 ;;                  1    wreg      unsigned char 
  1809 ;; Registers used:
  1810 ;;		wreg, fsr2l, fsr2h, status,2, status,0, prodl, prodh, cstack
  1811 ;; Tracked objects:
  1812 ;;		On entry : 0/0
  1813 ;;		On exit  : 0/0
  1814 ;;		Unchanged: 0/0
  1815 ;; Data sizes:     COMRAM   BANK0   BANK1   BANK2   BANK3   BANK4   BANK5   BANK6   BANK7   BANK8   BANK9  BANK10  BANK1
      +1  BANK12  BANK13  BANK14  BANK15
  1816 ;;      Params:         0       1       0       0       0       0       0       0       0       0       0       0       
      +0       0       0       0       0
  1817 ;;      Locals:         0       1       0       0       0       0       0       0       0       0       0       0       
      +0       0       0       0       0
  1818 ;;      Temps:          0       1       0       0       0       0       0       0       0       0       0       0       
      +0       0       0       0       0
  1819 ;;      Totals:         0       3       0       0       0       0       0       0       0       0       0       0       
      +0       0       0       0       0
  1820 ;;Total ram usage:        3 bytes
  1821 ;; Hardware stack levels used: 1
  1822 ;; Hardware stack levels required when called: 11
  1823 ;; This function calls:
  1824 ;;		_gpio_pin_direction_initialize
  1825 ;; This function is called by:
  1826 ;;		_mcal_initialize
  1827 ;; This function uses a non-reentrant model
  1828 ;;
  1829                           
  1830                           	psect	text4
  1831   002324                     __ptext4:
  1832                           	callstack 0
  1833   002324                     _interrupt_RBx_initialize:
  1834                           	callstack 18
  1835   002324                     
  1836                           ;MCAL_Layer/Interrupt/mcal_external_interrupt.c: 173:     if (int_obj == ((void*)0)){
  1837   002324  0100               	movlb	0	; () banked
  1838   002326  5188               	movf	interrupt_RBx_initialize@int_obj& (0+255),w,b
  1839   002328  A4D8               	btfss	status,2,c
  1840   00232A  EF99  F011         	goto	u6171
  1841   00232E  EF9B  F011         	goto	u6170
  1842   002332                     u6171:
  1843   002332  EF9F  F011         	goto	l485
  1844   002336                     u6170:
  1845   002336                     
  1846                           ; BSR set to: 0
  1847                           ;MCAL_Layer/Interrupt/mcal_external_interrupt.c: 174:         ret = (Std_ReturnType)0x00
      +                          ;
  1848   002336  0E00               	movlw	0
  1849   002338  6F8A               	movwf	interrupt_RBx_initialize@ret& (0+255),b
  1850                           
  1851                           ;MCAL_Layer/Interrupt/mcal_external_interrupt.c: 175:     }
  1852   00233A  EF19  F012         	goto	l6541
  1853   00233E                     l485:
  1854                           
  1855                           ; BSR set to: 0
  1856                           ;MCAL_Layer/Interrupt/mcal_external_interrupt.c: 177:         (INTCONbits.RBIE = 0);
  1857   00233E  96F2               	bcf	242,3,c	;volatile
  1858                           
  1859                           ;MCAL_Layer/Interrupt/mcal_external_interrupt.c: 178:         (INTCONbits.RBIF = 0);
  1860   002340  90F2               	bcf	242,0,c	;volatile
  1861                           
  1862                           ;MCAL_Layer/Interrupt/mcal_external_interrupt.c: 190:         (INTCONbits.GIE = 1);
  1863   002342  8EF2               	bsf	242,7,c	;volatile
  1864                           
  1865                           ;MCAL_Layer/Interrupt/mcal_external_interrupt.c: 191:         (INTCONbits.PEIE = 1);
  1866   002344  8CF2               	bsf	242,6,c	;volatile
  1867   002346                     
  1868                           ; BSR set to: 0
  1869   002346  C088  F089         	movff	interrupt_RBx_initialize@int_obj,??_interrupt_RBx_initialize
  1870   00234A  0E04               	movlw	4
  1871   00234C  2789               	addwf	??_interrupt_RBx_initialize& (0+255),f,b
  1872   00234E  C089  F080         	movff	??_interrupt_RBx_initialize,gpio_pin_direction_initialize@pin_config
  1873   002352  6B81               	clrf	(gpio_pin_direction_initialize@pin_config+1)& (0+255),b
  1874   002354  ECE0  F00F         	call	_gpio_pin_direction_initialize	;wreg free
  1875                           
  1876                           ;MCAL_Layer/Interrupt/mcal_external_interrupt.c: 194:         switch(int_obj->int_pin.pi
      +                          n){
  1877   002358  EFFC  F011         	goto	l6539
  1878   00235C                     l6511:
  1879                           
  1880                           ; BSR set to: 0
  1881                           ;MCAL_Layer/Interrupt/mcal_external_interrupt.c: 196:                 RB4_InterruptHandl
      +                          er_HIGH = int_obj->InterruptHandler_HIGH;
  1882   00235C  5188               	movf	interrupt_RBx_initialize@int_obj& (0+255),w,b
  1883   00235E  6ED9               	movwf	fsr2l,c
  1884   002360  6ADA               	clrf	fsr2h,c
  1885   002362  CFDE F05D          	movff	postinc2,_RB4_InterruptHandler_HIGH
  1886   002366  CFDD F05E          	movff	postdec2,_RB4_InterruptHandler_HIGH+1
  1887   00236A                     
  1888                           ; BSR set to: 0
  1889                           ;MCAL_Layer/Interrupt/mcal_external_interrupt.c: 197:                 RB4_InterruptHandl
      +                          er_LOW = int_obj->InterruptHandler_LOW;
  1890   00236A  5188               	movf	interrupt_RBx_initialize@int_obj& (0+255),w,b
  1891   00236C  6ED9               	movwf	fsr2l,c
  1892   00236E  6ADA               	clrf	fsr2h,c
  1893   002370  0E02               	movlw	2
  1894   002372  26D9               	addwf	fsr2l,f,c
  1895   002374  CFDE F05B          	movff	postinc2,_RB4_InterruptHandler_LOW
  1896   002378  CFDD F05C          	movff	postdec2,_RB4_InterruptHandler_LOW+1
  1897   00237C                     l6515:
  1898                           
  1899                           ; BSR set to: 0
  1900                           ;MCAL_Layer/Interrupt/mcal_external_interrupt.c: 198:                 ret = (Std_ReturnT
      +                          ype)0x01;
  1901   00237C  0E01               	movlw	1
  1902   00237E  6F8A               	movwf	interrupt_RBx_initialize@ret& (0+255),b
  1903                           
  1904                           ;MCAL_Layer/Interrupt/mcal_external_interrupt.c: 199:                 break;
  1905   002380  EF18  F012         	goto	l489
  1906   002384                     l6517:
  1907                           
  1908                           ; BSR set to: 0
  1909                           ;MCAL_Layer/Interrupt/mcal_external_interrupt.c: 201:                 RB5_InterruptHandl
      +                          er_HIGH = int_obj->InterruptHandler_HIGH;
  1910   002384  5188               	movf	interrupt_RBx_initialize@int_obj& (0+255),w,b
  1911   002386  6ED9               	movwf	fsr2l,c
  1912   002388  6ADA               	clrf	fsr2h,c
  1913   00238A  CFDE F059          	movff	postinc2,_RB5_InterruptHandler_HIGH
  1914   00238E  CFDD F05A          	movff	postdec2,_RB5_InterruptHandler_HIGH+1
  1915   002392                     
  1916                           ; BSR set to: 0
  1917                           ;MCAL_Layer/Interrupt/mcal_external_interrupt.c: 202:                 RB5_InterruptHandl
      +                          er_LOW = int_obj->InterruptHandler_LOW;
  1918   002392  5188               	movf	interrupt_RBx_initialize@int_obj& (0+255),w,b
  1919   002394  6ED9               	movwf	fsr2l,c
  1920   002396  6ADA               	clrf	fsr2h,c
  1921   002398  0E02               	movlw	2
  1922   00239A  26D9               	addwf	fsr2l,f,c
  1923   00239C  CFDE F057          	movff	postinc2,_RB5_InterruptHandler_LOW
  1924   0023A0  CFDD F058          	movff	postdec2,_RB5_InterruptHandler_LOW+1
  1925   0023A4  EFBE  F011         	goto	l6515
  1926   0023A8                     l6523:
  1927                           
  1928                           ; BSR set to: 0
  1929                           ;MCAL_Layer/Interrupt/mcal_external_interrupt.c: 206:                 RB6_InterruptHandl
      +                          er_HIGH = int_obj->InterruptHandler_HIGH;
  1930   0023A8  5188               	movf	interrupt_RBx_initialize@int_obj& (0+255),w,b
  1931   0023AA  6ED9               	movwf	fsr2l,c
  1932   0023AC  6ADA               	clrf	fsr2h,c
  1933   0023AE  CFDE F055          	movff	postinc2,_RB6_InterruptHandler_HIGH
  1934   0023B2  CFDD F056          	movff	postdec2,_RB6_InterruptHandler_HIGH+1
  1935   0023B6                     
  1936                           ; BSR set to: 0
  1937                           ;MCAL_Layer/Interrupt/mcal_external_interrupt.c: 207:                 RB6_InterruptHandl
      +                          er_LOW = int_obj->InterruptHandler_LOW;
  1938   0023B6  5188               	movf	interrupt_RBx_initialize@int_obj& (0+255),w,b
  1939   0023B8  6ED9               	movwf	fsr2l,c
  1940   0023BA  6ADA               	clrf	fsr2h,c
  1941   0023BC  0E02               	movlw	2
  1942   0023BE  26D9               	addwf	fsr2l,f,c
  1943   0023C0  CFDE F053          	movff	postinc2,_RB6_InterruptHandler_LOW
  1944   0023C4  CFDD F054          	movff	postdec2,_RB6_InterruptHandler_LOW+1
  1945   0023C8  EFBE  F011         	goto	l6515
  1946   0023CC                     l6529:
  1947                           
  1948                           ; BSR set to: 0
  1949                           ;MCAL_Layer/Interrupt/mcal_external_interrupt.c: 211:                 RB7_InterruptHandl
      +                          er_HIGH = int_obj->InterruptHandler_HIGH;
  1950   0023CC  5188               	movf	interrupt_RBx_initialize@int_obj& (0+255),w,b
  1951   0023CE  6ED9               	movwf	fsr2l,c
  1952   0023D0  6ADA               	clrf	fsr2h,c
  1953   0023D2  CFDE F051          	movff	postinc2,_RB7_InterruptHandler_HIGH
  1954   0023D6  CFDD F052          	movff	postdec2,_RB7_InterruptHandler_HIGH+1
  1955   0023DA                     
  1956                           ; BSR set to: 0
  1957                           ;MCAL_Layer/Interrupt/mcal_external_interrupt.c: 212:                 RB7_InterruptHandl
      +                          er_LOW = int_obj->InterruptHandler_LOW;
  1958   0023DA  5188               	movf	interrupt_RBx_initialize@int_obj& (0+255),w,b
  1959   0023DC  6ED9               	movwf	fsr2l,c
  1960   0023DE  6ADA               	clrf	fsr2h,c
  1961   0023E0  0E02               	movlw	2
  1962   0023E2  26D9               	addwf	fsr2l,f,c
  1963   0023E4  CFDE F04F          	movff	postinc2,_RB7_InterruptHandler_LOW
  1964   0023E8  CFDD F050          	movff	postdec2,_RB7_InterruptHandler_LOW+1
  1965   0023EC  EFBE  F011         	goto	l6515
  1966   0023F0                     l6535:
  1967                           
  1968                           ; BSR set to: 0
  1969                           ;MCAL_Layer/Interrupt/mcal_external_interrupt.c: 216:                 ret = (Std_ReturnT
      +                          ype)0x00;
  1970   0023F0  0E00               	movlw	0
  1971   0023F2  6F8A               	movwf	interrupt_RBx_initialize@ret& (0+255),b
  1972                           
  1973                           ;MCAL_Layer/Interrupt/mcal_external_interrupt.c: 217:                 break;
  1974   0023F4  EF18  F012         	goto	l489
  1975   0023F8                     l6539:
  1976   0023F8  0100               	movlb	0	; () banked
  1977   0023FA  5188               	movf	interrupt_RBx_initialize@int_obj& (0+255),w,b
  1978   0023FC  6ED9               	movwf	fsr2l,c
  1979   0023FE  6ADA               	clrf	fsr2h,c
  1980   002400  0E04               	movlw	4
  1981   002402  26D9               	addwf	fsr2l,f,c
  1982   002404  30DF               	rrcf	223,w,c
  1983   002406  32E8               	rrcf	wreg,f,c
  1984   002408  32E8               	rrcf	wreg,f,c
  1985   00240A  0B07               	andlw	7
  1986                           
  1987                           ; Switch size 1, requested type "simple"
  1988                           ; Number of cases is 4, Range of values is 4 to 7
  1989                           ; switch strategies available:
  1990                           ; Name         Instructions Cycles
  1991                           ; simple_byte           13     7 (average)
  1992                           ;	Chosen strategy is simple_byte
  1993   00240C  0A04               	xorlw	4	; case 4
  1994   00240E  B4D8               	btfsc	status,2,c
  1995   002410  EFAE  F011         	goto	l6511
  1996   002414  0A01               	xorlw	1	; case 5
  1997   002416  B4D8               	btfsc	status,2,c
  1998   002418  EFC2  F011         	goto	l6517
  1999   00241C  0A03               	xorlw	3	; case 6
  2000   00241E  B4D8               	btfsc	status,2,c
  2001   002420  EFD4  F011         	goto	l6523
  2002   002424  0A01               	xorlw	1	; case 7
  2003   002426  B4D8               	btfsc	status,2,c
  2004   002428  EFE6  F011         	goto	l6529
  2005   00242C  EFF8  F011         	goto	l6535
  2006   002430                     l489:
  2007                           
  2008                           ; BSR set to: 0
  2009                           ;MCAL_Layer/Interrupt/mcal_external_interrupt.c: 219:         (INTCONbits.RBIE = 1);
  2010   002430  86F2               	bsf	242,3,c	;volatile
  2011   002432                     l6541:
  2012                           
  2013                           ; BSR set to: 0
  2014                           ;MCAL_Layer/Interrupt/mcal_external_interrupt.c: 222:     return ret;
  2015   002432  518A               	movf	interrupt_RBx_initialize@ret& (0+255),w,b
  2016   002434                     
  2017                           ; BSR set to: 0
  2018   002434  0012               	return		;funcret
  2019   002436                     __end_of_interrupt_RBx_initialize:
  2020                           	callstack 0
  2021                           
  2022 ;; *************** function _interrupt_INTx_initialize *****************
  2023 ;; Defined at:
  2024 ;;		line 126 in file "MCAL_Layer/Interrupt/mcal_external_interrupt.c"
  2025 ;; Parameters:    Size  Location     Type
  2026 ;;  int_obj         2   16[BANK0 ] PTR const struct .
  2027 ;;		 -> int2_obj(6), int1_obj(6), int0_obj(6), 
  2028 ;; Auto vars:     Size  Location     Type
  2029 ;;  ret             1   18[BANK0 ] unsigned char 
  2030 ;; Return value:  Size  Location     Type
  2031 ;;                  1    wreg      unsigned char 
  2032 ;; Registers used:
  2033 ;;		wreg, fsr2l, fsr2h, status,2, status,0, prodl, prodh, cstack
  2034 ;; Tracked objects:
  2035 ;;		On entry : 0/0
  2036 ;;		On exit  : 0/0
  2037 ;;		Unchanged: 0/0
  2038 ;; Data sizes:     COMRAM   BANK0   BANK1   BANK2   BANK3   BANK4   BANK5   BANK6   BANK7   BANK8   BANK9  BANK10  BANK1
      +1  BANK12  BANK13  BANK14  BANK15
  2039 ;;      Params:         0       2       0       0       0       0       0       0       0       0       0       0       
      +0       0       0       0       0
  2040 ;;      Locals:         0       1       0       0       0       0       0       0       0       0       0       0       
      +0       0       0       0       0
  2041 ;;      Temps:          0       0       0       0       0       0       0       0       0       0       0       0       
      +0       0       0       0       0
  2042 ;;      Totals:         0       3       0       0       0       0       0       0       0       0       0       0       
      +0       0       0       0       0
  2043 ;;Total ram usage:        3 bytes
  2044 ;; Hardware stack levels used: 1
  2045 ;; Hardware stack levels required when called: 13
  2046 ;; This function calls:
  2047 ;;		_interrupt_INTx_SetInterruptHandler
  2048 ;;		_interrupt_INTx_clear_flag
  2049 ;;		_interrupt_INTx_disable
  2050 ;;		_interrupt_INTx_edge_init
  2051 ;;		_interrupt_INTx_enable
  2052 ;;		_interrupt_INTx_pin_init
  2053 ;; This function is called by:
  2054 ;;		_mcal_initialize
  2055 ;; This function uses a non-reentrant model
  2056 ;;
  2057                           
  2058                           	psect	text5
  2059   003128                     __ptext5:
  2060                           	callstack 0
  2061   003128                     _interrupt_INTx_initialize:
  2062                           	callstack 16
  2063   003128                     
  2064                           ;MCAL_Layer/Interrupt/mcal_external_interrupt.c: 129:     if (int_obj == ((void*)0)){
  2065   003128  0100               	movlb	0	; () banked
  2066   00312A  5190               	movf	interrupt_INTx_initialize@int_obj& (0+255),w,b
  2067   00312C  1191               	iorwf	(interrupt_INTx_initialize@int_obj+1)& (0+255),w,b
  2068   00312E  A4D8               	btfss	status,2,c
  2069   003130  EF9C  F018         	goto	u6161
  2070   003134  EF9E  F018         	goto	u6160
  2071   003138                     u6161:
  2072   003138  EFA2  F018         	goto	l6493
  2073   00313C                     u6160:
  2074   00313C                     
  2075                           ; BSR set to: 0
  2076                           ;MCAL_Layer/Interrupt/mcal_external_interrupt.c: 130:         ret = (Std_ReturnType)0x00
      +                          ;
  2077   00313C  0E00               	movlw	0
  2078   00313E  6F92               	movwf	interrupt_INTx_initialize@ret& (0+255),b
  2079                           
  2080                           ;MCAL_Layer/Interrupt/mcal_external_interrupt.c: 131:     }
  2081   003140  EFCE  F018         	goto	l6501
  2082   003144                     l6493:
  2083                           
  2084                           ; BSR set to: 0
  2085                           ;MCAL_Layer/Interrupt/mcal_external_interrupt.c: 133:         ret = interrupt_INTx_disab
      +                          le(int_obj);
  2086   003144  C090  F080         	movff	interrupt_INTx_initialize@int_obj,interrupt_INTx_disable@int_obj
  2087   003148  C091  F081         	movff	interrupt_INTx_initialize@int_obj+1,interrupt_INTx_disable@int_obj+1
  2088   00314C  EC0B  F019         	call	_interrupt_INTx_disable	;wreg free
  2089   003150  0100               	movlb	0	; () banked
  2090   003152  6F92               	movwf	interrupt_INTx_initialize@ret& (0+255),b
  2091                           
  2092                           ;MCAL_Layer/Interrupt/mcal_external_interrupt.c: 134:         ret = interrupt_INTx_clear
      +                          _flag(int_obj);
  2093   003154  C090  F080         	movff	interrupt_INTx_initialize@int_obj,interrupt_INTx_clear_flag@int_obj
  2094   003158  C091  F081         	movff	interrupt_INTx_initialize@int_obj+1,interrupt_INTx_clear_flag@int_obj+1
  2095   00315C  EC45  F019         	call	_interrupt_INTx_clear_flag	;wreg free
  2096   003160  0100               	movlb	0	; () banked
  2097   003162  6F92               	movwf	interrupt_INTx_initialize@ret& (0+255),b
  2098                           
  2099                           ;MCAL_Layer/Interrupt/mcal_external_interrupt.c: 135:         ret = interrupt_INTx_edge_
      +                          init(int_obj);
  2100   003164  C090  F080         	movff	interrupt_INTx_initialize@int_obj,interrupt_INTx_edge_init@int_obj
  2101   003168  C091  F081         	movff	interrupt_INTx_initialize@int_obj+1,interrupt_INTx_edge_init@int_obj+1
  2102   00316C  ECB5  F00E         	call	_interrupt_INTx_edge_init	;wreg free
  2103   003170  0100               	movlb	0	; () banked
  2104   003172  6F92               	movwf	interrupt_INTx_initialize@ret& (0+255),b
  2105   003174                     
  2106                           ; BSR set to: 0
  2107   003174  C090  F08D         	movff	interrupt_INTx_initialize@int_obj,interrupt_INTx_pin_init@int_obj
  2108   003178  C091  F08E         	movff	interrupt_INTx_initialize@int_obj+1,interrupt_INTx_pin_init@int_obj+1
  2109   00317C  ECA8  F01C         	call	_interrupt_INTx_pin_init	;wreg free
  2110   003180  C090  F082         	movff	interrupt_INTx_initialize@int_obj,interrupt_INTx_SetInterruptHandler@int_obj
  2111   003184  C091  F083         	movff	interrupt_INTx_initialize@int_obj+1,interrupt_INTx_SetInterruptHandler@int_obj+1
  2112   003188  ECE0  F012         	call	_interrupt_INTx_SetInterruptHandler	;wreg free
  2113   00318C                     
  2114                           ;MCAL_Layer/Interrupt/mcal_external_interrupt.c: 141:         ret = interrupt_INTx_enabl
      +                          e(int_obj);
  2115   00318C  C090  F080         	movff	interrupt_INTx_initialize@int_obj,interrupt_INTx_enable@int_obj
  2116   003190  C091  F081         	movff	interrupt_INTx_initialize@int_obj+1,interrupt_INTx_enable@int_obj+1
  2117   003194  EC58  F017         	call	_interrupt_INTx_enable	;wreg free
  2118   003198  0100               	movlb	0	; () banked
  2119   00319A  6F92               	movwf	interrupt_INTx_initialize@ret& (0+255),b
  2120   00319C                     l6501:
  2121                           
  2122                           ; BSR set to: 0
  2123                           ;MCAL_Layer/Interrupt/mcal_external_interrupt.c: 144:     return ret;
  2124   00319C  5192               	movf	interrupt_INTx_initialize@ret& (0+255),w,b
  2125   00319E                     
  2126                           ; BSR set to: 0
  2127   00319E  0012               	return		;funcret
  2128   0031A0                     __end_of_interrupt_INTx_initialize:
  2129                           	callstack 0
  2130                           
  2131 ;; *************** function _interrupt_INTx_pin_init *****************
  2132 ;; Defined at:
  2133 ;;		line 412 in file "MCAL_Layer/Interrupt/mcal_external_interrupt.c"
  2134 ;; Parameters:    Size  Location     Type
  2135 ;;  int_obj         2   13[BANK0 ] PTR const struct .
  2136 ;;		 -> int2_obj(6), int1_obj(6), int0_obj(6), 
  2137 ;; Auto vars:     Size  Location     Type
  2138 ;;  ret             1   15[BANK0 ] unsigned char 
  2139 ;; Return value:  Size  Location     Type
  2140 ;;                  1    wreg      unsigned char 
  2141 ;; Registers used:
  2142 ;;		wreg, fsr2l, fsr2h, status,2, status,0, prodl, prodh, cstack
  2143 ;; Tracked objects:
  2144 ;;		On entry : 0/0
  2145 ;;		On exit  : 0/0
  2146 ;;		Unchanged: 0/0
  2147 ;; Data sizes:     COMRAM   BANK0   BANK1   BANK2   BANK3   BANK4   BANK5   BANK6   BANK7   BANK8   BANK9  BANK10  BANK1
      +1  BANK12  BANK13  BANK14  BANK15
  2148 ;;      Params:         0       2       0       0       0       0       0       0       0       0       0       0       
      +0       0       0       0       0
  2149 ;;      Locals:         0       1       0       0       0       0       0       0       0       0       0       0       
      +0       0       0       0       0
  2150 ;;      Temps:          0       0       0       0       0       0       0       0       0       0       0       0       
      +0       0       0       0       0
  2151 ;;      Totals:         0       3       0       0       0       0       0       0       0       0       0       0       
      +0       0       0       0       0
  2152 ;;Total ram usage:        3 bytes
  2153 ;; Hardware stack levels used: 1
  2154 ;; Hardware stack levels required when called: 12
  2155 ;; This function calls:
  2156 ;;		_gpio_pin_initialize
  2157 ;; This function is called by:
  2158 ;;		_interrupt_INTx_initialize
  2159 ;; This function uses a non-reentrant model
  2160 ;;
  2161                           
  2162                           	psect	text6
  2163   003950                     __ptext6:
  2164                           	callstack 0
  2165   003950                     _interrupt_INTx_pin_init:
  2166                           	callstack 16
  2167   003950                     
  2168                           ;MCAL_Layer/Interrupt/mcal_external_interrupt.c: 415:     if (int_obj == ((void*)0)){
  2169   003950  0100               	movlb	0	; () banked
  2170   003952  518D               	movf	interrupt_INTx_pin_init@int_obj& (0+255),w,b
  2171   003954  118E               	iorwf	(interrupt_INTx_pin_init@int_obj+1)& (0+255),w,b
  2172   003956  A4D8               	btfss	status,2,c
  2173   003958  EFB0  F01C         	goto	u5891
  2174   00395C  EFB2  F01C         	goto	u5890
  2175   003960                     u5891:
  2176   003960  EFB6  F01C         	goto	l6233
  2177   003964                     u5890:
  2178   003964                     
  2179                           ; BSR set to: 0
  2180                           ;MCAL_Layer/Interrupt/mcal_external_interrupt.c: 416:         ret = (Std_ReturnType)0x00
      +                          ;
  2181   003964  0E00               	movlw	0
  2182   003966  6F8F               	movwf	interrupt_INTx_pin_init@ret& (0+255),b
  2183                           
  2184                           ;MCAL_Layer/Interrupt/mcal_external_interrupt.c: 417:     }
  2185   003968  EFC0  F01C         	goto	l6235
  2186   00396C                     l6233:
  2187                           
  2188                           ; BSR set to: 0
  2189                           ;MCAL_Layer/Interrupt/mcal_external_interrupt.c: 419:         ret = gpio_pin_initialize(
      +                          &(int_obj->int_pin));
  2190   00396C  0E02               	movlw	2
  2191   00396E  258D               	addwf	interrupt_INTx_pin_init@int_obj& (0+255),w,b
  2192   003970  6F89               	movwf	gpio_pin_initialize@pin_config& (0+255),b
  2193   003972  0E00               	movlw	0
  2194   003974  218E               	addwfc	(interrupt_INTx_pin_init@int_obj+1)& (0+255),w,b
  2195   003976  6F8A               	movwf	(gpio_pin_initialize@pin_config+1)& (0+255),b
  2196   003978  ECD0  F018         	call	_gpio_pin_initialize	;wreg free
  2197   00397C  0100               	movlb	0	; () banked
  2198   00397E  6F8F               	movwf	interrupt_INTx_pin_init@ret& (0+255),b
  2199   003980                     l6235:
  2200                           
  2201                           ; BSR set to: 0
  2202                           ;MCAL_Layer/Interrupt/mcal_external_interrupt.c: 422:     return ret;
  2203   003980  518F               	movf	interrupt_INTx_pin_init@ret& (0+255),w,b
  2204   003982                     
  2205                           ; BSR set to: 0
  2206   003982  0012               	return		;funcret
  2207   003984                     __end_of_interrupt_INTx_pin_init:
  2208                           	callstack 0
  2209                           
  2210 ;; *************** function _interrupt_INTx_enable *****************
  2211 ;; Defined at:
  2212 ;;		line 246 in file "MCAL_Layer/Interrupt/mcal_external_interrupt.c"
  2213 ;; Parameters:    Size  Location     Type
  2214 ;;  int_obj         2    0[BANK0 ] PTR const struct .
  2215 ;;		 -> int2_obj(6), int1_obj(6), int0_obj(6), 
  2216 ;; Auto vars:     Size  Location     Type
  2217 ;;  ret             1    4[BANK0 ] unsigned char 
  2218 ;; Return value:  Size  Location     Type
  2219 ;;                  1    wreg      unsigned char 
  2220 ;; Registers used:
  2221 ;;		wreg, fsr2l, fsr2h, status,2, status,0
  2222 ;; Tracked objects:
  2223 ;;		On entry : 0/0
  2224 ;;		On exit  : 0/0
  2225 ;;		Unchanged: 0/0
  2226 ;; Data sizes:     COMRAM   BANK0   BANK1   BANK2   BANK3   BANK4   BANK5   BANK6   BANK7   BANK8   BANK9  BANK10  BANK1
      +1  BANK12  BANK13  BANK14  BANK15
  2227 ;;      Params:         0       2       0       0       0       0       0       0       0       0       0       0       
      +0       0       0       0       0
  2228 ;;      Locals:         0       1       0       0       0       0       0       0       0       0       0       0       
      +0       0       0       0       0
  2229 ;;      Temps:          0       2       0       0       0       0       0       0       0       0       0       0       
      +0       0       0       0       0
  2230 ;;      Totals:         0       5       0       0       0       0       0       0       0       0       0       0       
      +0       0       0       0       0
  2231 ;;Total ram usage:        5 bytes
  2232 ;; Hardware stack levels used: 1
  2233 ;; Hardware stack levels required when called: 10
  2234 ;; This function calls:
  2235 ;;		Nothing
  2236 ;; This function is called by:
  2237 ;;		_interrupt_INTx_initialize
  2238 ;; This function uses a non-reentrant model
  2239 ;;
  2240                           
  2241                           	psect	text7
  2242   002EB0                     __ptext7:
  2243                           	callstack 0
  2244   002EB0                     _interrupt_INTx_enable:
  2245                           	callstack 18
  2246   002EB0                     
  2247                           ;MCAL_Layer/Interrupt/mcal_external_interrupt.c: 249:     if (int_obj == ((void*)0)){
  2248   002EB0  0100               	movlb	0	; () banked
  2249   002EB2  5180               	movf	interrupt_INTx_enable@int_obj& (0+255),w,b
  2250   002EB4  1181               	iorwf	(interrupt_INTx_enable@int_obj+1)& (0+255),w,b
  2251   002EB6  A4D8               	btfss	status,2,c
  2252   002EB8  EF60  F017         	goto	u5911
  2253   002EBC  EF62  F017         	goto	u5910
  2254   002EC0                     u5911:
  2255   002EC0  EF77  F017         	goto	l6277
  2256   002EC4                     u5910:
  2257   002EC4                     l6267:
  2258                           
  2259                           ; BSR set to: 0
  2260                           ;MCAL_Layer/Interrupt/mcal_external_interrupt.c: 250:         ret = (Std_ReturnType)0x00
      +                          ;
  2261   002EC4  0E00               	movlw	0
  2262   002EC6  6F84               	movwf	interrupt_INTx_enable@ret& (0+255),b
  2263                           
  2264                           ;MCAL_Layer/Interrupt/mcal_external_interrupt.c: 251:     }
  2265   002EC8  EF96  F017         	goto	l6279
  2266   002ECC                     l505:
  2267                           
  2268                           ; BSR set to: 0
  2269                           ;MCAL_Layer/Interrupt/mcal_external_interrupt.c: 259:                 (INTCONbits.GIE = 
      +                          1);
  2270   002ECC  8EF2               	bsf	242,7,c	;volatile
  2271                           
  2272                           ;MCAL_Layer/Interrupt/mcal_external_interrupt.c: 260:                 (INTCONbits.PEIE =
      +                           1);
  2273   002ECE  8CF2               	bsf	242,6,c	;volatile
  2274                           
  2275                           ;MCAL_Layer/Interrupt/mcal_external_interrupt.c: 262:                 (INTCONbits.INT0IE
      +                           = 1);
  2276   002ED0  88F2               	bsf	242,4,c	;volatile
  2277   002ED2                     l6269:
  2278                           
  2279                           ; BSR set to: 0
  2280                           ;MCAL_Layer/Interrupt/mcal_external_interrupt.c: 263:                 ret = (Std_ReturnT
      +                          ype)0x01;
  2281   002ED2  0E01               	movlw	1
  2282   002ED4  6F84               	movwf	interrupt_INTx_enable@ret& (0+255),b
  2283                           
  2284                           ;MCAL_Layer/Interrupt/mcal_external_interrupt.c: 264:                 break;
  2285   002ED6  EF96  F017         	goto	l6279
  2286   002EDA                     l507:
  2287                           
  2288                           ; BSR set to: 0
  2289                           ;MCAL_Layer/Interrupt/mcal_external_interrupt.c: 275:                 (INTCONbits.GIE = 
      +                          1);
  2290   002EDA  8EF2               	bsf	242,7,c	;volatile
  2291                           
  2292                           ;MCAL_Layer/Interrupt/mcal_external_interrupt.c: 276:                 (INTCONbits.PEIE =
      +                           1);
  2293   002EDC  8CF2               	bsf	242,6,c	;volatile
  2294                           
  2295                           ;MCAL_Layer/Interrupt/mcal_external_interrupt.c: 278:                 (INTCON3bits.INT1I
      +                          E = 1);
  2296   002EDE  86F0               	bsf	240,3,c	;volatile
  2297   002EE0  EF69  F017         	goto	l6269
  2298   002EE4                     l508:
  2299                           
  2300                           ; BSR set to: 0
  2301                           ;MCAL_Layer/Interrupt/mcal_external_interrupt.c: 291:                 (INTCONbits.GIE = 
      +                          1);
  2302   002EE4  8EF2               	bsf	242,7,c	;volatile
  2303                           
  2304                           ;MCAL_Layer/Interrupt/mcal_external_interrupt.c: 292:                 (INTCONbits.PEIE =
      +                           1);
  2305   002EE6  8CF2               	bsf	242,6,c	;volatile
  2306                           
  2307                           ;MCAL_Layer/Interrupt/mcal_external_interrupt.c: 294:                 (INTCON3bits.INT2I
      +                          E = 1);
  2308   002EE8  88F0               	bsf	240,4,c	;volatile
  2309   002EEA  EF69  F017         	goto	l6269
  2310   002EEE                     l6277:
  2311                           
  2312                           ; BSR set to: 0
  2313   002EEE  EE20 F004          	lfsr	2,4
  2314   002EF2  5180               	movf	interrupt_INTx_enable@int_obj& (0+255),w,b
  2315   002EF4  26D9               	addwf	fsr2l,f,c
  2316   002EF6  5181               	movf	(interrupt_INTx_enable@int_obj+1)& (0+255),w,b
  2317   002EF8  22DA               	addwfc	fsr2h,f,c
  2318   002EFA  50DF               	movf	indf2,w,c
  2319   002EFC  6F82               	movwf	??_interrupt_INTx_enable& (0+255),b
  2320   002EFE  6B83               	clrf	(??_interrupt_INTx_enable+1)& (0+255),b
  2321                           
  2322                           ; Switch on 2 bytes has been partitioned into a top level switch of size 1, and 1 sub-sw
      +                          itches
  2323                           ; Switch size 1, requested type "simple"
  2324                           ; Number of cases is 1, Range of values is 0 to 0
  2325                           ; switch strategies available:
  2326                           ; Name         Instructions Cycles
  2327                           ; simple_byte            4     3 (average)
  2328                           ;	Chosen strategy is simple_byte
  2329   002F00  5183               	movf	(??_interrupt_INTx_enable+1)& (0+255),w,b
  2330   002F02  0A00               	xorlw	0	; case 0
  2331   002F04  B4D8               	btfsc	status,2,c
  2332   002F06  EF87  F017         	goto	l7295
  2333   002F0A  EF62  F017         	goto	l6267
  2334   002F0E                     l7295:
  2335                           
  2336                           ; BSR set to: 0
  2337                           ; Switch size 1, requested type "simple"
  2338                           ; Number of cases is 3, Range of values is 0 to 2
  2339                           ; switch strategies available:
  2340                           ; Name         Instructions Cycles
  2341                           ; simple_byte           10     6 (average)
  2342                           ;	Chosen strategy is simple_byte
  2343   002F0E  5182               	movf	??_interrupt_INTx_enable& (0+255),w,b
  2344   002F10  0A00               	xorlw	0	; case 0
  2345   002F12  B4D8               	btfsc	status,2,c
  2346   002F14  EF66  F017         	goto	l505
  2347   002F18  0A01               	xorlw	1	; case 1
  2348   002F1A  B4D8               	btfsc	status,2,c
  2349   002F1C  EF6D  F017         	goto	l507
  2350   002F20  0A03               	xorlw	3	; case 2
  2351   002F22  B4D8               	btfsc	status,2,c
  2352   002F24  EF72  F017         	goto	l508
  2353   002F28  EF62  F017         	goto	l6267
  2354   002F2C                     l6279:
  2355                           
  2356                           ; BSR set to: 0
  2357                           ;MCAL_Layer/Interrupt/mcal_external_interrupt.c: 302:     return ret;
  2358   002F2C  5184               	movf	interrupt_INTx_enable@ret& (0+255),w,b
  2359   002F2E                     
  2360                           ; BSR set to: 0
  2361   002F2E  0012               	return		;funcret
  2362   002F30                     __end_of_interrupt_INTx_enable:
  2363                           	callstack 0
  2364                           
  2365 ;; *************** function _interrupt_INTx_edge_init *****************
  2366 ;; Defined at:
  2367 ;;		line 369 in file "MCAL_Layer/Interrupt/mcal_external_interrupt.c"
  2368 ;; Parameters:    Size  Location     Type
  2369 ;;  int_obj         2    0[BANK0 ] PTR const struct .
  2370 ;;		 -> int2_obj(6), int1_obj(6), int0_obj(6), 
  2371 ;; Auto vars:     Size  Location     Type
  2372 ;;  ret             1    4[BANK0 ] unsigned char 
  2373 ;; Return value:  Size  Location     Type
  2374 ;;                  1    wreg      unsigned char 
  2375 ;; Registers used:
  2376 ;;		wreg, fsr2l, fsr2h, status,2, status,0
  2377 ;; Tracked objects:
  2378 ;;		On entry : 0/0
  2379 ;;		On exit  : 0/0
  2380 ;;		Unchanged: 0/0
  2381 ;; Data sizes:     COMRAM   BANK0   BANK1   BANK2   BANK3   BANK4   BANK5   BANK6   BANK7   BANK8   BANK9  BANK10  BANK1
      +1  BANK12  BANK13  BANK14  BANK15
  2382 ;;      Params:         0       2       0       0       0       0       0       0       0       0       0       0       
      +0       0       0       0       0
  2383 ;;      Locals:         0       1       0       0       0       0       0       0       0       0       0       0       
      +0       0       0       0       0
  2384 ;;      Temps:          0       2       0       0       0       0       0       0       0       0       0       0       
      +0       0       0       0       0
  2385 ;;      Totals:         0       5       0       0       0       0       0       0       0       0       0       0       
      +0       0       0       0       0
  2386 ;;Total ram usage:        5 bytes
  2387 ;; Hardware stack levels used: 1
  2388 ;; Hardware stack levels required when called: 10
  2389 ;; This function calls:
  2390 ;;		Nothing
  2391 ;; This function is called by:
  2392 ;;		_interrupt_INTx_initialize
  2393 ;; This function uses a non-reentrant model
  2394 ;;
  2395                           
  2396                           	psect	text8
  2397   001D6A                     __ptext8:
  2398                           	callstack 0
  2399   001D6A                     _interrupt_INTx_edge_init:
  2400                           	callstack 18
  2401   001D6A                     
  2402                           ;MCAL_Layer/Interrupt/mcal_external_interrupt.c: 372:     if (int_obj == ((void*)0)){
  2403   001D6A  0100               	movlb	0	; () banked
  2404   001D6C  5180               	movf	interrupt_INTx_edge_init@int_obj& (0+255),w,b
  2405   001D6E  1181               	iorwf	(interrupt_INTx_edge_init@int_obj+1)& (0+255),w,b
  2406   001D70  A4D8               	btfss	status,2,c
  2407   001D72  EFBD  F00E         	goto	u5821
  2408   001D76  EFBF  F00E         	goto	u5820
  2409   001D7A                     u5821:
  2410   001D7A  EF2B  F00F         	goto	l6217
  2411   001D7E                     u5820:
  2412   001D7E                     l6183:
  2413                           
  2414                           ; BSR set to: 0
  2415                           ;MCAL_Layer/Interrupt/mcal_external_interrupt.c: 373:         ret = (Std_ReturnType)0x00
      +                          ;
  2416   001D7E  0E00               	movlw	0
  2417   001D80  6F84               	movwf	interrupt_INTx_edge_init@ret& (0+255),b
  2418                           
  2419                           ;MCAL_Layer/Interrupt/mcal_external_interrupt.c: 374:     }
  2420   001D82  EF4A  F00F         	goto	l6219
  2421   001D86                     l6185:
  2422                           
  2423                           ; BSR set to: 0
  2424                           ;MCAL_Layer/Interrupt/mcal_external_interrupt.c: 378:                 if(int_obj->edge =
      +                          = INTERRUPT_FALLING_EDGE){
  2425   001D86  EE20 F003          	lfsr	2,3
  2426   001D8A  5180               	movf	interrupt_INTx_edge_init@int_obj& (0+255),w,b
  2427   001D8C  26D9               	addwf	fsr2l,f,c
  2428   001D8E  5181               	movf	(interrupt_INTx_edge_init@int_obj+1)& (0+255),w,b
  2429   001D90  22DA               	addwfc	fsr2h,f,c
  2430   001D92  50DF               	movf	indf2,w,c
  2431   001D94  A4D8               	btfss	status,2,c
  2432   001D96  EFCF  F00E         	goto	u5831
  2433   001D9A  EFD1  F00E         	goto	u5830
  2434   001D9E                     u5831:
  2435   001D9E  EFD4  F00E         	goto	l6189
  2436   001DA2                     u5830:
  2437   001DA2                     
  2438                           ; BSR set to: 0
  2439                           ;MCAL_Layer/Interrupt/mcal_external_interrupt.c: 379:                     (INTCON2bits.I
      +                          NTEDG0 = 0);
  2440   001DA2  9CF1               	bcf	241,6,c	;volatile
  2441                           
  2442                           ;MCAL_Layer/Interrupt/mcal_external_interrupt.c: 380:                 }
  2443   001DA4  EFE3  F00E         	goto	l6193
  2444   001DA8                     l6189:
  2445                           
  2446                           ; BSR set to: 0
  2447   001DA8  EE20 F003          	lfsr	2,3
  2448   001DAC  5180               	movf	interrupt_INTx_edge_init@int_obj& (0+255),w,b
  2449   001DAE  26D9               	addwf	fsr2l,f,c
  2450   001DB0  5181               	movf	(interrupt_INTx_edge_init@int_obj+1)& (0+255),w,b
  2451   001DB2  22DA               	addwfc	fsr2h,f,c
  2452   001DB4  04DE               	decf	postinc2,w,c
  2453   001DB6  A4D8               	btfss	status,2,c
  2454   001DB8  EFE0  F00E         	goto	u5841
  2455   001DBC  EFE2  F00E         	goto	u5840
  2456   001DC0                     u5841:
  2457   001DC0  EFE3  F00E         	goto	l6193
  2458   001DC4                     u5840:
  2459   001DC4                     
  2460                           ; BSR set to: 0
  2461                           ;MCAL_Layer/Interrupt/mcal_external_interrupt.c: 382:                     (INTCON2bits.I
      +                          NTEDG0 = 1);
  2462   001DC4  8CF1               	bsf	241,6,c	;volatile
  2463   001DC6                     l6193:
  2464                           
  2465                           ; BSR set to: 0
  2466                           ;MCAL_Layer/Interrupt/mcal_external_interrupt.c: 384:                 ret = (Std_ReturnT
      +                          ype)0x01;
  2467   001DC6  0E01               	movlw	1
  2468   001DC8  6F84               	movwf	interrupt_INTx_edge_init@ret& (0+255),b
  2469                           
  2470                           ;MCAL_Layer/Interrupt/mcal_external_interrupt.c: 385:                 break;
  2471   001DCA  EF4A  F00F         	goto	l6219
  2472   001DCE                     l6195:
  2473                           
  2474                           ; BSR set to: 0
  2475                           ;MCAL_Layer/Interrupt/mcal_external_interrupt.c: 387:                 if(int_obj->edge =
      +                          = INTERRUPT_FALLING_EDGE){
  2476   001DCE  EE20 F003          	lfsr	2,3
  2477   001DD2  5180               	movf	interrupt_INTx_edge_init@int_obj& (0+255),w,b
  2478   001DD4  26D9               	addwf	fsr2l,f,c
  2479   001DD6  5181               	movf	(interrupt_INTx_edge_init@int_obj+1)& (0+255),w,b
  2480   001DD8  22DA               	addwfc	fsr2h,f,c
  2481   001DDA  50DF               	movf	indf2,w,c
  2482   001DDC  A4D8               	btfss	status,2,c
  2483   001DDE  EFF3  F00E         	goto	u5851
  2484   001DE2  EFF5  F00E         	goto	u5850
  2485   001DE6                     u5851:
  2486   001DE6  EFF8  F00E         	goto	l6199
  2487   001DEA                     u5850:
  2488   001DEA                     
  2489                           ; BSR set to: 0
  2490                           ;MCAL_Layer/Interrupt/mcal_external_interrupt.c: 388:                     (INTCON2bits.I
      +                          NTEDG1 = 0);
  2491   001DEA  9AF1               	bcf	241,5,c	;volatile
  2492                           
  2493                           ;MCAL_Layer/Interrupt/mcal_external_interrupt.c: 389:                 }
  2494   001DEC  EFE3  F00E         	goto	l6193
  2495   001DF0                     l6199:
  2496                           
  2497                           ; BSR set to: 0
  2498   001DF0  EE20 F003          	lfsr	2,3
  2499   001DF4  5180               	movf	interrupt_INTx_edge_init@int_obj& (0+255),w,b
  2500   001DF6  26D9               	addwf	fsr2l,f,c
  2501   001DF8  5181               	movf	(interrupt_INTx_edge_init@int_obj+1)& (0+255),w,b
  2502   001DFA  22DA               	addwfc	fsr2h,f,c
  2503   001DFC  04DE               	decf	postinc2,w,c
  2504   001DFE  A4D8               	btfss	status,2,c
  2505   001E00  EF04  F00F         	goto	u5861
  2506   001E04  EF06  F00F         	goto	u5860
  2507   001E08                     u5861:
  2508   001E08  EFE3  F00E         	goto	l6193
  2509   001E0C                     u5860:
  2510   001E0C                     
  2511                           ; BSR set to: 0
  2512                           ;MCAL_Layer/Interrupt/mcal_external_interrupt.c: 391:                     (INTCON2bits.I
      +                          NTEDG1 = 1);
  2513   001E0C  8AF1               	bsf	241,5,c	;volatile
  2514   001E0E  EFE3  F00E         	goto	l6193
  2515   001E12                     l6205:
  2516                           
  2517                           ; BSR set to: 0
  2518                           ;MCAL_Layer/Interrupt/mcal_external_interrupt.c: 396:                 if(int_obj->edge =
      +                          = INTERRUPT_FALLING_EDGE){
  2519   001E12  EE20 F003          	lfsr	2,3
  2520   001E16  5180               	movf	interrupt_INTx_edge_init@int_obj& (0+255),w,b
  2521   001E18  26D9               	addwf	fsr2l,f,c
  2522   001E1A  5181               	movf	(interrupt_INTx_edge_init@int_obj+1)& (0+255),w,b
  2523   001E1C  22DA               	addwfc	fsr2h,f,c
  2524   001E1E  50DF               	movf	indf2,w,c
  2525   001E20  A4D8               	btfss	status,2,c
  2526   001E22  EF15  F00F         	goto	u5871
  2527   001E26  EF17  F00F         	goto	u5870
  2528   001E2A                     u5871:
  2529   001E2A  EF1A  F00F         	goto	l6209
  2530   001E2E                     u5870:
  2531   001E2E                     
  2532                           ; BSR set to: 0
  2533                           ;MCAL_Layer/Interrupt/mcal_external_interrupt.c: 397:                     (INTCON2bits.I
      +                          NTEDG2 = 0);
  2534   001E2E  98F1               	bcf	241,4,c	;volatile
  2535                           
  2536                           ;MCAL_Layer/Interrupt/mcal_external_interrupt.c: 398:                 }
  2537   001E30  EFE3  F00E         	goto	l6193
  2538   001E34                     l6209:
  2539                           
  2540                           ; BSR set to: 0
  2541   001E34  EE20 F003          	lfsr	2,3
  2542   001E38  5180               	movf	interrupt_INTx_edge_init@int_obj& (0+255),w,b
  2543   001E3A  26D9               	addwf	fsr2l,f,c
  2544   001E3C  5181               	movf	(interrupt_INTx_edge_init@int_obj+1)& (0+255),w,b
  2545   001E3E  22DA               	addwfc	fsr2h,f,c
  2546   001E40  04DE               	decf	postinc2,w,c
  2547   001E42  A4D8               	btfss	status,2,c
  2548   001E44  EF26  F00F         	goto	u5881
  2549   001E48  EF28  F00F         	goto	u5880
  2550   001E4C                     u5881:
  2551   001E4C  EFE3  F00E         	goto	l6193
  2552   001E50                     u5880:
  2553   001E50                     
  2554                           ; BSR set to: 0
  2555                           ;MCAL_Layer/Interrupt/mcal_external_interrupt.c: 400:                     (INTCON2bits.I
      +                          NTEDG2 = 1);
  2556   001E50  88F1               	bsf	241,4,c	;volatile
  2557   001E52  EFE3  F00E         	goto	l6193
  2558   001E56                     l6217:
  2559                           
  2560                           ; BSR set to: 0
  2561   001E56  EE20 F004          	lfsr	2,4
  2562   001E5A  5180               	movf	interrupt_INTx_edge_init@int_obj& (0+255),w,b
  2563   001E5C  26D9               	addwf	fsr2l,f,c
  2564   001E5E  5181               	movf	(interrupt_INTx_edge_init@int_obj+1)& (0+255),w,b
  2565   001E60  22DA               	addwfc	fsr2h,f,c
  2566   001E62  50DF               	movf	indf2,w,c
  2567   001E64  6F82               	movwf	??_interrupt_INTx_edge_init& (0+255),b
  2568   001E66  6B83               	clrf	(??_interrupt_INTx_edge_init+1)& (0+255),b
  2569                           
  2570                           ; Switch on 2 bytes has been partitioned into a top level switch of size 1, and 1 sub-sw
      +                          itches
  2571                           ; Switch size 1, requested type "simple"
  2572                           ; Number of cases is 1, Range of values is 0 to 0
  2573                           ; switch strategies available:
  2574                           ; Name         Instructions Cycles
  2575                           ; simple_byte            4     3 (average)
  2576                           ;	Chosen strategy is simple_byte
  2577   001E68  5183               	movf	(??_interrupt_INTx_edge_init+1)& (0+255),w,b
  2578   001E6A  0A00               	xorlw	0	; case 0
  2579   001E6C  B4D8               	btfsc	status,2,c
  2580   001E6E  EF3B  F00F         	goto	l7297
  2581   001E72  EFBF  F00E         	goto	l6183
  2582   001E76                     l7297:
  2583                           
  2584                           ; BSR set to: 0
  2585                           ; Switch size 1, requested type "simple"
  2586                           ; Number of cases is 3, Range of values is 0 to 2
  2587                           ; switch strategies available:
  2588                           ; Name         Instructions Cycles
  2589                           ; simple_byte           10     6 (average)
  2590                           ;	Chosen strategy is simple_byte
  2591   001E76  5182               	movf	??_interrupt_INTx_edge_init& (0+255),w,b
  2592   001E78  0A00               	xorlw	0	; case 0
  2593   001E7A  B4D8               	btfsc	status,2,c
  2594   001E7C  EFC3  F00E         	goto	l6185
  2595   001E80  0A01               	xorlw	1	; case 1
  2596   001E82  B4D8               	btfsc	status,2,c
  2597   001E84  EFE7  F00E         	goto	l6195
  2598   001E88  0A03               	xorlw	3	; case 2
  2599   001E8A  B4D8               	btfsc	status,2,c
  2600   001E8C  EF09  F00F         	goto	l6205
  2601   001E90  EFBF  F00E         	goto	l6183
  2602   001E94                     l6219:
  2603                           
  2604                           ; BSR set to: 0
  2605                           ;MCAL_Layer/Interrupt/mcal_external_interrupt.c: 409:     return ret;
  2606   001E94  5184               	movf	interrupt_INTx_edge_init@ret& (0+255),w,b
  2607   001E96                     
  2608                           ; BSR set to: 0
  2609   001E96  0012               	return		;funcret
  2610   001E98                     __end_of_interrupt_INTx_edge_init:
  2611                           	callstack 0
  2612                           
  2613 ;; *************** function _interrupt_INTx_disable *****************
  2614 ;; Defined at:
  2615 ;;		line 305 in file "MCAL_Layer/Interrupt/mcal_external_interrupt.c"
  2616 ;; Parameters:    Size  Location     Type
  2617 ;;  int_obj         2    0[BANK0 ] PTR const struct .
  2618 ;;		 -> int2_obj(6), int1_obj(6), int0_obj(6), 
  2619 ;; Auto vars:     Size  Location     Type
  2620 ;;  ret             1    4[BANK0 ] unsigned char 
  2621 ;; Return value:  Size  Location     Type
  2622 ;;                  1    wreg      unsigned char 
  2623 ;; Registers used:
  2624 ;;		wreg, fsr2l, fsr2h, status,2, status,0
  2625 ;; Tracked objects:
  2626 ;;		On entry : 0/0
  2627 ;;		On exit  : 0/0
  2628 ;;		Unchanged: 0/0
  2629 ;; Data sizes:     COMRAM   BANK0   BANK1   BANK2   BANK3   BANK4   BANK5   BANK6   BANK7   BANK8   BANK9  BANK10  BANK1
      +1  BANK12  BANK13  BANK14  BANK15
  2630 ;;      Params:         0       2       0       0       0       0       0       0       0       0       0       0       
      +0       0       0       0       0
  2631 ;;      Locals:         0       1       0       0       0       0       0       0       0       0       0       0       
      +0       0       0       0       0
  2632 ;;      Temps:          0       2       0       0       0       0       0       0       0       0       0       0       
      +0       0       0       0       0
  2633 ;;      Totals:         0       5       0       0       0       0       0       0       0       0       0       0       
      +0       0       0       0       0
  2634 ;;Total ram usage:        5 bytes
  2635 ;; Hardware stack levels used: 1
  2636 ;; Hardware stack levels required when called: 10
  2637 ;; This function calls:
  2638 ;;		Nothing
  2639 ;; This function is called by:
  2640 ;;		_interrupt_INTx_initialize
  2641 ;;		_interrupt_INTx_deinitialize
  2642 ;; This function uses a non-reentrant model
  2643 ;;
  2644                           
  2645                           	psect	text9
  2646   003216                     __ptext9:
  2647                           	callstack 0
  2648   003216                     _interrupt_INTx_disable:
  2649                           	callstack 18
  2650   003216                     
  2651                           ;MCAL_Layer/Interrupt/mcal_external_interrupt.c: 308:     if (int_obj == ((void*)0)){
  2652   003216  0100               	movlb	0	; () banked
  2653   003218  5180               	movf	interrupt_INTx_disable@int_obj& (0+255),w,b
  2654   00321A  1181               	iorwf	(interrupt_INTx_disable@int_obj+1)& (0+255),w,b
  2655   00321C  A4D8               	btfss	status,2,c
  2656   00321E  EF13  F019         	goto	u5801
  2657   003222  EF15  F019         	goto	u5800
  2658   003226                     u5801:
  2659   003226  EF24  F019         	goto	l6141
  2660   00322A                     u5800:
  2661   00322A                     l6131:
  2662                           
  2663                           ; BSR set to: 0
  2664                           ;MCAL_Layer/Interrupt/mcal_external_interrupt.c: 309:         ret = (Std_ReturnType)0x00
      +                          ;
  2665   00322A  0E00               	movlw	0
  2666   00322C  6F84               	movwf	interrupt_INTx_disable@ret& (0+255),b
  2667                           
  2668                           ;MCAL_Layer/Interrupt/mcal_external_interrupt.c: 310:     }
  2669   00322E  EF43  F019         	goto	l6143
  2670   003232                     l516:
  2671                           
  2672                           ; BSR set to: 0
  2673                           ;MCAL_Layer/Interrupt/mcal_external_interrupt.c: 314:                 (INTCONbits.INT0IE
      +                           = 0);
  2674   003232  98F2               	bcf	242,4,c	;volatile
  2675   003234                     l6133:
  2676                           
  2677                           ; BSR set to: 0
  2678                           ;MCAL_Layer/Interrupt/mcal_external_interrupt.c: 315:                 ret = (Std_ReturnT
      +                          ype)0x01;
  2679   003234  0E01               	movlw	1
  2680   003236  6F84               	movwf	interrupt_INTx_disable@ret& (0+255),b
  2681                           
  2682                           ;MCAL_Layer/Interrupt/mcal_external_interrupt.c: 316:                 break;
  2683   003238  EF43  F019         	goto	l6143
  2684   00323C                     l518:
  2685                           
  2686                           ; BSR set to: 0
  2687                           ;MCAL_Layer/Interrupt/mcal_external_interrupt.c: 318:                 (INTCON3bits.INT1I
      +                          E = 0);
  2688   00323C  96F0               	bcf	240,3,c	;volatile
  2689   00323E  EF1A  F019         	goto	l6133
  2690   003242                     l519:
  2691                           
  2692                           ; BSR set to: 0
  2693                           ;MCAL_Layer/Interrupt/mcal_external_interrupt.c: 322:                 (INTCON3bits.INT2I
      +                          E = 0);
  2694   003242  98F0               	bcf	240,4,c	;volatile
  2695   003244  EF1A  F019         	goto	l6133
  2696   003248                     l6141:
  2697                           
  2698                           ; BSR set to: 0
  2699   003248  EE20 F004          	lfsr	2,4
  2700   00324C  5180               	movf	interrupt_INTx_disable@int_obj& (0+255),w,b
  2701   00324E  26D9               	addwf	fsr2l,f,c
  2702   003250  5181               	movf	(interrupt_INTx_disable@int_obj+1)& (0+255),w,b
  2703   003252  22DA               	addwfc	fsr2h,f,c
  2704   003254  50DF               	movf	indf2,w,c
  2705   003256  6F82               	movwf	??_interrupt_INTx_disable& (0+255),b
  2706   003258  6B83               	clrf	(??_interrupt_INTx_disable+1)& (0+255),b
  2707                           
  2708                           ; Switch on 2 bytes has been partitioned into a top level switch of size 1, and 1 sub-sw
      +                          itches
  2709                           ; Switch size 1, requested type "simple"
  2710                           ; Number of cases is 1, Range of values is 0 to 0
  2711                           ; switch strategies available:
  2712                           ; Name         Instructions Cycles
  2713                           ; simple_byte            4     3 (average)
  2714                           ;	Chosen strategy is simple_byte
  2715   00325A  5183               	movf	(??_interrupt_INTx_disable+1)& (0+255),w,b
  2716   00325C  0A00               	xorlw	0	; case 0
  2717   00325E  B4D8               	btfsc	status,2,c
  2718   003260  EF34  F019         	goto	l7299
  2719   003264  EF15  F019         	goto	l6131
  2720   003268                     l7299:
  2721                           
  2722                           ; BSR set to: 0
  2723                           ; Switch size 1, requested type "simple"
  2724                           ; Number of cases is 3, Range of values is 0 to 2
  2725                           ; switch strategies available:
  2726                           ; Name         Instructions Cycles
  2727                           ; simple_byte           10     6 (average)
  2728                           ;	Chosen strategy is simple_byte
  2729   003268  5182               	movf	??_interrupt_INTx_disable& (0+255),w,b
  2730   00326A  0A00               	xorlw	0	; case 0
  2731   00326C  B4D8               	btfsc	status,2,c
  2732   00326E  EF19  F019         	goto	l516
  2733   003272  0A01               	xorlw	1	; case 1
  2734   003274  B4D8               	btfsc	status,2,c
  2735   003276  EF1E  F019         	goto	l518
  2736   00327A  0A03               	xorlw	3	; case 2
  2737   00327C  B4D8               	btfsc	status,2,c
  2738   00327E  EF21  F019         	goto	l519
  2739   003282  EF15  F019         	goto	l6131
  2740   003286                     l6143:
  2741                           
  2742                           ; BSR set to: 0
  2743                           ;MCAL_Layer/Interrupt/mcal_external_interrupt.c: 330:     return ret;
  2744   003286  5184               	movf	interrupt_INTx_disable@ret& (0+255),w,b
  2745   003288                     
  2746                           ; BSR set to: 0
  2747   003288  0012               	return		;funcret
  2748   00328A                     __end_of_interrupt_INTx_disable:
  2749                           	callstack 0
  2750                           
  2751 ;; *************** function _interrupt_INTx_clear_flag *****************
  2752 ;; Defined at:
  2753 ;;		line 425 in file "MCAL_Layer/Interrupt/mcal_external_interrupt.c"
  2754 ;; Parameters:    Size  Location     Type
  2755 ;;  int_obj         2    0[BANK0 ] PTR const struct .
  2756 ;;		 -> int2_obj(6), int1_obj(6), int0_obj(6), 
  2757 ;; Auto vars:     Size  Location     Type
  2758 ;;  ret             1    4[BANK0 ] unsigned char 
  2759 ;; Return value:  Size  Location     Type
  2760 ;;                  1    wreg      unsigned char 
  2761 ;; Registers used:
  2762 ;;		wreg, fsr2l, fsr2h, status,2, status,0
  2763 ;; Tracked objects:
  2764 ;;		On entry : 0/0
  2765 ;;		On exit  : 0/0
  2766 ;;		Unchanged: 0/0
  2767 ;; Data sizes:     COMRAM   BANK0   BANK1   BANK2   BANK3   BANK4   BANK5   BANK6   BANK7   BANK8   BANK9  BANK10  BANK1
      +1  BANK12  BANK13  BANK14  BANK15
  2768 ;;      Params:         0       2       0       0       0       0       0       0       0       0       0       0       
      +0       0       0       0       0
  2769 ;;      Locals:         0       1       0       0       0       0       0       0       0       0       0       0       
      +0       0       0       0       0
  2770 ;;      Temps:          0       2       0       0       0       0       0       0       0       0       0       0       
      +0       0       0       0       0
  2771 ;;      Totals:         0       5       0       0       0       0       0       0       0       0       0       0       
      +0       0       0       0       0
  2772 ;;Total ram usage:        5 bytes
  2773 ;; Hardware stack levels used: 1
  2774 ;; Hardware stack levels required when called: 10
  2775 ;; This function calls:
  2776 ;;		Nothing
  2777 ;; This function is called by:
  2778 ;;		_interrupt_INTx_initialize
  2779 ;; This function uses a non-reentrant model
  2780 ;;
  2781                           
  2782                           	psect	text10
  2783   00328A                     __ptext10:
  2784                           	callstack 0
  2785   00328A                     _interrupt_INTx_clear_flag:
  2786                           	callstack 18
  2787   00328A                     
  2788                           ;MCAL_Layer/Interrupt/mcal_external_interrupt.c: 428:     if (int_obj == ((void*)0)){
  2789   00328A  0100               	movlb	0	; () banked
  2790   00328C  5180               	movf	interrupt_INTx_clear_flag@int_obj& (0+255),w,b
  2791   00328E  1181               	iorwf	(interrupt_INTx_clear_flag@int_obj+1)& (0+255),w,b
  2792   003290  A4D8               	btfss	status,2,c
  2793   003292  EF4D  F019         	goto	u5811
  2794   003296  EF4F  F019         	goto	u5810
  2795   00329A                     u5811:
  2796   00329A  EF5E  F019         	goto	l6167
  2797   00329E                     u5810:
  2798   00329E                     l6157:
  2799                           
  2800                           ; BSR set to: 0
  2801                           ;MCAL_Layer/Interrupt/mcal_external_interrupt.c: 429:         ret = (Std_ReturnType)0x00
      +                          ;
  2802   00329E  0E00               	movlw	0
  2803   0032A0  6F84               	movwf	interrupt_INTx_clear_flag@ret& (0+255),b
  2804                           
  2805                           ;MCAL_Layer/Interrupt/mcal_external_interrupt.c: 430:     }
  2806   0032A2  EF7D  F019         	goto	l6169
  2807   0032A6                     l552:
  2808                           
  2809                           ; BSR set to: 0
  2810                           ;MCAL_Layer/Interrupt/mcal_external_interrupt.c: 434:                 (INTCONbits.INT0IF
      +                           = 0);
  2811   0032A6  92F2               	bcf	242,1,c	;volatile
  2812   0032A8                     l6159:
  2813                           
  2814                           ; BSR set to: 0
  2815                           ;MCAL_Layer/Interrupt/mcal_external_interrupt.c: 435:                 ret = (Std_ReturnT
      +                          ype)0x01;
  2816   0032A8  0E01               	movlw	1
  2817   0032AA  6F84               	movwf	interrupt_INTx_clear_flag@ret& (0+255),b
  2818                           
  2819                           ;MCAL_Layer/Interrupt/mcal_external_interrupt.c: 436:                 break;
  2820   0032AC  EF7D  F019         	goto	l6169
  2821   0032B0                     l554:
  2822                           
  2823                           ; BSR set to: 0
  2824                           ;MCAL_Layer/Interrupt/mcal_external_interrupt.c: 438:                (INTCON3bits.INT1IF
      +                           = 0);
  2825   0032B0  90F0               	bcf	240,0,c	;volatile
  2826   0032B2  EF54  F019         	goto	l6159
  2827   0032B6                     l555:
  2828                           
  2829                           ; BSR set to: 0
  2830                           ;MCAL_Layer/Interrupt/mcal_external_interrupt.c: 442:                 (INTCON3bits.INT2I
      +                          F = 0);
  2831   0032B6  92F0               	bcf	240,1,c	;volatile
  2832   0032B8  EF54  F019         	goto	l6159
  2833   0032BC                     l6167:
  2834                           
  2835                           ; BSR set to: 0
  2836   0032BC  EE20 F004          	lfsr	2,4
  2837   0032C0  5180               	movf	interrupt_INTx_clear_flag@int_obj& (0+255),w,b
  2838   0032C2  26D9               	addwf	fsr2l,f,c
  2839   0032C4  5181               	movf	(interrupt_INTx_clear_flag@int_obj+1)& (0+255),w,b
  2840   0032C6  22DA               	addwfc	fsr2h,f,c
  2841   0032C8  50DF               	movf	indf2,w,c
  2842   0032CA  6F82               	movwf	??_interrupt_INTx_clear_flag& (0+255),b
  2843   0032CC  6B83               	clrf	(??_interrupt_INTx_clear_flag+1)& (0+255),b
  2844                           
  2845                           ; Switch on 2 bytes has been partitioned into a top level switch of size 1, and 1 sub-sw
      +                          itches
  2846                           ; Switch size 1, requested type "simple"
  2847                           ; Number of cases is 1, Range of values is 0 to 0
  2848                           ; switch strategies available:
  2849                           ; Name         Instructions Cycles
  2850                           ; simple_byte            4     3 (average)
  2851                           ;	Chosen strategy is simple_byte
  2852   0032CE  5183               	movf	(??_interrupt_INTx_clear_flag+1)& (0+255),w,b
  2853   0032D0  0A00               	xorlw	0	; case 0
  2854   0032D2  B4D8               	btfsc	status,2,c
  2855   0032D4  EF6E  F019         	goto	l7301
  2856   0032D8  EF4F  F019         	goto	l6157
  2857   0032DC                     l7301:
  2858                           
  2859                           ; BSR set to: 0
  2860                           ; Switch size 1, requested type "simple"
  2861                           ; Number of cases is 3, Range of values is 0 to 2
  2862                           ; switch strategies available:
  2863                           ; Name         Instructions Cycles
  2864                           ; simple_byte           10     6 (average)
  2865                           ;	Chosen strategy is simple_byte
  2866   0032DC  5182               	movf	??_interrupt_INTx_clear_flag& (0+255),w,b
  2867   0032DE  0A00               	xorlw	0	; case 0
  2868   0032E0  B4D8               	btfsc	status,2,c
  2869   0032E2  EF53  F019         	goto	l552
  2870   0032E6  0A01               	xorlw	1	; case 1
  2871   0032E8  B4D8               	btfsc	status,2,c
  2872   0032EA  EF58  F019         	goto	l554
  2873   0032EE  0A03               	xorlw	3	; case 2
  2874   0032F0  B4D8               	btfsc	status,2,c
  2875   0032F2  EF5B  F019         	goto	l555
  2876   0032F6  EF4F  F019         	goto	l6157
  2877   0032FA                     l6169:
  2878                           
  2879                           ; BSR set to: 0
  2880                           ;MCAL_Layer/Interrupt/mcal_external_interrupt.c: 450:     return ret;
  2881   0032FA  5184               	movf	interrupt_INTx_clear_flag@ret& (0+255),w,b
  2882   0032FC                     
  2883                           ; BSR set to: 0
  2884   0032FC  0012               	return		;funcret
  2885   0032FE                     __end_of_interrupt_INTx_clear_flag:
  2886                           	callstack 0
  2887                           
  2888 ;; *************** function _interrupt_INTx_SetInterruptHandler *****************
  2889 ;; Defined at:
  2890 ;;		line 498 in file "MCAL_Layer/Interrupt/mcal_external_interrupt.c"
  2891 ;; Parameters:    Size  Location     Type
  2892 ;;  int_obj         2    2[BANK0 ] PTR const struct .
  2893 ;;		 -> int2_obj(6), int1_obj(6), int0_obj(6), 
  2894 ;; Auto vars:     Size  Location     Type
  2895 ;;  ret             1    6[BANK0 ] unsigned char 
  2896 ;; Return value:  Size  Location     Type
  2897 ;;                  1    wreg      unsigned char 
  2898 ;; Registers used:
  2899 ;;		wreg, fsr2l, fsr2h, status,2, status,0, cstack
  2900 ;; Tracked objects:
  2901 ;;		On entry : 0/0
  2902 ;;		On exit  : 0/0
  2903 ;;		Unchanged: 0/0
  2904 ;; Data sizes:     COMRAM   BANK0   BANK1   BANK2   BANK3   BANK4   BANK5   BANK6   BANK7   BANK8   BANK9  BANK10  BANK1
      +1  BANK12  BANK13  BANK14  BANK15
  2905 ;;      Params:         0       2       0       0       0       0       0       0       0       0       0       0       
      +0       0       0       0       0
  2906 ;;      Locals:         0       1       0       0       0       0       0       0       0       0       0       0       
      +0       0       0       0       0
  2907 ;;      Temps:          0       2       0       0       0       0       0       0       0       0       0       0       
      +0       0       0       0       0
  2908 ;;      Totals:         0       5       0       0       0       0       0       0       0       0       0       0       
      +0       0       0       0       0
  2909 ;;Total ram usage:        5 bytes
  2910 ;; Hardware stack levels used: 1
  2911 ;; Hardware stack levels required when called: 11
  2912 ;; This function calls:
  2913 ;;		_INT0_SetInterruptHandler
  2914 ;;		_INT1_SetInterruptHandler
  2915 ;;		_INT2_SetInterruptHandler
  2916 ;; This function is called by:
  2917 ;;		_interrupt_INTx_initialize
  2918 ;; This function uses a non-reentrant model
  2919 ;;
  2920                           
  2921                           	psect	text11
  2922   0025C0                     __ptext11:
  2923                           	callstack 0
  2924   0025C0                     _interrupt_INTx_SetInterruptHandler:
  2925                           	callstack 17
  2926   0025C0                     
  2927                           ;MCAL_Layer/Interrupt/mcal_external_interrupt.c: 501:     if (int_obj == ((void*)0)){
  2928   0025C0  0100               	movlb	0	; () banked
  2929   0025C2  5182               	movf	interrupt_INTx_SetInterruptHandler@int_obj& (0+255),w,b
  2930   0025C4  1183               	iorwf	(interrupt_INTx_SetInterruptHandler@int_obj+1)& (0+255),w,b
  2931   0025C6  A4D8               	btfss	status,2,c
  2932   0025C8  EFE8  F012         	goto	u5901
  2933   0025CC  EFEA  F012         	goto	u5900
  2934   0025D0                     u5901:
  2935   0025D0  EF18  F013         	goto	l6253
  2936   0025D4                     u5900:
  2937   0025D4                     l6243:
  2938                           
  2939                           ; BSR set to: 0
  2940                           ;MCAL_Layer/Interrupt/mcal_external_interrupt.c: 502:         ret = (Std_ReturnType)0x00
      +                          ;
  2941   0025D4  0E00               	movlw	0
  2942   0025D6  6F86               	movwf	interrupt_INTx_SetInterruptHandler@ret& (0+255),b
  2943                           
  2944                           ;MCAL_Layer/Interrupt/mcal_external_interrupt.c: 503:     }
  2945   0025D8  EF37  F013         	goto	l6255
  2946   0025DC                     l6245:
  2947                           
  2948                           ; BSR set to: 0
  2949                           ;MCAL_Layer/Interrupt/mcal_external_interrupt.c: 507:                 ret = INT0_SetInte
      +                          rruptHandler(int_obj->InterruptHandler);
  2950   0025DC  C082  FFD9         	movff	interrupt_INTx_SetInterruptHandler@int_obj,fsr2l
  2951   0025E0  C083  FFDA         	movff	interrupt_INTx_SetInterruptHandler@int_obj+1,fsr2h
  2952   0025E4  CFDE F080          	movff	postinc2,INT0_SetInterruptHandler@InterruptHandler
  2953   0025E8  CFDD F081          	movff	postdec2,INT0_SetInterruptHandler@InterruptHandler+1
  2954   0025EC  ECF2  F01D         	call	_INT0_SetInterruptHandler	;wreg free
  2955   0025F0  0100               	movlb	0	; () banked
  2956   0025F2  6F86               	movwf	interrupt_INTx_SetInterruptHandler@ret& (0+255),b
  2957                           
  2958                           ;MCAL_Layer/Interrupt/mcal_external_interrupt.c: 508:                 break;
  2959   0025F4  EF37  F013         	goto	l6255
  2960   0025F8                     l6247:
  2961                           
  2962                           ; BSR set to: 0
  2963                           ;MCAL_Layer/Interrupt/mcal_external_interrupt.c: 510:                 ret = INT1_SetInte
      +                          rruptHandler(int_obj->InterruptHandler);
  2964   0025F8  C082  FFD9         	movff	interrupt_INTx_SetInterruptHandler@int_obj,fsr2l
  2965   0025FC  C083  FFDA         	movff	interrupt_INTx_SetInterruptHandler@int_obj+1,fsr2h
  2966   002600  CFDE F080          	movff	postinc2,INT1_SetInterruptHandler@InterruptHandler
  2967   002604  CFDD F081          	movff	postdec2,INT1_SetInterruptHandler@InterruptHandler+1
  2968   002608  ECDE  F01D         	call	_INT1_SetInterruptHandler	;wreg free
  2969   00260C  0100               	movlb	0	; () banked
  2970   00260E  6F86               	movwf	interrupt_INTx_SetInterruptHandler@ret& (0+255),b
  2971                           
  2972                           ;MCAL_Layer/Interrupt/mcal_external_interrupt.c: 511:                 break;
  2973   002610  EF37  F013         	goto	l6255
  2974   002614                     l6249:
  2975                           
  2976                           ; BSR set to: 0
  2977                           ;MCAL_Layer/Interrupt/mcal_external_interrupt.c: 513:                 ret = INT2_SetInte
      +                          rruptHandler(int_obj->InterruptHandler);
  2978   002614  C082  FFD9         	movff	interrupt_INTx_SetInterruptHandler@int_obj,fsr2l
  2979   002618  C083  FFDA         	movff	interrupt_INTx_SetInterruptHandler@int_obj+1,fsr2h
  2980   00261C  CFDE F080          	movff	postinc2,INT2_SetInterruptHandler@InterruptHandler
  2981   002620  CFDD F081          	movff	postdec2,INT2_SetInterruptHandler@InterruptHandler+1
  2982   002624  ECCA  F01D         	call	_INT2_SetInterruptHandler	;wreg free
  2983   002628  0100               	movlb	0	; () banked
  2984   00262A  6F86               	movwf	interrupt_INTx_SetInterruptHandler@ret& (0+255),b
  2985                           
  2986                           ;MCAL_Layer/Interrupt/mcal_external_interrupt.c: 514:                 break;
  2987   00262C  EF37  F013         	goto	l6255
  2988   002630                     l6253:
  2989                           
  2990                           ; BSR set to: 0
  2991   002630  EE20 F004          	lfsr	2,4
  2992   002634  5182               	movf	interrupt_INTx_SetInterruptHandler@int_obj& (0+255),w,b
  2993   002636  26D9               	addwf	fsr2l,f,c
  2994   002638  5183               	movf	(interrupt_INTx_SetInterruptHandler@int_obj+1)& (0+255),w,b
  2995   00263A  22DA               	addwfc	fsr2h,f,c
  2996   00263C  50DF               	movf	indf2,w,c
  2997   00263E  6F84               	movwf	??_interrupt_INTx_SetInterruptHandler& (0+255),b
  2998   002640  6B85               	clrf	(??_interrupt_INTx_SetInterruptHandler+1)& (0+255),b
  2999                           
  3000                           ; Switch on 2 bytes has been partitioned into a top level switch of size 1, and 1 sub-sw
      +                          itches
  3001                           ; Switch size 1, requested type "simple"
  3002                           ; Number of cases is 1, Range of values is 0 to 0
  3003                           ; switch strategies available:
  3004                           ; Name         Instructions Cycles
  3005                           ; simple_byte            4     3 (average)
  3006                           ;	Chosen strategy is simple_byte
  3007   002642  5185               	movf	(??_interrupt_INTx_SetInterruptHandler+1)& (0+255),w,b
  3008   002644  0A00               	xorlw	0	; case 0
  3009   002646  B4D8               	btfsc	status,2,c
  3010   002648  EF28  F013         	goto	l7303
  3011   00264C  EFEA  F012         	goto	l6243
  3012   002650                     l7303:
  3013                           
  3014                           ; BSR set to: 0
  3015                           ; Switch size 1, requested type "simple"
  3016                           ; Number of cases is 3, Range of values is 0 to 2
  3017                           ; switch strategies available:
  3018                           ; Name         Instructions Cycles
  3019                           ; simple_byte           10     6 (average)
  3020                           ;	Chosen strategy is simple_byte
  3021   002650  5184               	movf	??_interrupt_INTx_SetInterruptHandler& (0+255),w,b
  3022   002652  0A00               	xorlw	0	; case 0
  3023   002654  B4D8               	btfsc	status,2,c
  3024   002656  EFEE  F012         	goto	l6245
  3025   00265A  0A01               	xorlw	1	; case 1
  3026   00265C  B4D8               	btfsc	status,2,c
  3027   00265E  EFFC  F012         	goto	l6247
  3028   002662  0A03               	xorlw	3	; case 2
  3029   002664  B4D8               	btfsc	status,2,c
  3030   002666  EF0A  F013         	goto	l6249
  3031   00266A  EFEA  F012         	goto	l6243
  3032   00266E                     l6255:
  3033                           
  3034                           ; BSR set to: 0
  3035                           ;MCAL_Layer/Interrupt/mcal_external_interrupt.c: 520:     return ret;
  3036   00266E  5186               	movf	interrupt_INTx_SetInterruptHandler@ret& (0+255),w,b
  3037   002670                     
  3038                           ; BSR set to: 0
  3039   002670  0012               	return		;funcret
  3040   002672                     __end_of_interrupt_INTx_SetInterruptHandler:
  3041                           	callstack 0
  3042                           
  3043 ;; *************** function _INT2_SetInterruptHandler *****************
  3044 ;; Defined at:
  3045 ;;		line 483 in file "MCAL_Layer/Interrupt/mcal_external_interrupt.c"
  3046 ;; Parameters:    Size  Location     Type
  3047 ;;  InterruptHan    2    0[BANK0 ] PTR FTN()void 
  3048 ;;		 -> INT2_APP_ISR(1), INT1_APP_ISR(1), INT0_APP_ISR(1), 
  3049 ;; Auto vars:     Size  Location     Type
  3050 ;;  ret             1    0        unsigned char 
  3051 ;; Return value:  Size  Location     Type
  3052 ;;                  1    wreg      unsigned char 
  3053 ;; Registers used:
  3054 ;;		wreg, status,2, status,0
  3055 ;; Tracked objects:
  3056 ;;		On entry : 0/0
  3057 ;;		On exit  : 0/0
  3058 ;;		Unchanged: 0/0
  3059 ;; Data sizes:     COMRAM   BANK0   BANK1   BANK2   BANK3   BANK4   BANK5   BANK6   BANK7   BANK8   BANK9  BANK10  BANK1
      +1  BANK12  BANK13  BANK14  BANK15
  3060 ;;      Params:         0       2       0       0       0       0       0       0       0       0       0       0       
      +0       0       0       0       0
  3061 ;;      Locals:         0       0       0       0       0       0       0       0       0       0       0       0       
      +0       0       0       0       0
  3062 ;;      Temps:          0       0       0       0       0       0       0       0       0       0       0       0       
      +0       0       0       0       0
  3063 ;;      Totals:         0       2       0       0       0       0       0       0       0       0       0       0       
      +0       0       0       0       0
  3064 ;;Total ram usage:        2 bytes
  3065 ;; Hardware stack levels used: 1
  3066 ;; Hardware stack levels required when called: 10
  3067 ;; This function calls:
  3068 ;;		Nothing
  3069 ;; This function is called by:
  3070 ;;		_interrupt_INTx_SetInterruptHandler
  3071 ;; This function uses a non-reentrant model
  3072 ;;
  3073                           
  3074                           	psect	text12
  3075   003B94                     __ptext12:
  3076                           	callstack 0
  3077   003B94                     _INT2_SetInterruptHandler:
  3078                           	callstack 17
  3079   003B94                     
  3080                           ;MCAL_Layer/Interrupt/mcal_external_interrupt.c: 486:     if (InterruptHandler == ((void
      +                          *)0)){
  3081   003B94  0100               	movlb	0	; () banked
  3082   003B96  5180               	movf	INT2_SetInterruptHandler@InterruptHandler& (0+255),w,b
  3083   003B98  1181               	iorwf	(INT2_SetInterruptHandler@InterruptHandler+1)& (0+255),w,b
  3084   003B9A  A4D8               	btfss	status,2,c
  3085   003B9C  EFD2  F01D         	goto	u3601
  3086   003BA0  EFD4  F01D         	goto	u3600
  3087   003BA4                     u3601:
  3088   003BA4  EFD6  F01D         	goto	l4315
  3089   003BA8                     u3600:
  3090   003BA8                     l4313:
  3091                           
  3092                           ; BSR set to: 0
  3093                           ;MCAL_Layer/Interrupt/mcal_external_interrupt.c: 488:     }
  3094   003BA8  EFDC  F01D         	goto	l4319
  3095   003BAC                     l4315:
  3096                           
  3097                           ; BSR set to: 0
  3098                           ;MCAL_Layer/Interrupt/mcal_external_interrupt.c: 490:         INT2_InterruptHandler = In
      +                          terruptHandler;
  3099   003BAC  C080  F05F         	movff	INT2_SetInterruptHandler@InterruptHandler,_INT2_InterruptHandler
  3100   003BB0  C081  F060         	movff	INT2_SetInterruptHandler@InterruptHandler+1,_INT2_InterruptHandler+1
  3101   003BB4  EFD4  F01D         	goto	l4313
  3102   003BB8                     l4319:
  3103                           
  3104                           ; BSR set to: 0
  3105                           ;MCAL_Layer/Interrupt/mcal_external_interrupt.c: 495:     return ret;
  3106   003BB8  0E00               	movlw	0
  3107   003BBA                     
  3108                           ; BSR set to: 0
  3109   003BBA  0012               	return		;funcret
  3110   003BBC                     __end_of_INT2_SetInterruptHandler:
  3111                           	callstack 0
  3112                           
  3113 ;; *************** function _INT1_SetInterruptHandler *****************
  3114 ;; Defined at:
  3115 ;;		line 468 in file "MCAL_Layer/Interrupt/mcal_external_interrupt.c"
  3116 ;; Parameters:    Size  Location     Type
  3117 ;;  InterruptHan    2    0[BANK0 ] PTR FTN()void 
  3118 ;;		 -> INT2_APP_ISR(1), INT1_APP_ISR(1), INT0_APP_ISR(1), 
  3119 ;; Auto vars:     Size  Location     Type
  3120 ;;  ret             1    0        unsigned char 
  3121 ;; Return value:  Size  Location     Type
  3122 ;;                  1    wreg      unsigned char 
  3123 ;; Registers used:
  3124 ;;		wreg, status,2, status,0
  3125 ;; Tracked objects:
  3126 ;;		On entry : 0/0
  3127 ;;		On exit  : 0/0
  3128 ;;		Unchanged: 0/0
  3129 ;; Data sizes:     COMRAM   BANK0   BANK1   BANK2   BANK3   BANK4   BANK5   BANK6   BANK7   BANK8   BANK9  BANK10  BANK1
      +1  BANK12  BANK13  BANK14  BANK15
  3130 ;;      Params:         0       2       0       0       0       0       0       0       0       0       0       0       
      +0       0       0       0       0
  3131 ;;      Locals:         0       0       0       0       0       0       0       0       0       0       0       0       
      +0       0       0       0       0
  3132 ;;      Temps:          0       0       0       0       0       0       0       0       0       0       0       0       
      +0       0       0       0       0
  3133 ;;      Totals:         0       2       0       0       0       0       0       0       0       0       0       0       
      +0       0       0       0       0
  3134 ;;Total ram usage:        2 bytes
  3135 ;; Hardware stack levels used: 1
  3136 ;; Hardware stack levels required when called: 10
  3137 ;; This function calls:
  3138 ;;		Nothing
  3139 ;; This function is called by:
  3140 ;;		_interrupt_INTx_SetInterruptHandler
  3141 ;; This function uses a non-reentrant model
  3142 ;;
  3143                           
  3144                           	psect	text13
  3145   003BBC                     __ptext13:
  3146                           	callstack 0
  3147   003BBC                     _INT1_SetInterruptHandler:
  3148                           	callstack 17
  3149   003BBC                     
  3150                           ;MCAL_Layer/Interrupt/mcal_external_interrupt.c: 471:     if (InterruptHandler == ((void
      +                          *)0)){
  3151   003BBC  0100               	movlb	0	; () banked
  3152   003BBE  5180               	movf	INT1_SetInterruptHandler@InterruptHandler& (0+255),w,b
  3153   003BC0  1181               	iorwf	(INT1_SetInterruptHandler@InterruptHandler+1)& (0+255),w,b
  3154   003BC2  A4D8               	btfss	status,2,c
  3155   003BC4  EFE6  F01D         	goto	u3591
  3156   003BC8  EFE8  F01D         	goto	u3590
  3157   003BCC                     u3591:
  3158   003BCC  EFEA  F01D         	goto	l4301
  3159   003BD0                     u3590:
  3160   003BD0                     l4299:
  3161                           
  3162                           ; BSR set to: 0
  3163                           ;MCAL_Layer/Interrupt/mcal_external_interrupt.c: 473:     }
  3164   003BD0  EFF0  F01D         	goto	l4305
  3165   003BD4                     l4301:
  3166                           
  3167                           ; BSR set to: 0
  3168                           ;MCAL_Layer/Interrupt/mcal_external_interrupt.c: 475:         INT1_InterruptHandler = In
      +                          terruptHandler;
  3169   003BD4  C080  F061         	movff	INT1_SetInterruptHandler@InterruptHandler,_INT1_InterruptHandler
  3170   003BD8  C081  F062         	movff	INT1_SetInterruptHandler@InterruptHandler+1,_INT1_InterruptHandler+1
  3171   003BDC  EFE8  F01D         	goto	l4299
  3172   003BE0                     l4305:
  3173                           
  3174                           ; BSR set to: 0
  3175                           ;MCAL_Layer/Interrupt/mcal_external_interrupt.c: 480:     return ret;
  3176   003BE0  0E00               	movlw	0
  3177   003BE2                     
  3178                           ; BSR set to: 0
  3179   003BE2  0012               	return		;funcret
  3180   003BE4                     __end_of_INT1_SetInterruptHandler:
  3181                           	callstack 0
  3182                           
  3183 ;; *************** function _INT0_SetInterruptHandler *****************
  3184 ;; Defined at:
  3185 ;;		line 453 in file "MCAL_Layer/Interrupt/mcal_external_interrupt.c"
  3186 ;; Parameters:    Size  Location     Type
  3187 ;;  InterruptHan    2    0[BANK0 ] PTR FTN()void 
  3188 ;;		 -> INT2_APP_ISR(1), INT1_APP_ISR(1), INT0_APP_ISR(1), 
  3189 ;; Auto vars:     Size  Location     Type
  3190 ;;  ret             1    0        unsigned char 
  3191 ;; Return value:  Size  Location     Type
  3192 ;;                  1    wreg      unsigned char 
  3193 ;; Registers used:
  3194 ;;		wreg, status,2, status,0
  3195 ;; Tracked objects:
  3196 ;;		On entry : 0/0
  3197 ;;		On exit  : 0/0
  3198 ;;		Unchanged: 0/0
  3199 ;; Data sizes:     COMRAM   BANK0   BANK1   BANK2   BANK3   BANK4   BANK5   BANK6   BANK7   BANK8   BANK9  BANK10  BANK1
      +1  BANK12  BANK13  BANK14  BANK15
  3200 ;;      Params:         0       2       0       0       0       0       0       0       0       0       0       0       
      +0       0       0       0       0
  3201 ;;      Locals:         0       0       0       0       0       0       0       0       0       0       0       0       
      +0       0       0       0       0
  3202 ;;      Temps:          0       0       0       0       0       0       0       0       0       0       0       0       
      +0       0       0       0       0
  3203 ;;      Totals:         0       2       0       0       0       0       0       0       0       0       0       0       
      +0       0       0       0       0
  3204 ;;Total ram usage:        2 bytes
  3205 ;; Hardware stack levels used: 1
  3206 ;; Hardware stack levels required when called: 10
  3207 ;; This function calls:
  3208 ;;		Nothing
  3209 ;; This function is called by:
  3210 ;;		_interrupt_INTx_SetInterruptHandler
  3211 ;; This function uses a non-reentrant model
  3212 ;;
  3213                           
  3214                           	psect	text14
  3215   003BE4                     __ptext14:
  3216                           	callstack 0
  3217   003BE4                     _INT0_SetInterruptHandler:
  3218                           	callstack 17
  3219   003BE4                     
  3220                           ;MCAL_Layer/Interrupt/mcal_external_interrupt.c: 456:     if (InterruptHandler == ((void
      +                          *)0)){
  3221   003BE4  0100               	movlb	0	; () banked
  3222   003BE6  5180               	movf	INT0_SetInterruptHandler@InterruptHandler& (0+255),w,b
  3223   003BE8  1181               	iorwf	(INT0_SetInterruptHandler@InterruptHandler+1)& (0+255),w,b
  3224   003BEA  A4D8               	btfss	status,2,c
  3225   003BEC  EFFA  F01D         	goto	u3581
  3226   003BF0  EFFC  F01D         	goto	u3580
  3227   003BF4                     u3581:
  3228   003BF4  EFFE  F01D         	goto	l4287
  3229   003BF8                     u3580:
  3230   003BF8                     l4285:
  3231                           
  3232                           ; BSR set to: 0
  3233                           ;MCAL_Layer/Interrupt/mcal_external_interrupt.c: 458:     }
  3234   003BF8  EF04  F01E         	goto	l4291
  3235   003BFC                     l4287:
  3236                           
  3237                           ; BSR set to: 0
  3238                           ;MCAL_Layer/Interrupt/mcal_external_interrupt.c: 460:         INT0_InterruptHandler = In
      +                          terruptHandler;
  3239   003BFC  C080  F063         	movff	INT0_SetInterruptHandler@InterruptHandler,_INT0_InterruptHandler
  3240   003C00  C081  F064         	movff	INT0_SetInterruptHandler@InterruptHandler+1,_INT0_InterruptHandler+1
  3241   003C04  EFFC  F01D         	goto	l4285
  3242   003C08                     l4291:
  3243                           
  3244                           ; BSR set to: 0
  3245                           ;MCAL_Layer/Interrupt/mcal_external_interrupt.c: 465:     return ret;
  3246   003C08  0E00               	movlw	0
  3247   003C0A                     
  3248                           ; BSR set to: 0
  3249   003C0A  0012               	return		;funcret
  3250   003C0C                     __end_of_INT0_SetInterruptHandler:
  3251                           	callstack 0
  3252                           
  3253 ;; *************** function _loading_screen *****************
  3254 ;; Defined at:
  3255 ;;		line 110 in file "application.c"
  3256 ;; Parameters:    Size  Location     Type
  3257 ;;		None
  3258 ;; Auto vars:     Size  Location     Type
  3259 ;;  counter1        1   29[BANK0 ] unsigned char 
  3260 ;;  counter2        1   28[BANK0 ] unsigned char 
  3261 ;; Return value:  Size  Location     Type
  3262 ;;                  1    wreg      void 
  3263 ;; Registers used:
  3264 ;;		wreg, fsr0l, fsr0h, fsr2l, fsr2h, status,2, status,0, tblptrl, tblptrh, tblptru, prodl, prodh, cstack
  3265 ;; Tracked objects:
  3266 ;;		On entry : 0/0
  3267 ;;		On exit  : 0/0
  3268 ;;		Unchanged: 0/0
  3269 ;; Data sizes:     COMRAM   BANK0   BANK1   BANK2   BANK3   BANK4   BANK5   BANK6   BANK7   BANK8   BANK9  BANK10  BANK1
      +1  BANK12  BANK13  BANK14  BANK15
  3270 ;;      Params:         0       0       0       0       0       0       0       0       0       0       0       0       
      +0       0       0       0       0
  3271 ;;      Locals:         0       2       0       0       0       0       0       0       0       0       0       0       
      +0       0       0       0       0
  3272 ;;      Temps:          0       2       0       0       0       0       0       0       0       0       0       0       
      +0       0       0       0       0
  3273 ;;      Totals:         0       4       0       0       0       0       0       0       0       0       0       0       
      +0       0       0       0       0
  3274 ;;Total ram usage:        4 bytes
  3275 ;; Hardware stack levels used: 1
  3276 ;; Hardware stack levels required when called: 15
  3277 ;; This function calls:
  3278 ;;		_lcd_4bit_send_char_data_pos
  3279 ;;		_lcd_4bit_send_command
  3280 ;;		_lcd_4bit_send_string_pos
  3281 ;; This function is called by:
  3282 ;;		_main
  3283 ;; This function uses a non-reentrant model
  3284 ;;
  3285                           
  3286                           	psect	text15
  3287   001864                     __ptext15:
  3288                           	callstack 0
  3289   001864                     _loading_screen:
  3290                           	callstack 15
  3291   001864  0E00               	movlw	0
  3292   001866  0100               	movlb	0	; () banked
  3293   001868  6F9C               	movwf	loading_screen@counter2& (0+255),b
  3294   00186A                     
  3295                           ; BSR set to: 0
  3296                           ;application.c: 112:     ret = lcd_4bit_send_string_pos(&lcd, (uint8 *)"Loading", 1, 1);
  3297   00186A  0EC9               	movlw	low _lcd
  3298   00186C  6F94               	movwf	lcd_4bit_send_string_pos@lcd& (0+255),b
  3299   00186E  0E59               	movlw	low STR_5
  3300   001870  6F95               	movwf	lcd_4bit_send_string_pos@str& (0+255),b
  3301   001872  5195               	movf	lcd_4bit_send_string_pos@str& (0+255),w,b
  3302   001874  A4D8               	btfss	status,2,c
  3303   001876  0E10               	movlw	high __smallconst
  3304   001878  6F96               	movwf	(lcd_4bit_send_string_pos@str+1)& (0+255),b
  3305   00187A  0E01               	movlw	1
  3306   00187C  6F97               	movwf	lcd_4bit_send_string_pos@row& (0+255),b
  3307   00187E  0E01               	movlw	1
  3308   001880  6F98               	movwf	lcd_4bit_send_string_pos@column& (0+255),b
  3309   001882  EC92  F013         	call	_lcd_4bit_send_string_pos	;wreg free
  3310   001886  6E7C               	movwf	_ret^0,c
  3311   001888                     
  3312                           ;application.c: 113:     _delay((unsigned long)((200)*(4000000UL/4000.0)));
  3313   001888  0E02               	movlw	2
  3314   00188A  0100               	movlb	0	; () banked
  3315   00188C  6F9B               	movwf	(??_loading_screen+1)& (0+255),b
  3316   00188E  0E04               	movlw	4
  3317   001890  6F9A               	movwf	??_loading_screen& (0+255),b
  3318   001892  0EBA               	movlw	186
  3319   001894                     u7177:
  3320   001894  2EE8               	decfsz	wreg,f,c
  3321   001896  D7FE               	bra	u7177
  3322   001898  2F9A               	decfsz	??_loading_screen& (0+255),f,b
  3323   00189A  D7FC               	bra	u7177
  3324   00189C  2F9B               	decfsz	(??_loading_screen+1)& (0+255),f,b
  3325   00189E  D7FA               	bra	u7177
  3326   0018A0  0000               	nop	
  3327   0018A2                     
  3328                           ;application.c: 114:     for(counter2 = 0; counter2 < 3; counter2++){
  3329   0018A2  0E00               	movlw	0
  3330   0018A4  0100               	movlb	0	; () banked
  3331   0018A6  6F9C               	movwf	loading_screen@counter2& (0+255),b
  3332   0018A8                     l6737:
  3333                           
  3334                           ; BSR set to: 0
  3335                           ;application.c: 115:         for(counter1 = 8; counter1 < 11; counter1++){
  3336   0018A8  0E08               	movlw	8
  3337   0018AA  6F9D               	movwf	loading_screen@counter1& (0+255),b
  3338   0018AC                     l6743:
  3339                           
  3340                           ; BSR set to: 0
  3341                           ;application.c: 116:             ret = lcd_4bit_send_char_data_pos(&lcd, '.', 1, counter
      +                          1);
  3342   0018AC  0EC9               	movlw	low _lcd
  3343   0018AE  6F94               	movwf	lcd_4bit_send_char_data_pos@lcd& (0+255),b
  3344   0018B0  0E2E               	movlw	46
  3345   0018B2  6F95               	movwf	lcd_4bit_send_char_data_pos@data& (0+255),b
  3346   0018B4  0E01               	movlw	1
  3347   0018B6  6F96               	movwf	lcd_4bit_send_char_data_pos@row& (0+255),b
  3348   0018B8  C09D  F097         	movff	loading_screen@counter1,lcd_4bit_send_char_data_pos@column
  3349   0018BC  EC50  F01B         	call	_lcd_4bit_send_char_data_pos	;wreg free
  3350   0018C0  6E7C               	movwf	_ret^0,c
  3351   0018C2                     
  3352                           ;application.c: 117:             _delay((unsigned long)((250)*(4000000UL/4000.0)));
  3353   0018C2  0E02               	movlw	2
  3354   0018C4  0100               	movlb	0	; () banked
  3355   0018C6  6F9B               	movwf	(??_loading_screen+1)& (0+255),b
  3356   0018C8  0E45               	movlw	69
  3357   0018CA  6F9A               	movwf	??_loading_screen& (0+255),b
  3358   0018CC  0EA9               	movlw	169
  3359   0018CE                     u7187:
  3360   0018CE  2EE8               	decfsz	wreg,f,c
  3361   0018D0  D7FE               	bra	u7187
  3362   0018D2  2F9A               	decfsz	??_loading_screen& (0+255),f,b
  3363   0018D4  D7FC               	bra	u7187
  3364   0018D6  2F9B               	decfsz	(??_loading_screen+1)& (0+255),f,b
  3365   0018D8  D7FA               	bra	u7187
  3366   0018DA  D000               	nop2	
  3367   0018DC                     
  3368                           ;application.c: 118:         }
  3369   0018DC  0100               	movlb	0	; () banked
  3370   0018DE  2B9D               	incf	loading_screen@counter1& (0+255),f,b
  3371   0018E0                     
  3372                           ; BSR set to: 0
  3373   0018E0  0E0A               	movlw	10
  3374   0018E2  659D               	cpfsgt	loading_screen@counter1& (0+255),b
  3375   0018E4  EF76  F00C         	goto	u6501
  3376   0018E8  EF78  F00C         	goto	u6500
  3377   0018EC                     u6501:
  3378   0018EC  EF56  F00C         	goto	l6743
  3379   0018F0                     u6500:
  3380   0018F0                     
  3381                           ; BSR set to: 0
  3382                           ;application.c: 119:         ret = lcd_4bit_send_string_pos(&lcd, (uint8 *)"   ", 1, 8);
  3383   0018F0  0EC9               	movlw	low _lcd
  3384   0018F2  6F94               	movwf	lcd_4bit_send_string_pos@lcd& (0+255),b
  3385   0018F4  0E61               	movlw	low STR_6
  3386   0018F6  6F95               	movwf	lcd_4bit_send_string_pos@str& (0+255),b
  3387   0018F8  5195               	movf	lcd_4bit_send_string_pos@str& (0+255),w,b
  3388   0018FA  A4D8               	btfss	status,2,c
  3389   0018FC  0E10               	movlw	high __smallconst
  3390   0018FE  6F96               	movwf	(lcd_4bit_send_string_pos@str+1)& (0+255),b
  3391   001900  0E01               	movlw	1
  3392   001902  6F97               	movwf	lcd_4bit_send_string_pos@row& (0+255),b
  3393   001904  0E08               	movlw	8
  3394   001906  6F98               	movwf	lcd_4bit_send_string_pos@column& (0+255),b
  3395   001908  EC92  F013         	call	_lcd_4bit_send_string_pos	;wreg free
  3396   00190C  6E7C               	movwf	_ret^0,c
  3397   00190E                     
  3398                           ;application.c: 120:         _delay((unsigned long)((250)*(4000000UL/4000.0)));
  3399   00190E  0E02               	movlw	2
  3400   001910  0100               	movlb	0	; () banked
  3401   001912  6F9B               	movwf	(??_loading_screen+1)& (0+255),b
  3402   001914  0E45               	movlw	69
  3403   001916  6F9A               	movwf	??_loading_screen& (0+255),b
  3404   001918  0EA9               	movlw	169
  3405   00191A                     u7197:
  3406   00191A  2EE8               	decfsz	wreg,f,c
  3407   00191C  D7FE               	bra	u7197
  3408   00191E  2F9A               	decfsz	??_loading_screen& (0+255),f,b
  3409   001920  D7FC               	bra	u7197
  3410   001922  2F9B               	decfsz	(??_loading_screen+1)& (0+255),f,b
  3411   001924  D7FA               	bra	u7197
  3412   001926  D000               	nop2	
  3413   001928                     
  3414                           ;application.c: 121:     }
  3415   001928  0100               	movlb	0	; () banked
  3416   00192A  2B9C               	incf	loading_screen@counter2& (0+255),f,b
  3417   00192C                     
  3418                           ; BSR set to: 0
  3419   00192C  0E02               	movlw	2
  3420   00192E  659C               	cpfsgt	loading_screen@counter2& (0+255),b
  3421   001930  EF9C  F00C         	goto	u6511
  3422   001934  EF9E  F00C         	goto	u6510
  3423   001938                     u6511:
  3424   001938  EF54  F00C         	goto	l6737
  3425   00193C                     u6510:
  3426   00193C                     
  3427                           ; BSR set to: 0
  3428                           ;application.c: 122:     ret = lcd_4bit_send_command(&lcd, 0x01);
  3429   00193C  0EC9               	movlw	low _lcd
  3430   00193E  6F8D               	movwf	lcd_4bit_send_command@lcd& (0+255),b
  3431   001940  0E01               	movlw	1
  3432   001942  6F8E               	movwf	lcd_4bit_send_command@command& (0+255),b
  3433   001944  EC7F  F019         	call	_lcd_4bit_send_command	;wreg free
  3434   001948  6E7C               	movwf	_ret^0,c
  3435   00194A                     
  3436                           ;application.c: 123:     _delay((unsigned long)((100)*(4000000UL/4000.0)));
  3437   00194A  0E82               	movlw	130
  3438   00194C  0100               	movlb	0	; () banked
  3439   00194E  6F9A               	movwf	??_loading_screen& (0+255),b
  3440   001950  0EDD               	movlw	221
  3441   001952                     u7207:
  3442   001952  2EE8               	decfsz	wreg,f,c
  3443   001954  D7FE               	bra	u7207
  3444   001956  2F9A               	decfsz	??_loading_screen& (0+255),f,b
  3445   001958  D7FC               	bra	u7207
  3446   00195A  D000               	nop2	
  3447   00195C                     
  3448                           ;application.c: 124:     ret = lcd_4bit_send_string_pos(&lcd, (uint8 *)"Voting is ready"
      +                          , 1, 1);
  3449   00195C  0EC9               	movlw	low _lcd
  3450   00195E  0100               	movlb	0	; () banked
  3451   001960  6F94               	movwf	lcd_4bit_send_string_pos@lcd& (0+255),b
  3452   001962  0E41               	movlw	low STR_7
  3453   001964  6F95               	movwf	lcd_4bit_send_string_pos@str& (0+255),b
  3454   001966  5195               	movf	lcd_4bit_send_string_pos@str& (0+255),w,b
  3455   001968  A4D8               	btfss	status,2,c
  3456   00196A  0E10               	movlw	high __smallconst
  3457   00196C  6F96               	movwf	(lcd_4bit_send_string_pos@str+1)& (0+255),b
  3458   00196E  0E01               	movlw	1
  3459   001970  6F97               	movwf	lcd_4bit_send_string_pos@row& (0+255),b
  3460   001972  0E01               	movlw	1
  3461   001974  6F98               	movwf	lcd_4bit_send_string_pos@column& (0+255),b
  3462   001976  EC92  F013         	call	_lcd_4bit_send_string_pos	;wreg free
  3463   00197A  6E7C               	movwf	_ret^0,c
  3464   00197C                     
  3465                           ;application.c: 125:     _delay((unsigned long)((750)*(4000000UL/4000.0)));
  3466   00197C  0E04               	movlw	4
  3467   00197E  0100               	movlb	0	; () banked
  3468   001980  6F9B               	movwf	(??_loading_screen+1)& (0+255),b
  3469   001982  0ECF               	movlw	207
  3470   001984  6F9A               	movwf	??_loading_screen& (0+255),b
  3471   001986  0E01               	movlw	1
  3472   001988                     u7217:
  3473   001988  2EE8               	decfsz	wreg,f,c
  3474   00198A  D7FE               	bra	u7217
  3475   00198C  2F9A               	decfsz	??_loading_screen& (0+255),f,b
  3476   00198E  D7FC               	bra	u7217
  3477   001990  2F9B               	decfsz	(??_loading_screen+1)& (0+255),f,b
  3478   001992  D7FA               	bra	u7217
  3479   001994  D000               	nop2	
  3480   001996                     
  3481                           ;application.c: 126:     ret = lcd_4bit_send_command(&lcd, 0x01);
  3482   001996  0EC9               	movlw	low _lcd
  3483   001998  0100               	movlb	0	; () banked
  3484   00199A  6F8D               	movwf	lcd_4bit_send_command@lcd& (0+255),b
  3485   00199C  0E01               	movlw	1
  3486   00199E  6F8E               	movwf	lcd_4bit_send_command@command& (0+255),b
  3487   0019A0  EC7F  F019         	call	_lcd_4bit_send_command	;wreg free
  3488   0019A4  6E7C               	movwf	_ret^0,c
  3489   0019A6  0012               	return		;funcret
  3490   0019A8                     __end_of_loading_screen:
  3491                           	callstack 0
  3492                           
  3493 ;; *************** function _lcd_4bit_send_char_data_pos *****************
  3494 ;; Defined at:
  3495 ;;		line 109 in file "ECU_Layer/LCD/ecu_lcd.c"
  3496 ;; Parameters:    Size  Location     Type
  3497 ;;  lcd             1   20[BANK0 ] PTR const struct .
  3498 ;;		 -> lcd(6), 
  3499 ;;  data            1   21[BANK0 ] unsigned char 
  3500 ;;  row             1   22[BANK0 ] unsigned char 
  3501 ;;  column          1   23[BANK0 ] unsigned char 
  3502 ;; Auto vars:     Size  Location     Type
  3503 ;;  ret             1   24[BANK0 ] unsigned char 
  3504 ;; Return value:  Size  Location     Type
  3505 ;;                  1    wreg      unsigned char 
  3506 ;; Registers used:
  3507 ;;		wreg, fsr2l, fsr2h, status,2, status,0, prodl, prodh, cstack
  3508 ;; Tracked objects:
  3509 ;;		On entry : 0/0
  3510 ;;		On exit  : 0/0
  3511 ;;		Unchanged: 0/0
  3512 ;; Data sizes:     COMRAM   BANK0   BANK1   BANK2   BANK3   BANK4   BANK5   BANK6   BANK7   BANK8   BANK9  BANK10  BANK1
      +1  BANK12  BANK13  BANK14  BANK15
  3513 ;;      Params:         0       4       0       0       0       0       0       0       0       0       0       0       
      +0       0       0       0       0
  3514 ;;      Locals:         0       1       0       0       0       0       0       0       0       0       0       0       
      +0       0       0       0       0
  3515 ;;      Temps:          0       0       0       0       0       0       0       0       0       0       0       0       
      +0       0       0       0       0
  3516 ;;      Totals:         0       5       0       0       0       0       0       0       0       0       0       0       
      +0       0       0       0       0
  3517 ;;Total ram usage:        5 bytes
  3518 ;; Hardware stack levels used: 1
  3519 ;; Hardware stack levels required when called: 14
  3520 ;; This function calls:
  3521 ;;		_lcd_4bit_send_char_data
  3522 ;;		_lcd_4bit_set_cursor
  3523 ;; This function is called by:
  3524 ;;		_loading_screen
  3525 ;;		_lcd_4bit_send_custom_char
  3526 ;; This function uses a non-reentrant model
  3527 ;;
  3528                           
  3529                           	psect	text16
  3530   0036A0                     __ptext16:
  3531                           	callstack 0
  3532   0036A0                     _lcd_4bit_send_char_data_pos:
  3533                           	callstack 15
  3534   0036A0                     
  3535                           ;ECU_Layer/LCD/ecu_lcd.c: 112:     if (lcd == ((void*)0)){
  3536   0036A0  0100               	movlb	0	; () banked
  3537   0036A2  5194               	movf	lcd_4bit_send_char_data_pos@lcd& (0+255),w,b
  3538   0036A4  A4D8               	btfss	status,2,c
  3539   0036A6  EF57  F01B         	goto	u6061
  3540   0036AA  EF59  F01B         	goto	u6060
  3541   0036AE                     u6061:
  3542   0036AE  EF5D  F01B         	goto	l6415
  3543   0036B2                     u6060:
  3544   0036B2                     
  3545                           ; BSR set to: 0
  3546                           ;ECU_Layer/LCD/ecu_lcd.c: 113:         ret = (Std_ReturnType)0x00;
  3547   0036B2  0E00               	movlw	0
  3548   0036B4  6F98               	movwf	lcd_4bit_send_char_data_pos@ret& (0+255),b
  3549                           
  3550                           ;ECU_Layer/LCD/ecu_lcd.c: 114:     }
  3551   0036B6  EF71  F01B         	goto	l6419
  3552   0036BA                     l6415:
  3553                           
  3554                           ; BSR set to: 0
  3555                           ;ECU_Layer/LCD/ecu_lcd.c: 116:         ret = lcd_4bit_set_cursor(lcd, row, column);
  3556   0036BA  C094  F090         	movff	lcd_4bit_send_char_data_pos@lcd,lcd_4bit_set_cursor@lcd
  3557   0036BE  C096  F091         	movff	lcd_4bit_send_char_data_pos@row,lcd_4bit_set_cursor@row
  3558   0036C2  C097  F092         	movff	lcd_4bit_send_char_data_pos@column,lcd_4bit_set_cursor@column
  3559   0036C6  EC32  F016         	call	_lcd_4bit_set_cursor	;wreg free
  3560   0036CA  0100               	movlb	0	; () banked
  3561   0036CC  6F98               	movwf	lcd_4bit_send_char_data_pos@ret& (0+255),b
  3562                           
  3563                           ;ECU_Layer/LCD/ecu_lcd.c: 117:         ret = lcd_4bit_send_char_data(lcd, data);
  3564   0036CE  C094  F08D         	movff	lcd_4bit_send_char_data_pos@lcd,lcd_4bit_send_char_data@lcd
  3565   0036D2  C095  F08E         	movff	lcd_4bit_send_char_data_pos@data,lcd_4bit_send_char_data@data
  3566   0036D6  ECB6  F019         	call	_lcd_4bit_send_char_data	;wreg free
  3567   0036DA  0100               	movlb	0	; () banked
  3568   0036DC  6F98               	movwf	lcd_4bit_send_char_data_pos@ret& (0+255),b
  3569   0036DE                     
  3570                           ; BSR set to: 0
  3571                           ;ECU_Layer/LCD/ecu_lcd.c: 118:         ret = (Std_ReturnType)0x01;
  3572   0036DE  0E01               	movlw	1
  3573   0036E0  6F98               	movwf	lcd_4bit_send_char_data_pos@ret& (0+255),b
  3574   0036E2                     l6419:
  3575                           
  3576                           ; BSR set to: 0
  3577                           ;ECU_Layer/LCD/ecu_lcd.c: 121:     return ret;
  3578   0036E2  5198               	movf	lcd_4bit_send_char_data_pos@ret& (0+255),w,b
  3579   0036E4                     
  3580                           ; BSR set to: 0
  3581   0036E4  0012               	return		;funcret
  3582   0036E6                     __end_of_lcd_4bit_send_char_data_pos:
  3583                           	callstack 0
  3584                           
  3585 ;; *************** function _ecu_initialize *****************
  3586 ;; Defined at:
  3587 ;;		line 91 in file "ECU_Layer/ecu_init.c"
  3588 ;; Parameters:    Size  Location     Type
  3589 ;;		None
  3590 ;; Auto vars:     Size  Location     Type
  3591 ;;  ret             1   20[BANK0 ] unsigned char 
  3592 ;; Return value:  Size  Location     Type
  3593 ;;                  1    wreg      void 
  3594 ;; Registers used:
  3595 ;;		wreg, fsr2l, fsr2h, status,2, status,0, prodl, prodh, cstack
  3596 ;; Tracked objects:
  3597 ;;		On entry : 0/0
  3598 ;;		On exit  : 0/0
  3599 ;;		Unchanged: 0/0
  3600 ;; Data sizes:     COMRAM   BANK0   BANK1   BANK2   BANK3   BANK4   BANK5   BANK6   BANK7   BANK8   BANK9  BANK10  BANK1
      +1  BANK12  BANK13  BANK14  BANK15
  3601 ;;      Params:         0       0       0       0       0       0       0       0       0       0       0       0       
      +0       0       0       0       0
  3602 ;;      Locals:         0       1       0       0       0       0       0       0       0       0       0       0       
      +0       0       0       0       0
  3603 ;;      Temps:          0       0       0       0       0       0       0       0       0       0       0       0       
      +0       0       0       0       0
  3604 ;;      Totals:         0       1       0       0       0       0       0       0       0       0       0       0       
      +0       0       0       0       0
  3605 ;;Total ram usage:        1 bytes
  3606 ;; Hardware stack levels used: 1
  3607 ;; Hardware stack levels required when called: 14
  3608 ;; This function calls:
  3609 ;;		_button_initialize
  3610 ;;		_lcd_4bit_initialize
  3611 ;; This function is called by:
  3612 ;;		_main
  3613 ;; This function uses a non-reentrant model
  3614 ;;
  3615                           
  3616                           	psect	text17
  3617   003554                     __ptext17:
  3618                           	callstack 0
  3619   003554                     _ecu_initialize:
  3620                           	callstack 16
  3621   003554                     
  3622                           ;ECU_Layer/ecu_init.c: 93:     ret = lcd_4bit_initialize(&lcd);
  3623   003554  0EC9               	movlw	low _lcd
  3624   003556  0100               	movlb	0	; () banked
  3625   003558  6F90               	movwf	lcd_4bit_initialize@lcd& (0+255),b
  3626   00355A  EC4C  F00F         	call	_lcd_4bit_initialize	;wreg free
  3627   00355E  0100               	movlb	0	; () banked
  3628   003560  6F94               	movwf	ecu_initialize@ret& (0+255),b
  3629   003562                     
  3630                           ; BSR set to: 0
  3631                           ;ECU_Layer/ecu_init.c: 94:     ret &= button_initialize(&btn1);
  3632   003562  0EDE               	movlw	low _btn1
  3633   003564  6F88               	movwf	button_initialize@btn& (0+255),b
  3634   003566  EC41  F01D         	call	_button_initialize	;wreg free
  3635   00356A  0100               	movlb	0	; () banked
  3636   00356C  1794               	andwf	ecu_initialize@ret& (0+255),f,b
  3637   00356E                     
  3638                           ; BSR set to: 0
  3639                           ;ECU_Layer/ecu_init.c: 95:     ret &= button_initialize(&btn2);
  3640   00356E  0EDB               	movlw	low _btn2
  3641   003570  6F88               	movwf	button_initialize@btn& (0+255),b
  3642   003572  EC41  F01D         	call	_button_initialize	;wreg free
  3643   003576  0100               	movlb	0	; () banked
  3644   003578  1794               	andwf	ecu_initialize@ret& (0+255),f,b
  3645   00357A                     
  3646                           ; BSR set to: 0
  3647                           ;ECU_Layer/ecu_init.c: 96:     ret &= button_initialize(&btn3);
  3648   00357A  0ED8               	movlw	low _btn3
  3649   00357C  6F88               	movwf	button_initialize@btn& (0+255),b
  3650   00357E  EC41  F01D         	call	_button_initialize	;wreg free
  3651   003582  0100               	movlb	0	; () banked
  3652   003584  1794               	andwf	ecu_initialize@ret& (0+255),f,b
  3653   003586                     
  3654                           ; BSR set to: 0
  3655                           ;ECU_Layer/ecu_init.c: 97:     ret &= button_initialize(&btn4);
  3656   003586  0ED5               	movlw	low _btn4
  3657   003588  6F88               	movwf	button_initialize@btn& (0+255),b
  3658   00358A  EC41  F01D         	call	_button_initialize	;wreg free
  3659   00358E  0100               	movlb	0	; () banked
  3660   003590  1794               	andwf	ecu_initialize@ret& (0+255),f,b
  3661   003592                     
  3662                           ; BSR set to: 0
  3663                           ;ECU_Layer/ecu_init.c: 98:     ret &= button_initialize(&btn5);
  3664   003592  0ED2               	movlw	low _btn5
  3665   003594  6F88               	movwf	button_initialize@btn& (0+255),b
  3666   003596  EC41  F01D         	call	_button_initialize	;wreg free
  3667   00359A  0100               	movlb	0	; () banked
  3668   00359C  1794               	andwf	ecu_initialize@ret& (0+255),f,b
  3669   00359E                     
  3670                           ; BSR set to: 0
  3671                           ;ECU_Layer/ecu_init.c: 99:     ret &= button_initialize(&btn6);
  3672   00359E  0ECF               	movlw	low _btn6
  3673   0035A0  6F88               	movwf	button_initialize@btn& (0+255),b
  3674   0035A2  EC41  F01D         	call	_button_initialize	;wreg free
  3675   0035A6  0100               	movlb	0	; () banked
  3676   0035A8  1794               	andwf	ecu_initialize@ret& (0+255),f,b
  3677   0035AA                     
  3678                           ; BSR set to: 0
  3679   0035AA  0012               	return		;funcret
  3680   0035AC                     __end_of_ecu_initialize:
  3681                           	callstack 0
  3682                           
  3683 ;; *************** function _lcd_4bit_initialize *****************
  3684 ;; Defined at:
  3685 ;;		line 21 in file "ECU_Layer/LCD/ecu_lcd.c"
  3686 ;; Parameters:    Size  Location     Type
  3687 ;;  lcd             1   16[BANK0 ] PTR const struct .
  3688 ;;		 -> lcd(6), 
  3689 ;; Auto vars:     Size  Location     Type
  3690 ;;  data_pins_co    1   18[BANK0 ] unsigned char 
  3691 ;;  ret             1   19[BANK0 ] unsigned char 
  3692 ;; Return value:  Size  Location     Type
  3693 ;;                  1    wreg      unsigned char 
  3694 ;; Registers used:
  3695 ;;		wreg, fsr2l, fsr2h, status,2, status,0, prodl, prodh, cstack
  3696 ;; Tracked objects:
  3697 ;;		On entry : 0/0
  3698 ;;		On exit  : 0/0
  3699 ;;		Unchanged: 0/0
  3700 ;; Data sizes:     COMRAM   BANK0   BANK1   BANK2   BANK3   BANK4   BANK5   BANK6   BANK7   BANK8   BANK9  BANK10  BANK1
      +1  BANK12  BANK13  BANK14  BANK15
  3701 ;;      Params:         0       1       0       0       0       0       0       0       0       0       0       0       
      +0       0       0       0       0
  3702 ;;      Locals:         0       2       0       0       0       0       0       0       0       0       0       0       
      +0       0       0       0       0
  3703 ;;      Temps:          0       1       0       0       0       0       0       0       0       0       0       0       
      +0       0       0       0       0
  3704 ;;      Totals:         0       4       0       0       0       0       0       0       0       0       0       0       
      +0       0       0       0       0
  3705 ;;Total ram usage:        4 bytes
  3706 ;; Hardware stack levels used: 1
  3707 ;; Hardware stack levels required when called: 13
  3708 ;; This function calls:
  3709 ;;		_gpio_pin_initialize
  3710 ;;		_lcd_4bit_send_command
  3711 ;; This function is called by:
  3712 ;;		_ecu_initialize
  3713 ;; This function uses a non-reentrant model
  3714 ;;
  3715                           
  3716                           	psect	text18
  3717   001E98                     __ptext18:
  3718                           	callstack 0
  3719   001E98                     _lcd_4bit_initialize:
  3720                           	callstack 16
  3721   001E98                     
  3722                           ;ECU_Layer/LCD/ecu_lcd.c: 24:     if (lcd == ((void*)0)){
  3723   001E98  0100               	movlb	0	; () banked
  3724   001E9A  5190               	movf	lcd_4bit_initialize@lcd& (0+255),w,b
  3725   001E9C  A4D8               	btfss	status,2,c
  3726   001E9E  EF53  F00F         	goto	u6041
  3727   001EA2  EF55  F00F         	goto	u6040
  3728   001EA6                     u6041:
  3729   001EA6  EF59  F00F         	goto	l6365
  3730   001EAA                     u6040:
  3731   001EAA                     
  3732                           ; BSR set to: 0
  3733                           ;ECU_Layer/LCD/ecu_lcd.c: 25:         ret = (Std_ReturnType)0x00;
  3734   001EAA  0E00               	movlw	0
  3735   001EAC  6F93               	movwf	lcd_4bit_initialize@ret& (0+255),b
  3736                           
  3737                           ;ECU_Layer/LCD/ecu_lcd.c: 26:     }
  3738   001EAE  EFDE  F00F         	goto	l6407
  3739   001EB2                     l6365:
  3740                           
  3741                           ; BSR set to: 0
  3742                           ;ECU_Layer/LCD/ecu_lcd.c: 28:         ret = gpio_pin_initialize(&(lcd->lcd_rs));
  3743   001EB2  C090  F089         	movff	lcd_4bit_initialize@lcd,gpio_pin_initialize@pin_config
  3744   001EB6  6B8A               	clrf	(gpio_pin_initialize@pin_config+1)& (0+255),b
  3745   001EB8  ECD0  F018         	call	_gpio_pin_initialize	;wreg free
  3746   001EBC  0100               	movlb	0	; () banked
  3747   001EBE  6F93               	movwf	lcd_4bit_initialize@ret& (0+255),b
  3748                           
  3749                           ;ECU_Layer/LCD/ecu_lcd.c: 29:         ret = gpio_pin_initialize(&(lcd->lcd_en));
  3750   001EC0  C090  F091         	movff	lcd_4bit_initialize@lcd,??_lcd_4bit_initialize
  3751   001EC4  0E01               	movlw	1
  3752   001EC6  2791               	addwf	??_lcd_4bit_initialize& (0+255),f,b
  3753   001EC8  C091  F089         	movff	??_lcd_4bit_initialize,gpio_pin_initialize@pin_config
  3754   001ECC  6B8A               	clrf	(gpio_pin_initialize@pin_config+1)& (0+255),b
  3755   001ECE  ECD0  F018         	call	_gpio_pin_initialize	;wreg free
  3756   001ED2  0100               	movlb	0	; () banked
  3757   001ED4  6F93               	movwf	lcd_4bit_initialize@ret& (0+255),b
  3758   001ED6                     
  3759                           ; BSR set to: 0
  3760                           ;ECU_Layer/LCD/ecu_lcd.c: 31:         for(data_pins_counter = 0; data_pins_counter < 4; 
      +                          data_pins_counter++){
  3761   001ED6  0E00               	movlw	0
  3762   001ED8  6F92               	movwf	lcd_4bit_initialize@data_pins_counter& (0+255),b
  3763   001EDA                     l6375:
  3764                           
  3765                           ; BSR set to: 0
  3766   001EDA  5190               	movf	lcd_4bit_initialize@lcd& (0+255),w,b
  3767   001EDC  2592               	addwf	lcd_4bit_initialize@data_pins_counter& (0+255),w,b
  3768   001EDE  6F91               	movwf	??_lcd_4bit_initialize& (0+255),b
  3769   001EE0  0E02               	movlw	2
  3770   001EE2  2791               	addwf	??_lcd_4bit_initialize& (0+255),f,b
  3771   001EE4  C091  F089         	movff	??_lcd_4bit_initialize,gpio_pin_initialize@pin_config
  3772   001EE8  6B8A               	clrf	(gpio_pin_initialize@pin_config+1)& (0+255),b
  3773   001EEA  ECD0  F018         	call	_gpio_pin_initialize	;wreg free
  3774   001EEE                     
  3775                           ;ECU_Layer/LCD/ecu_lcd.c: 33:         }
  3776   001EEE  0100               	movlb	0	; () banked
  3777   001EF0  2B92               	incf	lcd_4bit_initialize@data_pins_counter& (0+255),f,b
  3778   001EF2                     
  3779                           ; BSR set to: 0
  3780   001EF2  0E03               	movlw	3
  3781   001EF4  6592               	cpfsgt	lcd_4bit_initialize@data_pins_counter& (0+255),b
  3782   001EF6  EF7F  F00F         	goto	u6051
  3783   001EFA  EF81  F00F         	goto	u6050
  3784   001EFE                     u6051:
  3785   001EFE  EF6D  F00F         	goto	l6375
  3786   001F02                     u6050:
  3787   001F02                     
  3788                           ; BSR set to: 0
  3789                           ;ECU_Layer/LCD/ecu_lcd.c: 34:         _delay((unsigned long)((20)*(4000000UL/4000.0)));
  3790   001F02  0E1A               	movlw	26
  3791   001F04  0100               	movlb	0	; () banked
  3792   001F06  6F91               	movwf	??_lcd_4bit_initialize& (0+255),b
  3793   001F08  0EF8               	movlw	248
  3794   001F0A                     u7227:
  3795   001F0A  2EE8               	decfsz	wreg,f,c
  3796   001F0C  D7FE               	bra	u7227
  3797   001F0E  2F91               	decfsz	??_lcd_4bit_initialize& (0+255),f,b
  3798   001F10  D7FC               	bra	u7227
  3799   001F12  0000               	nop	
  3800   001F14  C090  F08D         	movff	lcd_4bit_initialize@lcd,lcd_4bit_send_command@lcd
  3801   001F18  0E38               	movlw	56
  3802   001F1A  0100               	movlb	0	; () banked
  3803   001F1C  6F8E               	movwf	lcd_4bit_send_command@command& (0+255),b
  3804   001F1E  EC7F  F019         	call	_lcd_4bit_send_command	;wreg free
  3805   001F22                     
  3806                           ;ECU_Layer/LCD/ecu_lcd.c: 36:         _delay((unsigned long)((5)*(4000000UL/4000.0)));
  3807   001F22  0E07               	movlw	7
  3808   001F24  0100               	movlb	0	; () banked
  3809   001F26  6F91               	movwf	??_lcd_4bit_initialize& (0+255),b
  3810   001F28  0E7D               	movlw	125
  3811   001F2A                     u7237:
  3812   001F2A  2EE8               	decfsz	wreg,f,c
  3813   001F2C  D7FE               	bra	u7237
  3814   001F2E  2F91               	decfsz	??_lcd_4bit_initialize& (0+255),f,b
  3815   001F30  D7FC               	bra	u7237
  3816   001F32  C090  F08D         	movff	lcd_4bit_initialize@lcd,lcd_4bit_send_command@lcd
  3817   001F36  0E38               	movlw	56
  3818   001F38  0100               	movlb	0	; () banked
  3819   001F3A  6F8E               	movwf	lcd_4bit_send_command@command& (0+255),b
  3820   001F3C  EC7F  F019         	call	_lcd_4bit_send_command	;wreg free
  3821   001F40                     
  3822                           ;ECU_Layer/LCD/ecu_lcd.c: 38:         _delay((unsigned long)((150)*(4000000UL/4000000.0)
      +                          ));
  3823   001F40  0E32               	movlw	50
  3824   001F42                     u7247:
  3825   001F42  2EE8               	decfsz	wreg,f,c
  3826   001F44  D7FE               	bra	u7247
  3827   001F46  C090  F08D         	movff	lcd_4bit_initialize@lcd,lcd_4bit_send_command@lcd
  3828   001F4A  0E38               	movlw	56
  3829   001F4C  0100               	movlb	0	; () banked
  3830   001F4E  6F8E               	movwf	lcd_4bit_send_command@command& (0+255),b
  3831   001F50  EC7F  F019         	call	_lcd_4bit_send_command	;wreg free
  3832   001F54  C090  F08D         	movff	lcd_4bit_initialize@lcd,lcd_4bit_send_command@lcd
  3833   001F58  0E01               	movlw	1
  3834   001F5A  0100               	movlb	0	; () banked
  3835   001F5C  6F8E               	movwf	lcd_4bit_send_command@command& (0+255),b
  3836   001F5E  EC7F  F019         	call	_lcd_4bit_send_command	;wreg free
  3837   001F62  C090  F08D         	movff	lcd_4bit_initialize@lcd,lcd_4bit_send_command@lcd
  3838   001F66  0E02               	movlw	2
  3839   001F68  0100               	movlb	0	; () banked
  3840   001F6A  6F8E               	movwf	lcd_4bit_send_command@command& (0+255),b
  3841   001F6C  EC7F  F019         	call	_lcd_4bit_send_command	;wreg free
  3842   001F70  C090  F08D         	movff	lcd_4bit_initialize@lcd,lcd_4bit_send_command@lcd
  3843   001F74  0E06               	movlw	6
  3844   001F76  0100               	movlb	0	; () banked
  3845   001F78  6F8E               	movwf	lcd_4bit_send_command@command& (0+255),b
  3846   001F7A  EC7F  F019         	call	_lcd_4bit_send_command	;wreg free
  3847   001F7E  C090  F08D         	movff	lcd_4bit_initialize@lcd,lcd_4bit_send_command@lcd
  3848   001F82  0E0C               	movlw	12
  3849   001F84  0100               	movlb	0	; () banked
  3850   001F86  6F8E               	movwf	lcd_4bit_send_command@command& (0+255),b
  3851   001F88  EC7F  F019         	call	_lcd_4bit_send_command	;wreg free
  3852   001F8C  C090  F08D         	movff	lcd_4bit_initialize@lcd,lcd_4bit_send_command@lcd
  3853   001F90  0E40               	movlw	64
  3854   001F92  0100               	movlb	0	; () banked
  3855   001F94  6F8E               	movwf	lcd_4bit_send_command@command& (0+255),b
  3856   001F96  EC7F  F019         	call	_lcd_4bit_send_command	;wreg free
  3857   001F9A  C090  F08D         	movff	lcd_4bit_initialize@lcd,lcd_4bit_send_command@lcd
  3858   001F9E  0E80               	movlw	128
  3859   001FA0  0100               	movlb	0	; () banked
  3860   001FA2  6F8E               	movwf	lcd_4bit_send_command@command& (0+255),b
  3861   001FA4  EC7F  F019         	call	_lcd_4bit_send_command	;wreg free
  3862   001FA8  C090  F08D         	movff	lcd_4bit_initialize@lcd,lcd_4bit_send_command@lcd
  3863   001FAC  0E28               	movlw	40
  3864   001FAE  0100               	movlb	0	; () banked
  3865   001FB0  6F8E               	movwf	lcd_4bit_send_command@command& (0+255),b
  3866   001FB2  EC7F  F019         	call	_lcd_4bit_send_command	;wreg free
  3867   001FB6                     
  3868                           ;ECU_Layer/LCD/ecu_lcd.c: 47:         ret = (Std_ReturnType)0x01;
  3869   001FB6  0E01               	movlw	1
  3870   001FB8  0100               	movlb	0	; () banked
  3871   001FBA  6F93               	movwf	lcd_4bit_initialize@ret& (0+255),b
  3872   001FBC                     l6407:
  3873                           
  3874                           ; BSR set to: 0
  3875                           ;ECU_Layer/LCD/ecu_lcd.c: 50:     return ret;
  3876   001FBC  5193               	movf	lcd_4bit_initialize@ret& (0+255),w,b
  3877   001FBE                     
  3878                           ; BSR set to: 0
  3879   001FBE  0012               	return		;funcret
  3880   001FC0                     __end_of_lcd_4bit_initialize:
  3881                           	callstack 0
  3882                           
  3883 ;; *************** function _gpio_pin_initialize *****************
  3884 ;; Defined at:
  3885 ;;		line 162 in file "MCAL_Layer/GPIO/hal_gpio.c"
  3886 ;; Parameters:    Size  Location     Type
  3887 ;;  pin_config      2    9[BANK0 ] PTR const struct .
  3888 ;;		 -> int2_obj(6), int1_obj(6), int0_obj(6), lcd$lcd_data(4), 
  3889 ;;		 -> lcd(6), 
  3890 ;; Auto vars:     Size  Location     Type
  3891 ;;  ret             1   12[BANK0 ] unsigned char 
  3892 ;; Return value:  Size  Location     Type
  3893 ;;                  1    wreg      unsigned char 
  3894 ;; Registers used:
  3895 ;;		wreg, fsr2l, fsr2h, status,2, status,0, prodl, prodh, cstack
  3896 ;; Tracked objects:
  3897 ;;		On entry : 0/0
  3898 ;;		On exit  : 0/0
  3899 ;;		Unchanged: 0/0
  3900 ;; Data sizes:     COMRAM   BANK0   BANK1   BANK2   BANK3   BANK4   BANK5   BANK6   BANK7   BANK8   BANK9  BANK10  BANK1
      +1  BANK12  BANK13  BANK14  BANK15
  3901 ;;      Params:         0       2       0       0       0       0       0       0       0       0       0       0       
      +0       0       0       0       0
  3902 ;;      Locals:         0       1       0       0       0       0       0       0       0       0       0       0       
      +0       0       0       0       0
  3903 ;;      Temps:          0       1       0       0       0       0       0       0       0       0       0       0       
      +0       0       0       0       0
  3904 ;;      Totals:         0       4       0       0       0       0       0       0       0       0       0       0       
      +0       0       0       0       0
  3905 ;;Total ram usage:        4 bytes
  3906 ;; Hardware stack levels used: 1
  3907 ;; Hardware stack levels required when called: 11
  3908 ;; This function calls:
  3909 ;;		_gpio_pin_direction_initialize
  3910 ;;		_gpio_pin_write_logic
  3911 ;; This function is called by:
  3912 ;;		_lcd_4bit_initialize
  3913 ;;		_interrupt_INTx_pin_init
  3914 ;;		_lcd_8bit_initialize
  3915 ;; This function uses a non-reentrant model
  3916 ;;
  3917                           
  3918                           	psect	text19
  3919   0031A0                     __ptext19:
  3920                           	callstack 0
  3921   0031A0                     _gpio_pin_initialize:
  3922                           	callstack 16
  3923   0031A0                     
  3924                           ;MCAL_Layer/GPIO/hal_gpio.c: 165:     if ((pin_config == ((void*)0)) || (pin_config->pin
      +                           > 8 - 1)){
  3925   0031A0  0100               	movlb	0	; () banked
  3926   0031A2  5189               	movf	gpio_pin_initialize@pin_config& (0+255),w,b
  3927   0031A4  118A               	iorwf	(gpio_pin_initialize@pin_config+1)& (0+255),w,b
  3928   0031A6  B4D8               	btfsc	status,2,c
  3929   0031A8  EFD8  F018         	goto	u5701
  3930   0031AC  EFDA  F018         	goto	u5700
  3931   0031B0                     u5701:
  3932   0031B0  EFEB  F018         	goto	l6055
  3933   0031B4                     u5700:
  3934   0031B4                     
  3935                           ; BSR set to: 0
  3936   0031B4  C089  FFD9         	movff	gpio_pin_initialize@pin_config,fsr2l
  3937   0031B8  C08A  FFDA         	movff	gpio_pin_initialize@pin_config+1,fsr2h
  3938   0031BC  30DF               	rrcf	223,w,c
  3939   0031BE  32E8               	rrcf	wreg,f,c
  3940   0031C0  32E8               	rrcf	wreg,f,c
  3941   0031C2  0B07               	andlw	7
  3942   0031C4  6F8B               	movwf	??_gpio_pin_initialize& (0+255),b
  3943   0031C6  0E07               	movlw	7
  3944   0031C8  658B               	cpfsgt	??_gpio_pin_initialize& (0+255),b
  3945   0031CA  EFE9  F018         	goto	u5711
  3946   0031CE  EFEB  F018         	goto	u5710
  3947   0031D2                     u5711:
  3948   0031D2  EFEF  F018         	goto	l6057
  3949   0031D6                     u5710:
  3950   0031D6                     l6055:
  3951                           
  3952                           ; BSR set to: 0
  3953                           ;MCAL_Layer/GPIO/hal_gpio.c: 166:         ret = (Std_ReturnType)0x00;
  3954   0031D6  0E00               	movlw	0
  3955   0031D8  6F8C               	movwf	gpio_pin_initialize@ret& (0+255),b
  3956                           
  3957                           ;MCAL_Layer/GPIO/hal_gpio.c: 167:     }
  3958   0031DA  EF09  F019         	goto	l6061
  3959   0031DE                     l6057:
  3960                           
  3961                           ; BSR set to: 0
  3962                           ;MCAL_Layer/GPIO/hal_gpio.c: 169:         ret = gpio_pin_direction_initialize(pin_config
      +                          );
  3963   0031DE  C089  F080         	movff	gpio_pin_initialize@pin_config,gpio_pin_direction_initialize@pin_config
  3964   0031E2  C08A  F081         	movff	gpio_pin_initialize@pin_config+1,gpio_pin_direction_initialize@pin_config+1
  3965   0031E6  ECE0  F00F         	call	_gpio_pin_direction_initialize	;wreg free
  3966   0031EA  0100               	movlb	0	; () banked
  3967   0031EC  6F8C               	movwf	gpio_pin_initialize@ret& (0+255),b
  3968                           
  3969                           ;MCAL_Layer/GPIO/hal_gpio.c: 170:         ret = gpio_pin_write_logic(pin_config, pin_con
      +                          fig->logic);
  3970   0031EE  C089  F080         	movff	gpio_pin_initialize@pin_config,gpio_pin_write_logic@pin_config
  3971   0031F2  C08A  F081         	movff	gpio_pin_initialize@pin_config+1,gpio_pin_write_logic@pin_config+1
  3972   0031F6  C089  FFD9         	movff	gpio_pin_initialize@pin_config,fsr2l
  3973   0031FA  C08A  FFDA         	movff	gpio_pin_initialize@pin_config+1,fsr2h
  3974   0031FE  0E00               	movlw	0
  3975   003200  BEDF               	btfsc	indf2,7,c
  3976   003202  0E01               	movlw	1
  3977   003204  6F82               	movwf	gpio_pin_write_logic@logic& (0+255),b
  3978   003206  EC73  F010         	call	_gpio_pin_write_logic	;wreg free
  3979   00320A  0100               	movlb	0	; () banked
  3980   00320C  6F8C               	movwf	gpio_pin_initialize@ret& (0+255),b
  3981   00320E                     
  3982                           ; BSR set to: 0
  3983                           ;MCAL_Layer/GPIO/hal_gpio.c: 171:         ret = (Std_ReturnType)0x01;
  3984   00320E  0E01               	movlw	1
  3985   003210  6F8C               	movwf	gpio_pin_initialize@ret& (0+255),b
  3986   003212                     l6061:
  3987                           
  3988                           ; BSR set to: 0
  3989                           ;MCAL_Layer/GPIO/hal_gpio.c: 174:     return ret;
  3990   003212  518C               	movf	gpio_pin_initialize@ret& (0+255),w,b
  3991   003214                     
  3992                           ; BSR set to: 0
  3993   003214  0012               	return		;funcret
  3994   003216                     __end_of_gpio_pin_initialize:
  3995                           	callstack 0
  3996                           
  3997 ;; *************** function _button_initialize *****************
  3998 ;; Defined at:
  3999 ;;		line 15 in file "ECU_Layer/Button/ecu_button.c"
  4000 ;; Parameters:    Size  Location     Type
  4001 ;;  btn             1    8[BANK0 ] PTR const struct .
  4002 ;;		 -> btn6(3), btn5(3), btn4(3), btn3(3), 
  4003 ;;		 -> btn2(3), btn1(3), 
  4004 ;; Auto vars:     Size  Location     Type
  4005 ;;  ret             1    9[BANK0 ] unsigned char 
  4006 ;; Return value:  Size  Location     Type
  4007 ;;                  1    wreg      unsigned char 
  4008 ;; Registers used:
  4009 ;;		wreg, fsr2l, fsr2h, status,2, status,0, prodl, prodh, cstack
  4010 ;; Tracked objects:
  4011 ;;		On entry : 0/0
  4012 ;;		On exit  : 0/0
  4013 ;;		Unchanged: 0/0
  4014 ;; Data sizes:     COMRAM   BANK0   BANK1   BANK2   BANK3   BANK4   BANK5   BANK6   BANK7   BANK8   BANK9  BANK10  BANK1
      +1  BANK12  BANK13  BANK14  BANK15
  4015 ;;      Params:         0       1       0       0       0       0       0       0       0       0       0       0       
      +0       0       0       0       0
  4016 ;;      Locals:         0       1       0       0       0       0       0       0       0       0       0       0       
      +0       0       0       0       0
  4017 ;;      Temps:          0       0       0       0       0       0       0       0       0       0       0       0       
      +0       0       0       0       0
  4018 ;;      Totals:         0       2       0       0       0       0       0       0       0       0       0       0       
      +0       0       0       0       0
  4019 ;;Total ram usage:        2 bytes
  4020 ;; Hardware stack levels used: 1
  4021 ;; Hardware stack levels required when called: 11
  4022 ;; This function calls:
  4023 ;;		_gpio_pin_direction_initialize
  4024 ;; This function is called by:
  4025 ;;		_ecu_initialize
  4026 ;; This function uses a non-reentrant model
  4027 ;;
  4028                           
  4029                           	psect	text20
  4030   003A82                     __ptext20:
  4031                           	callstack 0
  4032   003A82                     _button_initialize:
  4033                           	callstack 18
  4034   003A82                     
  4035                           ;ECU_Layer/Button/ecu_button.c: 18:     if (btn == ((void*)0)){
  4036   003A82  0100               	movlb	0	; () banked
  4037   003A84  5188               	movf	button_initialize@btn& (0+255),w,b
  4038   003A86  A4D8               	btfss	status,2,c
  4039   003A88  EF48  F01D         	goto	u6031
  4040   003A8C  EF4A  F01D         	goto	u6030
  4041   003A90                     u6031:
  4042   003A90  EF4E  F01D         	goto	l6353
  4043   003A94                     u6030:
  4044   003A94                     
  4045                           ; BSR set to: 0
  4046                           ;ECU_Layer/Button/ecu_button.c: 19:         ret = (Std_ReturnType)0x00;
  4047   003A94  0E00               	movlw	0
  4048   003A96  6F89               	movwf	button_initialize@ret& (0+255),b
  4049                           
  4050                           ;ECU_Layer/Button/ecu_button.c: 20:     }
  4051   003A98  EF56  F01D         	goto	l6357
  4052   003A9C                     l6353:
  4053                           
  4054                           ; BSR set to: 0
  4055   003A9C  C088  F080         	movff	button_initialize@btn,gpio_pin_direction_initialize@pin_config
  4056   003AA0  6B81               	clrf	(gpio_pin_direction_initialize@pin_config+1)& (0+255),b
  4057   003AA2  ECE0  F00F         	call	_gpio_pin_direction_initialize	;wreg free
  4058   003AA6                     
  4059                           ;ECU_Layer/Button/ecu_button.c: 23:         ret = (Std_ReturnType)0x01;
  4060   003AA6  0E01               	movlw	1
  4061   003AA8  0100               	movlb	0	; () banked
  4062   003AAA  6F89               	movwf	button_initialize@ret& (0+255),b
  4063   003AAC                     l6357:
  4064                           
  4065                           ; BSR set to: 0
  4066                           ;ECU_Layer/Button/ecu_button.c: 26:     return ret;
  4067   003AAC  5189               	movf	button_initialize@ret& (0+255),w,b
  4068   003AAE                     
  4069                           ; BSR set to: 0
  4070   003AAE  0012               	return		;funcret
  4071   003AB0                     __end_of_button_initialize:
  4072                           	callstack 0
  4073                           
  4074 ;; *************** function _gpio_pin_direction_initialize *****************
  4075 ;; Defined at:
  4076 ;;		line 22 in file "MCAL_Layer/GPIO/hal_gpio.c"
  4077 ;; Parameters:    Size  Location     Type
  4078 ;;  pin_config      2    0[BANK0 ] PTR const struct .
  4079 ;;		 -> rb6_obj(6), rb5_obj(6), rb4_obj(6), int2_obj(6), 
  4080 ;;		 -> int1_obj(6), int0_obj(6), btn6(3), btn5(3), 
  4081 ;;		 -> btn4(3), btn3(3), btn2(3), btn1(3), 
  4082 ;;		 -> lcd$lcd_data(4), lcd(6), 
  4083 ;; Auto vars:     Size  Location     Type
  4084 ;;  ret             1    7[BANK0 ] unsigned char 
  4085 ;; Return value:  Size  Location     Type
  4086 ;;                  1    wreg      unsigned char 
  4087 ;; Registers used:
  4088 ;;		wreg, fsr2l, fsr2h, status,2, status,0, prodl, prodh
  4089 ;; Tracked objects:
  4090 ;;		On entry : 0/0
  4091 ;;		On exit  : 0/0
  4092 ;;		Unchanged: 0/0
  4093 ;; Data sizes:     COMRAM   BANK0   BANK1   BANK2   BANK3   BANK4   BANK5   BANK6   BANK7   BANK8   BANK9  BANK10  BANK1
      +1  BANK12  BANK13  BANK14  BANK15
  4094 ;;      Params:         0       2       0       0       0       0       0       0       0       0       0       0       
      +0       0       0       0       0
  4095 ;;      Locals:         0       1       0       0       0       0       0       0       0       0       0       0       
      +0       0       0       0       0
  4096 ;;      Temps:          0       5       0       0       0       0       0       0       0       0       0       0       
      +0       0       0       0       0
  4097 ;;      Totals:         0       8       0       0       0       0       0       0       0       0       0       0       
      +0       0       0       0       0
  4098 ;;Total ram usage:        8 bytes
  4099 ;; Hardware stack levels used: 1
  4100 ;; Hardware stack levels required when called: 10
  4101 ;; This function calls:
  4102 ;;		Nothing
  4103 ;; This function is called by:
  4104 ;;		_button_initialize
  4105 ;;		_gpio_pin_initialize
  4106 ;;		_interrupt_RBx_initialize
  4107 ;; This function uses a non-reentrant model
  4108 ;;
  4109                           
  4110                           	psect	text21
  4111   001FC0                     __ptext21:
  4112                           	callstack 0
  4113   001FC0                     _gpio_pin_direction_initialize:
  4114                           	callstack 18
  4115   001FC0                     
  4116                           ;MCAL_Layer/GPIO/hal_gpio.c: 25:     if ((pin_config == ((void*)0)) || (pin_config->pin 
      +                          > 8 - 1)){
  4117   001FC0  0100               	movlb	0	; () banked
  4118   001FC2  5180               	movf	gpio_pin_direction_initialize@pin_config& (0+255),w,b
  4119   001FC4  1181               	iorwf	(gpio_pin_direction_initialize@pin_config+1)& (0+255),w,b
  4120   001FC6  B4D8               	btfsc	status,2,c
  4121   001FC8  EFE8  F00F         	goto	u5611
  4122   001FCC  EFEA  F00F         	goto	u5610
  4123   001FD0                     u5611:
  4124   001FD0  EFFB  F00F         	goto	l5971
  4125   001FD4                     u5610:
  4126   001FD4                     
  4127                           ; BSR set to: 0
  4128   001FD4  C080  FFD9         	movff	gpio_pin_direction_initialize@pin_config,fsr2l
  4129   001FD8  C081  FFDA         	movff	gpio_pin_direction_initialize@pin_config+1,fsr2h
  4130   001FDC  30DF               	rrcf	223,w,c
  4131   001FDE  32E8               	rrcf	wreg,f,c
  4132   001FE0  32E8               	rrcf	wreg,f,c
  4133   001FE2  0B07               	andlw	7
  4134   001FE4  6F82               	movwf	??_gpio_pin_direction_initialize& (0+255),b
  4135   001FE6  0E07               	movlw	7
  4136   001FE8  6582               	cpfsgt	??_gpio_pin_direction_initialize& (0+255),b
  4137   001FEA  EFF9  F00F         	goto	u5621
  4138   001FEE  EFFB  F00F         	goto	u5620
  4139   001FF2                     u5621:
  4140   001FF2  EF5A  F010         	goto	l5985
  4141   001FF6                     u5620:
  4142   001FF6                     l5971:
  4143                           
  4144                           ; BSR set to: 0
  4145                           ;MCAL_Layer/GPIO/hal_gpio.c: 26:         ret = (Std_ReturnType)0x00;
  4146   001FF6  0E00               	movlw	0
  4147   001FF8  6F87               	movwf	gpio_pin_direction_initialize@ret& (0+255),b
  4148                           
  4149                           ;MCAL_Layer/GPIO/hal_gpio.c: 27:     }
  4150   001FFA  EF71  F010         	goto	l5987
  4151   001FFE                     l5973:
  4152                           
  4153                           ; BSR set to: 0
  4154                           ;MCAL_Layer/GPIO/hal_gpio.c: 31:                 (*(tric_registers[pin_config->port]) &=
      +                           ~((uint8)1 << pin_config->pin));
  4155   001FFE  C080  FFD9         	movff	gpio_pin_direction_initialize@pin_config,fsr2l
  4156   002002  C081  FFDA         	movff	gpio_pin_direction_initialize@pin_config+1,fsr2h
  4157   002006  30DF               	rrcf	223,w,c
  4158   002008  32E8               	rrcf	wreg,f,c
  4159   00200A  32E8               	rrcf	wreg,f,c
  4160   00200C  0B07               	andlw	7
  4161   00200E  6F82               	movwf	??_gpio_pin_direction_initialize& (0+255),b
  4162   002010  0E01               	movlw	1
  4163   002012  6F83               	movwf	(??_gpio_pin_direction_initialize+1)& (0+255),b
  4164   002014  2B82               	incf	??_gpio_pin_direction_initialize& (0+255),f,b
  4165   002016  EF0F  F010         	goto	u5634
  4166   00201A                     u5635:
  4167   00201A  90D8               	bcf	status,0,c
  4168   00201C  3783               	rlcf	(??_gpio_pin_direction_initialize+1)& (0+255),f,b
  4169   00201E                     u5634:
  4170   00201E  2F82               	decfsz	??_gpio_pin_direction_initialize& (0+255),f,b
  4171   002020  EF0D  F010         	goto	u5635
  4172   002024  0100               	movlb	0	; () banked
  4173   002026  5183               	movf	(??_gpio_pin_direction_initialize+1)& (0+255),w,b
  4174   002028  0AFF               	xorlw	255
  4175   00202A  6F84               	movwf	(??_gpio_pin_direction_initialize+2)& (0+255),b
  4176   00202C  C080  FFD9         	movff	gpio_pin_direction_initialize@pin_config,fsr2l
  4177   002030  C081  FFDA         	movff	gpio_pin_direction_initialize@pin_config+1,fsr2h
  4178   002034  50DF               	movf	223,w,c
  4179   002036  0B07               	andlw	7
  4180   002038  0D02               	mullw	2
  4181   00203A  50F3               	movf	243,w,c
  4182   00203C  0FBF               	addlw	low _tric_registers
  4183   00203E  6ED9               	movwf	fsr2l,c
  4184   002040  6ADA               	clrf	fsr2h,c
  4185   002042  CFDE F085          	movff	postinc2,??_gpio_pin_direction_initialize+3
  4186   002046  CFDD F086          	movff	postdec2,??_gpio_pin_direction_initialize+4
  4187   00204A  C085  FFD9         	movff	??_gpio_pin_direction_initialize+3,fsr2l
  4188   00204E  C086  FFDA         	movff	??_gpio_pin_direction_initialize+4,fsr2h
  4189   002052  5184               	movf	(??_gpio_pin_direction_initialize+2)& (0+255),w,b
  4190   002054  16DF               	andwf	indf2,f,c
  4191   002056                     l5975:
  4192                           
  4193                           ; BSR set to: 0
  4194                           ;MCAL_Layer/GPIO/hal_gpio.c: 32:                 ret = (Std_ReturnType)0x01;
  4195   002056  0E01               	movlw	1
  4196   002058  6F87               	movwf	gpio_pin_direction_initialize@ret& (0+255),b
  4197                           
  4198                           ;MCAL_Layer/GPIO/hal_gpio.c: 33:                 break;
  4199   00205A  EF71  F010         	goto	l5987
  4200   00205E                     l5977:
  4201                           
  4202                           ; BSR set to: 0
  4203                           ;MCAL_Layer/GPIO/hal_gpio.c: 35:                 (*(tric_registers[pin_config->port]) |=
      +                           ((uint8)1 << pin_config->pin));
  4204   00205E  C080  FFD9         	movff	gpio_pin_direction_initialize@pin_config,fsr2l
  4205   002062  C081  FFDA         	movff	gpio_pin_direction_initialize@pin_config+1,fsr2h
  4206   002066  30DF               	rrcf	223,w,c
  4207   002068  32E8               	rrcf	wreg,f,c
  4208   00206A  32E8               	rrcf	wreg,f,c
  4209   00206C  0B07               	andlw	7
  4210   00206E  6F82               	movwf	??_gpio_pin_direction_initialize& (0+255),b
  4211   002070  0E01               	movlw	1
  4212   002072  6F83               	movwf	(??_gpio_pin_direction_initialize+1)& (0+255),b
  4213   002074  2B82               	incf	??_gpio_pin_direction_initialize& (0+255),f,b
  4214   002076  EF3F  F010         	goto	u5644
  4215   00207A                     u5645:
  4216   00207A  90D8               	bcf	status,0,c
  4217   00207C  3783               	rlcf	(??_gpio_pin_direction_initialize+1)& (0+255),f,b
  4218   00207E                     u5644:
  4219   00207E  2F82               	decfsz	??_gpio_pin_direction_initialize& (0+255),f,b
  4220   002080  EF3D  F010         	goto	u5645
  4221   002084  C080  FFD9         	movff	gpio_pin_direction_initialize@pin_config,fsr2l
  4222   002088  C081  FFDA         	movff	gpio_pin_direction_initialize@pin_config+1,fsr2h
  4223   00208C  50DF               	movf	223,w,c
  4224   00208E  0B07               	andlw	7
  4225   002090  0D02               	mullw	2
  4226   002092  50F3               	movf	243,w,c
  4227   002094  0FBF               	addlw	low _tric_registers
  4228   002096  6ED9               	movwf	fsr2l,c
  4229   002098  6ADA               	clrf	fsr2h,c
  4230   00209A  CFDE F084          	movff	postinc2,??_gpio_pin_direction_initialize+2
  4231   00209E  CFDD F085          	movff	postdec2,??_gpio_pin_direction_initialize+3
  4232   0020A2  C084  FFD9         	movff	??_gpio_pin_direction_initialize+2,fsr2l
  4233   0020A6  C085  FFDA         	movff	??_gpio_pin_direction_initialize+3,fsr2h
  4234   0020AA  0100               	movlb	0	; () banked
  4235   0020AC  5183               	movf	(??_gpio_pin_direction_initialize+1)& (0+255),w,b
  4236   0020AE  12DF               	iorwf	indf2,f,c
  4237   0020B0  EF2B  F010         	goto	l5975
  4238   0020B4                     l5985:
  4239                           
  4240                           ; BSR set to: 0
  4241   0020B4  C080  FFD9         	movff	gpio_pin_direction_initialize@pin_config,fsr2l
  4242   0020B8  C081  FFDA         	movff	gpio_pin_direction_initialize@pin_config+1,fsr2h
  4243   0020BC  BCDF               	btfsc	indf2,6,c
  4244   0020BE  EF63  F010         	goto	u5651
  4245   0020C2  EF66  F010         	goto	u5650
  4246   0020C6                     u5651:
  4247   0020C6  0E01               	movlw	1
  4248   0020C8  EF67  F010         	goto	u5656
  4249   0020CC                     u5650:
  4250   0020CC  0E00               	movlw	0
  4251   0020CE                     u5656:
  4252                           
  4253                           ; Switch size 1, requested type "simple"
  4254                           ; Number of cases is 2, Range of values is 0 to 1
  4255                           ; switch strategies available:
  4256                           ; Name         Instructions Cycles
  4257                           ; simple_byte            7     4 (average)
  4258                           ;	Chosen strategy is simple_byte
  4259   0020CE  0A00               	xorlw	0	; case 0
  4260   0020D0  B4D8               	btfsc	status,2,c
  4261   0020D2  EFFF  F00F         	goto	l5973
  4262   0020D6  0A01               	xorlw	1	; case 1
  4263   0020D8  B4D8               	btfsc	status,2,c
  4264   0020DA  EF2F  F010         	goto	l5977
  4265   0020DE  EFFB  F00F         	goto	l5971
  4266   0020E2                     l5987:
  4267                           
  4268                           ; BSR set to: 0
  4269                           ;MCAL_Layer/GPIO/hal_gpio.c: 44:     return ret;
  4270   0020E2  5187               	movf	gpio_pin_direction_initialize@ret& (0+255),w,b
  4271   0020E4                     
  4272                           ; BSR set to: 0
  4273   0020E4  0012               	return		;funcret
  4274   0020E6                     __end_of_gpio_pin_direction_initialize:
  4275                           	callstack 0
  4276                           
  4277 ;; *************** function _display *****************
  4278 ;; Defined at:
  4279 ;;		line 129 in file "application.c"
  4280 ;; Parameters:    Size  Location     Type
  4281 ;;		None
  4282 ;; Auto vars:     Size  Location     Type
  4283 ;;		None
  4284 ;; Return value:  Size  Location     Type
  4285 ;;                  1    wreg      void 
  4286 ;; Registers used:
  4287 ;;		wreg, fsr0l, fsr0h, fsr1l, fsr1h, fsr2l, fsr2h, status,2, status,0, tblptrl, tblptrh, tblptru, prodl, prodh, cstack
  4288 ;; Tracked objects:
  4289 ;;		On entry : 0/0
  4290 ;;		On exit  : 0/0
  4291 ;;		Unchanged: 0/0
  4292 ;; Data sizes:     COMRAM   BANK0   BANK1   BANK2   BANK3   BANK4   BANK5   BANK6   BANK7   BANK8   BANK9  BANK10  BANK1
      +1  BANK12  BANK13  BANK14  BANK15
  4293 ;;      Params:         0       0       0       0       0       0       0       0       0       0       0       0       
      +0       0       0       0       0
  4294 ;;      Locals:         0       0       0       0       0       0       0       0       0       0       0       0       
      +0       0       0       0       0
  4295 ;;      Temps:          0       0       0       0       0       0       0       0       0       0       0       0       
      +0       0       0       0       0
  4296 ;;      Totals:         0       0       0       0       0       0       0       0       0       0       0       0       
      +0       0       0       0       0
  4297 ;;Total ram usage:        0 bytes
  4298 ;; Hardware stack levels used: 1
  4299 ;; Hardware stack levels required when called: 16
  4300 ;; This function calls:
  4301 ;;		_convert_uint16_to_string
  4302 ;;		_lcd_4bit_send_command
  4303 ;;		_lcd_4bit_send_string_pos
  4304 ;;		_read_eeprom
  4305 ;; This function is called by:
  4306 ;;		_main
  4307 ;; This function uses a non-reentrant model
  4308 ;;
  4309                           
  4310                           	psect	text22
  4311   00170E                     __ptext22:
  4312                           	callstack 0
  4313   00170E                     _display:
  4314                           	callstack 14
  4315   00170E                     
  4316                           ;application.c: 130:     read_eeprom();
  4317   00170E  EC2B  F01B         	call	_read_eeprom	;wreg free
  4318   001712                     
  4319                           ;application.c: 132:     ret = convert_uint16_to_string(can_A, can_A_str);
  4320   001712  C0FD  F0AA         	movff	_can_A,convert_uint16_to_string@value
  4321   001716  0100               	movlb	0	; () banked
  4322   001718  6BAB               	clrf	(convert_uint16_to_string@value+1)& (0+255),b
  4323   00171A  0EF4               	movlw	low _can_A_str
  4324   00171C  6FAC               	movwf	convert_uint16_to_string@str& (0+255),b
  4325   00171E  EC41  F015         	call	_convert_uint16_to_string	;wreg free
  4326   001722  6E7C               	movwf	_ret^0,c
  4327   001724                     
  4328                           ;application.c: 133:     ret = convert_uint16_to_string(can_B, can_B_str);
  4329   001724  C0FC  F0AA         	movff	_can_B,convert_uint16_to_string@value
  4330   001728  0100               	movlb	0	; () banked
  4331   00172A  6BAB               	clrf	(convert_uint16_to_string@value+1)& (0+255),b
  4332   00172C  0EEE               	movlw	low _can_B_str
  4333   00172E  6FAC               	movwf	convert_uint16_to_string@str& (0+255),b
  4334   001730  EC41  F015         	call	_convert_uint16_to_string	;wreg free
  4335   001734  6E7C               	movwf	_ret^0,c
  4336   001736                     
  4337                           ;application.c: 134:     ret = convert_uint16_to_string(can_C, can_C_str);
  4338   001736  C0FB  F0AA         	movff	_can_C,convert_uint16_to_string@value
  4339   00173A  0100               	movlb	0	; () banked
  4340   00173C  6BAB               	clrf	(convert_uint16_to_string@value+1)& (0+255),b
  4341   00173E  0EE8               	movlw	low _can_C_str
  4342   001740  6FAC               	movwf	convert_uint16_to_string@str& (0+255),b
  4343   001742  EC41  F015         	call	_convert_uint16_to_string	;wreg free
  4344   001746  6E7C               	movwf	_ret^0,c
  4345   001748                     
  4346                           ;application.c: 135:     ret = convert_uint16_to_string(can_D, can_D_str);
  4347   001748  C0FA  F0AA         	movff	_can_D,convert_uint16_to_string@value
  4348   00174C  0100               	movlb	0	; () banked
  4349   00174E  6BAB               	clrf	(convert_uint16_to_string@value+1)& (0+255),b
  4350   001750  0EE2               	movlw	low _can_D_str
  4351   001752  6FAC               	movwf	convert_uint16_to_string@str& (0+255),b
  4352   001754  EC41  F015         	call	_convert_uint16_to_string	;wreg free
  4353   001758  6E7C               	movwf	_ret^0,c
  4354   00175A                     
  4355                           ;application.c: 137:     ret = lcd_4bit_send_string_pos(&lcd, (uint8 *)"A:", 1, 1);
  4356   00175A  0EC9               	movlw	low _lcd
  4357   00175C  0100               	movlb	0	; () banked
  4358   00175E  6F94               	movwf	lcd_4bit_send_string_pos@lcd& (0+255),b
  4359   001760  0E65               	movlw	low STR_8
  4360   001762  6F95               	movwf	lcd_4bit_send_string_pos@str& (0+255),b
  4361   001764  5195               	movf	lcd_4bit_send_string_pos@str& (0+255),w,b
  4362   001766  A4D8               	btfss	status,2,c
  4363   001768  0E10               	movlw	high __smallconst
  4364   00176A  6F96               	movwf	(lcd_4bit_send_string_pos@str+1)& (0+255),b
  4365   00176C  0E01               	movlw	1
  4366   00176E  6F97               	movwf	lcd_4bit_send_string_pos@row& (0+255),b
  4367   001770  0E01               	movlw	1
  4368   001772  6F98               	movwf	lcd_4bit_send_string_pos@column& (0+255),b
  4369   001774  EC92  F013         	call	_lcd_4bit_send_string_pos	;wreg free
  4370   001778  6E7C               	movwf	_ret^0,c
  4371   00177A                     
  4372                           ;application.c: 138:     ret = lcd_4bit_send_string_pos(&lcd, can_A_str, 1, 3);
  4373   00177A  0EC9               	movlw	low _lcd
  4374   00177C  0100               	movlb	0	; () banked
  4375   00177E  6F94               	movwf	lcd_4bit_send_string_pos@lcd& (0+255),b
  4376   001780  0EF4               	movlw	low _can_A_str
  4377   001782  6F95               	movwf	lcd_4bit_send_string_pos@str& (0+255),b
  4378   001784  6B96               	clrf	(lcd_4bit_send_string_pos@str+1)& (0+255),b
  4379   001786  0E01               	movlw	1
  4380   001788  6F97               	movwf	lcd_4bit_send_string_pos@row& (0+255),b
  4381   00178A  0E03               	movlw	3
  4382   00178C  6F98               	movwf	lcd_4bit_send_string_pos@column& (0+255),b
  4383   00178E  EC92  F013         	call	_lcd_4bit_send_string_pos	;wreg free
  4384   001792  6E7C               	movwf	_ret^0,c
  4385   001794                     
  4386                           ;application.c: 139:     ret = lcd_4bit_send_string_pos(&lcd, (uint8 *)"B:", 1, 12);
  4387   001794  0EC9               	movlw	low _lcd
  4388   001796  0100               	movlb	0	; () banked
  4389   001798  6F94               	movwf	lcd_4bit_send_string_pos@lcd& (0+255),b
  4390   00179A  0E68               	movlw	low STR_9
  4391   00179C  6F95               	movwf	lcd_4bit_send_string_pos@str& (0+255),b
  4392   00179E  5195               	movf	lcd_4bit_send_string_pos@str& (0+255),w,b
  4393   0017A0  A4D8               	btfss	status,2,c
  4394   0017A2  0E10               	movlw	high __smallconst
  4395   0017A4  6F96               	movwf	(lcd_4bit_send_string_pos@str+1)& (0+255),b
  4396   0017A6  0E01               	movlw	1
  4397   0017A8  6F97               	movwf	lcd_4bit_send_string_pos@row& (0+255),b
  4398   0017AA  0E0C               	movlw	12
  4399   0017AC  6F98               	movwf	lcd_4bit_send_string_pos@column& (0+255),b
  4400   0017AE  EC92  F013         	call	_lcd_4bit_send_string_pos	;wreg free
  4401   0017B2  6E7C               	movwf	_ret^0,c
  4402   0017B4                     
  4403                           ;application.c: 140:     ret = lcd_4bit_send_string_pos(&lcd, can_B_str, 1, 14);
  4404   0017B4  0EC9               	movlw	low _lcd
  4405   0017B6  0100               	movlb	0	; () banked
  4406   0017B8  6F94               	movwf	lcd_4bit_send_string_pos@lcd& (0+255),b
  4407   0017BA  0EEE               	movlw	low _can_B_str
  4408   0017BC  6F95               	movwf	lcd_4bit_send_string_pos@str& (0+255),b
  4409   0017BE  6B96               	clrf	(lcd_4bit_send_string_pos@str+1)& (0+255),b
  4410   0017C0  0E01               	movlw	1
  4411   0017C2  6F97               	movwf	lcd_4bit_send_string_pos@row& (0+255),b
  4412   0017C4  0E0E               	movlw	14
  4413   0017C6  6F98               	movwf	lcd_4bit_send_string_pos@column& (0+255),b
  4414   0017C8  EC92  F013         	call	_lcd_4bit_send_string_pos	;wreg free
  4415   0017CC  6E7C               	movwf	_ret^0,c
  4416   0017CE                     
  4417                           ;application.c: 141:     ret = lcd_4bit_send_string_pos(&lcd, (uint8 *)"C:", 2, 1);
  4418   0017CE  0EC9               	movlw	low _lcd
  4419   0017D0  0100               	movlb	0	; () banked
  4420   0017D2  6F94               	movwf	lcd_4bit_send_string_pos@lcd& (0+255),b
  4421   0017D4  0E6B               	movlw	low STR_10
  4422   0017D6  6F95               	movwf	lcd_4bit_send_string_pos@str& (0+255),b
  4423   0017D8  5195               	movf	lcd_4bit_send_string_pos@str& (0+255),w,b
  4424   0017DA  A4D8               	btfss	status,2,c
  4425   0017DC  0E10               	movlw	high __smallconst
  4426   0017DE  6F96               	movwf	(lcd_4bit_send_string_pos@str+1)& (0+255),b
  4427   0017E0  0E02               	movlw	2
  4428   0017E2  6F97               	movwf	lcd_4bit_send_string_pos@row& (0+255),b
  4429   0017E4  0E01               	movlw	1
  4430   0017E6  6F98               	movwf	lcd_4bit_send_string_pos@column& (0+255),b
  4431   0017E8  EC92  F013         	call	_lcd_4bit_send_string_pos	;wreg free
  4432   0017EC  6E7C               	movwf	_ret^0,c
  4433   0017EE                     
  4434                           ;application.c: 142:     ret = lcd_4bit_send_string_pos(&lcd, can_C_str, 2, 3);
  4435   0017EE  0EC9               	movlw	low _lcd
  4436   0017F0  0100               	movlb	0	; () banked
  4437   0017F2  6F94               	movwf	lcd_4bit_send_string_pos@lcd& (0+255),b
  4438   0017F4  0EE8               	movlw	low _can_C_str
  4439   0017F6  6F95               	movwf	lcd_4bit_send_string_pos@str& (0+255),b
  4440   0017F8  6B96               	clrf	(lcd_4bit_send_string_pos@str+1)& (0+255),b
  4441   0017FA  0E02               	movlw	2
  4442   0017FC  6F97               	movwf	lcd_4bit_send_string_pos@row& (0+255),b
  4443   0017FE  0E03               	movlw	3
  4444   001800  6F98               	movwf	lcd_4bit_send_string_pos@column& (0+255),b
  4445   001802  EC92  F013         	call	_lcd_4bit_send_string_pos	;wreg free
  4446   001806  6E7C               	movwf	_ret^0,c
  4447   001808                     
  4448                           ;application.c: 143:     ret = lcd_4bit_send_string_pos(&lcd, (uint8 *)"D:", 2, 12);
  4449   001808  0EC9               	movlw	low _lcd
  4450   00180A  0100               	movlb	0	; () banked
  4451   00180C  6F94               	movwf	lcd_4bit_send_string_pos@lcd& (0+255),b
  4452   00180E  0E6E               	movlw	low STR_11
  4453   001810  6F95               	movwf	lcd_4bit_send_string_pos@str& (0+255),b
  4454   001812  5195               	movf	lcd_4bit_send_string_pos@str& (0+255),w,b
  4455   001814  A4D8               	btfss	status,2,c
  4456   001816  0E10               	movlw	high __smallconst
  4457   001818  6F96               	movwf	(lcd_4bit_send_string_pos@str+1)& (0+255),b
  4458   00181A  0E02               	movlw	2
  4459   00181C  6F97               	movwf	lcd_4bit_send_string_pos@row& (0+255),b
  4460   00181E  0E0C               	movlw	12
  4461   001820  6F98               	movwf	lcd_4bit_send_string_pos@column& (0+255),b
  4462   001822  EC92  F013         	call	_lcd_4bit_send_string_pos	;wreg free
  4463   001826  6E7C               	movwf	_ret^0,c
  4464   001828                     
  4465                           ;application.c: 144:     ret = lcd_4bit_send_string_pos(&lcd, can_D_str, 2, 14);
  4466   001828  0EC9               	movlw	low _lcd
  4467   00182A  0100               	movlb	0	; () banked
  4468   00182C  6F94               	movwf	lcd_4bit_send_string_pos@lcd& (0+255),b
  4469   00182E  0EE2               	movlw	low _can_D_str
  4470   001830  6F95               	movwf	lcd_4bit_send_string_pos@str& (0+255),b
  4471   001832  6B96               	clrf	(lcd_4bit_send_string_pos@str+1)& (0+255),b
  4472   001834  0E02               	movlw	2
  4473   001836  6F97               	movwf	lcd_4bit_send_string_pos@row& (0+255),b
  4474   001838  0E0E               	movlw	14
  4475   00183A  6F98               	movwf	lcd_4bit_send_string_pos@column& (0+255),b
  4476   00183C  EC92  F013         	call	_lcd_4bit_send_string_pos	;wreg free
  4477   001840  6E7C               	movwf	_ret^0,c
  4478   001842                     
  4479                           ;application.c: 145:     if(operation_mode){
  4480   001842  0100               	movlb	0	; () banked
  4481   001844  51E1               	movf	_operation_mode& (0+255),w,b
  4482   001846  B4D8               	btfsc	status,2,c
  4483   001848  EF28  F00C         	goto	u6621
  4484   00184C  EF2A  F00C         	goto	u6620
  4485   001850                     u6621:
  4486   001850  EF31  F00C         	goto	l795
  4487   001854                     u6620:
  4488   001854                     
  4489                           ; BSR set to: 0
  4490                           ;application.c: 146:         ret = lcd_4bit_send_command(&lcd, 0x01);
  4491   001854  0EC9               	movlw	low _lcd
  4492   001856  6F8D               	movwf	lcd_4bit_send_command@lcd& (0+255),b
  4493   001858  0E01               	movlw	1
  4494   00185A  6F8E               	movwf	lcd_4bit_send_command@command& (0+255),b
  4495   00185C  EC7F  F019         	call	_lcd_4bit_send_command	;wreg free
  4496   001860  6E7C               	movwf	_ret^0,c
  4497   001862                     l795:
  4498   001862  0012               	return		;funcret
  4499   001864                     __end_of_display:
  4500                           	callstack 0
  4501                           
  4502 ;; *************** function _read_eeprom *****************
  4503 ;; Defined at:
  4504 ;;		line 164 in file "application.c"
  4505 ;; Parameters:    Size  Location     Type
  4506 ;;		None
  4507 ;; Auto vars:     Size  Location     Type
  4508 ;;		None
  4509 ;; Return value:  Size  Location     Type
  4510 ;;                  1    wreg      void 
  4511 ;; Registers used:
  4512 ;;		wreg, fsr2l, fsr2h, status,2, status,0, cstack
  4513 ;; Tracked objects:
  4514 ;;		On entry : 0/0
  4515 ;;		On exit  : 0/0
  4516 ;;		Unchanged: 0/0
  4517 ;; Data sizes:     COMRAM   BANK0   BANK1   BANK2   BANK3   BANK4   BANK5   BANK6   BANK7   BANK8   BANK9  BANK10  BANK1
      +1  BANK12  BANK13  BANK14  BANK15
  4518 ;;      Params:         0       0       0       0       0       0       0       0       0       0       0       0       
      +0       0       0       0       0
  4519 ;;      Locals:         0       0       0       0       0       0       0       0       0       0       0       0       
      +0       0       0       0       0
  4520 ;;      Temps:          0       0       0       0       0       0       0       0       0       0       0       0       
      +0       0       0       0       0
  4521 ;;      Totals:         0       0       0       0       0       0       0       0       0       0       0       0       
      +0       0       0       0       0
  4522 ;;Total ram usage:        0 bytes
  4523 ;; Hardware stack levels used: 1
  4524 ;; Hardware stack levels required when called: 11
  4525 ;; This function calls:
  4526 ;;		_Data_EEPROM_ReadByte
  4527 ;; This function is called by:
  4528 ;;		_display
  4529 ;; This function uses a non-reentrant model
  4530 ;;
  4531                           
  4532                           	psect	text23
  4533   003656                     __ptext23:
  4534                           	callstack 0
  4535   003656                     _read_eeprom:
  4536                           	callstack 18
  4537   003656                     
  4538                           ;application.c: 165:     Data_EEPROM_ReadByte(0x0000, &can_A);
  4539   003656  0E00               	movlw	0
  4540   003658  0100               	movlb	0	; () banked
  4541   00365A  6F81               	movwf	(Data_EEPROM_ReadByte@adr+1)& (0+255),b
  4542   00365C  0E00               	movlw	0
  4543   00365E  6F80               	movwf	Data_EEPROM_ReadByte@adr& (0+255),b
  4544   003660  0EFD               	movlw	low _can_A
  4545   003662  6F82               	movwf	Data_EEPROM_ReadByte@data& (0+255),b
  4546   003664  EC3A  F01C         	call	_Data_EEPROM_ReadByte	;wreg free
  4547                           
  4548                           ;application.c: 166:     Data_EEPROM_ReadByte(0x0008, &can_B);
  4549   003668  0E00               	movlw	0
  4550   00366A  0100               	movlb	0	; () banked
  4551   00366C  6F81               	movwf	(Data_EEPROM_ReadByte@adr+1)& (0+255),b
  4552   00366E  0E08               	movlw	8
  4553   003670  6F80               	movwf	Data_EEPROM_ReadByte@adr& (0+255),b
  4554   003672  0EFC               	movlw	low _can_B
  4555   003674  6F82               	movwf	Data_EEPROM_ReadByte@data& (0+255),b
  4556   003676  EC3A  F01C         	call	_Data_EEPROM_ReadByte	;wreg free
  4557                           
  4558                           ;application.c: 167:     Data_EEPROM_ReadByte(0x0010, &can_C);
  4559   00367A  0E00               	movlw	0
  4560   00367C  0100               	movlb	0	; () banked
  4561   00367E  6F81               	movwf	(Data_EEPROM_ReadByte@adr+1)& (0+255),b
  4562   003680  0E10               	movlw	16
  4563   003682  6F80               	movwf	Data_EEPROM_ReadByte@adr& (0+255),b
  4564   003684  0EFB               	movlw	low _can_C
  4565   003686  6F82               	movwf	Data_EEPROM_ReadByte@data& (0+255),b
  4566   003688  EC3A  F01C         	call	_Data_EEPROM_ReadByte	;wreg free
  4567                           
  4568                           ;application.c: 168:     Data_EEPROM_ReadByte(0x0018, &can_D);
  4569   00368C  0E00               	movlw	0
  4570   00368E  0100               	movlb	0	; () banked
  4571   003690  6F81               	movwf	(Data_EEPROM_ReadByte@adr+1)& (0+255),b
  4572   003692  0E18               	movlw	24
  4573   003694  6F80               	movwf	Data_EEPROM_ReadByte@adr& (0+255),b
  4574   003696  0EFA               	movlw	low _can_D
  4575   003698  6F82               	movwf	Data_EEPROM_ReadByte@data& (0+255),b
  4576   00369A  EC3A  F01C         	call	_Data_EEPROM_ReadByte	;wreg free
  4577   00369E  0012               	return		;funcret
  4578   0036A0                     __end_of_read_eeprom:
  4579                           	callstack 0
  4580                           
  4581 ;; *************** function _Data_EEPROM_ReadByte *****************
  4582 ;; Defined at:
  4583 ;;		line 63 in file "MCAL_Layer/EEPROM/hal_eeprom.c"
  4584 ;; Parameters:    Size  Location     Type
  4585 ;;  adr             2    0[BANK0 ] unsigned short 
  4586 ;;  data            1    2[BANK0 ] PTR unsigned char 
  4587 ;;		 -> can_D(1), can_C(1), can_B(1), can_A(1), 
  4588 ;; Auto vars:     Size  Location     Type
  4589 ;;  ret             1    0        unsigned char 
  4590 ;; Return value:  Size  Location     Type
  4591 ;;                  1    wreg      unsigned char 
  4592 ;; Registers used:
  4593 ;;		wreg, fsr2l, fsr2h, status,2, status,0
  4594 ;; Tracked objects:
  4595 ;;		On entry : 0/0
  4596 ;;		On exit  : 0/0
  4597 ;;		Unchanged: 0/0
  4598 ;; Data sizes:     COMRAM   BANK0   BANK1   BANK2   BANK3   BANK4   BANK5   BANK6   BANK7   BANK8   BANK9  BANK10  BANK1
      +1  BANK12  BANK13  BANK14  BANK15
  4599 ;;      Params:         0       3       0       0       0       0       0       0       0       0       0       0       
      +0       0       0       0       0
  4600 ;;      Locals:         0       0       0       0       0       0       0       0       0       0       0       0       
      +0       0       0       0       0
  4601 ;;      Temps:          0       0       0       0       0       0       0       0       0       0       0       0       
      +0       0       0       0       0
  4602 ;;      Totals:         0       3       0       0       0       0       0       0       0       0       0       0       
      +0       0       0       0       0
  4603 ;;Total ram usage:        3 bytes
  4604 ;; Hardware stack levels used: 1
  4605 ;; Hardware stack levels required when called: 10
  4606 ;; This function calls:
  4607 ;;		Nothing
  4608 ;; This function is called by:
  4609 ;;		_read_eeprom
  4610 ;; This function uses a non-reentrant model
  4611 ;;
  4612                           
  4613                           	psect	text24
  4614   003874                     __ptext24:
  4615                           	callstack 0
  4616   003874                     _Data_EEPROM_ReadByte:
  4617                           	callstack 18
  4618   003874                     
  4619                           ;MCAL_Layer/EEPROM/hal_eeprom.c: 66:     if(data == ((void*)0)){
  4620   003874  0100               	movlb	0	; () banked
  4621   003876  5182               	movf	Data_EEPROM_ReadByte@data& (0+255),w,b
  4622   003878  A4D8               	btfss	status,2,c
  4623   00387A  EF41  F01C         	goto	u3731
  4624   00387E  EF43  F01C         	goto	u3730
  4625   003882                     u3731:
  4626   003882  EF45  F01C         	goto	l4433
  4627   003886                     u3730:
  4628   003886                     
  4629                           ; BSR set to: 0
  4630                           ;MCAL_Layer/EEPROM/hal_eeprom.c: 68:     }
  4631   003886  EF55  F01C         	goto	l267
  4632   00388A                     l4433:
  4633                           
  4634                           ; BSR set to: 0
  4635                           ;MCAL_Layer/EEPROM/hal_eeprom.c: 71:         EEADRH = (uint8)((adr >> 8) & 0x03);
  4636   00388A  5181               	movf	(Data_EEPROM_ReadByte@adr+1)& (0+255),w,b
  4637   00388C  0B03               	andlw	3
  4638   00388E  6EAA               	movwf	170,c	;volatile
  4639   003890                     
  4640                           ; BSR set to: 0
  4641                           ;MCAL_Layer/EEPROM/hal_eeprom.c: 72:         EEADR = (uint8)(adr & 0xFF);
  4642   003890  C080  FFA9         	movff	Data_EEPROM_ReadByte@adr,4009	;volatile
  4643   003894                     
  4644                           ; BSR set to: 0
  4645                           ;MCAL_Layer/EEPROM/hal_eeprom.c: 75:         EECON1bits.EEPGD = 0;
  4646   003894  9EA6               	bcf	166,7,c	;volsfr
  4647   003896                     
  4648                           ; BSR set to: 0
  4649                           ;MCAL_Layer/EEPROM/hal_eeprom.c: 76:         EECON1bits.CFGS = 0;
  4650   003896  9CA6               	bcf	166,6,c	;volsfr
  4651   003898                     
  4652                           ; BSR set to: 0
  4653                           ;MCAL_Layer/EEPROM/hal_eeprom.c: 79:         EECON1bits.RD = 1;
  4654   003898  80A6               	bsf	166,0,c	;volsfr
  4655   00389A                     
  4656                           ; BSR set to: 0
  4657                           ;MCAL_Layer/EEPROM/hal_eeprom.c: 81:         __nop();
  4658   00389A  0000               	nop	
  4659   00389C                     
  4660                           ;MCAL_Layer/EEPROM/hal_eeprom.c: 82:         __nop();
  4661   00389C  0000               	nop	
  4662   00389E                     
  4663                           ;MCAL_Layer/EEPROM/hal_eeprom.c: 85:         *data = EEDATA;
  4664   00389E  0100               	movlb	0	; () banked
  4665   0038A0  5182               	movf	Data_EEPROM_ReadByte@data& (0+255),w,b
  4666   0038A2  6ED9               	movwf	fsr2l,c
  4667   0038A4  6ADA               	clrf	fsr2h,c
  4668   0038A6  CFA8 FFDF          	movff	4008,indf2	;volatile
  4669   0038AA                     l267:
  4670                           
  4671                           ; BSR set to: 0
  4672   0038AA  0012               	return		;funcret
  4673   0038AC                     __end_of_Data_EEPROM_ReadByte:
  4674                           	callstack 0
  4675                           
  4676 ;; *************** function _lcd_4bit_send_string_pos *****************
  4677 ;; Defined at:
  4678 ;;		line 154 in file "ECU_Layer/LCD/ecu_lcd.c"
  4679 ;; Parameters:    Size  Location     Type
  4680 ;;  lcd             1   20[BANK0 ] PTR const struct .
  4681 ;;		 -> lcd(6), 
  4682 ;;  str             2   21[BANK0 ] PTR unsigned char 
  4683 ;;		 -> STR_15(16), STR_14(16), STR_13(16), STR_12(16), 
  4684 ;;		 -> STR_11(3), STR_10(3), STR_9(3), STR_8(3), 
  4685 ;;		 -> can_D_str(6), can_C_str(6), can_B_str(6), can_A_str(6), 
  4686 ;;		 -> STR_7(16), STR_6(4), STR_5(8), STR_4(8), 
  4687 ;;  row             1   23[BANK0 ] unsigned char 
  4688 ;;  column          1   24[BANK0 ] unsigned char 
  4689 ;; Auto vars:     Size  Location     Type
  4690 ;;  ret             1   25[BANK0 ] unsigned char 
  4691 ;; Return value:  Size  Location     Type
  4692 ;;                  1    wreg      unsigned char 
  4693 ;; Registers used:
  4694 ;;		wreg, fsr0l, fsr0h, fsr2l, fsr2h, status,2, status,0, tblptrl, tblptrh, tblptru, prodl, prodh, cstack
  4695 ;; Tracked objects:
  4696 ;;		On entry : 0/0
  4697 ;;		On exit  : 0/0
  4698 ;;		Unchanged: 0/0
  4699 ;; Data sizes:     COMRAM   BANK0   BANK1   BANK2   BANK3   BANK4   BANK5   BANK6   BANK7   BANK8   BANK9  BANK10  BANK1
      +1  BANK12  BANK13  BANK14  BANK15
  4700 ;;      Params:         0       5       0       0       0       0       0       0       0       0       0       0       
      +0       0       0       0       0
  4701 ;;      Locals:         0       1       0       0       0       0       0       0       0       0       0       0       
      +0       0       0       0       0
  4702 ;;      Temps:          0       0       0       0       0       0       0       0       0       0       0       0       
      +0       0       0       0       0
  4703 ;;      Totals:         0       6       0       0       0       0       0       0       0       0       0       0       
      +0       0       0       0       0
  4704 ;;Total ram usage:        6 bytes
  4705 ;; Hardware stack levels used: 1
  4706 ;; Hardware stack levels required when called: 14
  4707 ;; This function calls:
  4708 ;;		_lcd_4bit_send_char_data
  4709 ;;		_lcd_4bit_set_cursor
  4710 ;; This function is called by:
  4711 ;;		_welcome_message
  4712 ;;		_loading_screen
  4713 ;;		_display
  4714 ;;		_winner
  4715 ;; This function uses a non-reentrant model
  4716 ;;
  4717                           
  4718                           	psect	text25
  4719   002724                     __ptext25:
  4720                           	callstack 0
  4721   002724                     _lcd_4bit_send_string_pos:
  4722                           	callstack 15
  4723   002724                     
  4724                           ;ECU_Layer/LCD/ecu_lcd.c: 157:     if ((lcd == ((void*)0)) || (str == ((void*)0))){
  4725   002724  0100               	movlb	0	; () banked
  4726   002726  5194               	movf	lcd_4bit_send_string_pos@lcd& (0+255),w,b
  4727   002728  B4D8               	btfsc	status,2,c
  4728   00272A  EF99  F013         	goto	u6071
  4729   00272E  EF9B  F013         	goto	u6070
  4730   002732                     u6071:
  4731   002732  EFA4  F013         	goto	l6427
  4732   002736                     u6070:
  4733   002736                     
  4734                           ; BSR set to: 0
  4735   002736  5195               	movf	lcd_4bit_send_string_pos@str& (0+255),w,b
  4736   002738  1196               	iorwf	(lcd_4bit_send_string_pos@str+1)& (0+255),w,b
  4737   00273A  A4D8               	btfss	status,2,c
  4738   00273C  EFA2  F013         	goto	u6081
  4739   002740  EFA4  F013         	goto	u6080
  4740   002744                     u6081:
  4741   002744  EFA8  F013         	goto	l6429
  4742   002748                     u6080:
  4743   002748                     l6427:
  4744                           
  4745                           ; BSR set to: 0
  4746                           ;ECU_Layer/LCD/ecu_lcd.c: 158:         ret = (Std_ReturnType)0x00;
  4747   002748  0E00               	movlw	0
  4748   00274A  6F99               	movwf	lcd_4bit_send_string_pos@ret& (0+255),b
  4749                           
  4750                           ;ECU_Layer/LCD/ecu_lcd.c: 159:     }
  4751   00274C  EFE8  F013         	goto	l87
  4752   002750                     l6429:
  4753                           
  4754                           ; BSR set to: 0
  4755   002750  C094  F090         	movff	lcd_4bit_send_string_pos@lcd,lcd_4bit_set_cursor@lcd
  4756   002754  C097  F091         	movff	lcd_4bit_send_string_pos@row,lcd_4bit_set_cursor@row
  4757   002758  C098  F092         	movff	lcd_4bit_send_string_pos@column,lcd_4bit_set_cursor@column
  4758   00275C  EC32  F016         	call	_lcd_4bit_set_cursor	;wreg free
  4759                           
  4760                           ;ECU_Layer/LCD/ecu_lcd.c: 162:         while(*str){
  4761   002760  EFCC  F013         	goto	l6435
  4762   002764                     l6431:
  4763   002764  C094  F08D         	movff	lcd_4bit_send_string_pos@lcd,lcd_4bit_send_char_data@lcd
  4764   002768  C095  FFF6         	movff	lcd_4bit_send_string_pos@str,tblptrl
  4765   00276C  C096  FFF7         	movff	lcd_4bit_send_string_pos@str+1,tblptrh
  4766   002770  0E00               	movlw	low (__smallconst shr (0+16))
  4767   002772  6EF8               	movwf	tblptru,c
  4768   002774  0E0F               	movlw	(high __ramtop+-1)
  4769   002776  64F7               	cpfsgt	tblptrh,c
  4770   002778  D003               	bra	u6097
  4771   00277A  0008               	tblrd		*
  4772   00277C  50F5               	movf	tablat,w,c
  4773   00277E  D005               	bra	u6090
  4774   002780                     u6097:
  4775   002780  CFF6 FFE9          	movff	tblptrl,fsr0l
  4776   002784  CFF7 FFEA          	movff	tblptrh,fsr0h
  4777   002788  50EF               	movf	indf0,w,c
  4778   00278A                     u6090:
  4779   00278A  0100               	movlb	0	; () banked
  4780   00278C  6F8E               	movwf	lcd_4bit_send_char_data@data& (0+255),b
  4781   00278E  ECB6  F019         	call	_lcd_4bit_send_char_data	;wreg free
  4782   002792  0100               	movlb	0	; () banked
  4783   002794  4B95               	infsnz	lcd_4bit_send_string_pos@str& (0+255),f,b
  4784   002796  2B96               	incf	(lcd_4bit_send_string_pos@str+1)& (0+255),f,b
  4785   002798                     l6435:
  4786                           
  4787                           ;ECU_Layer/LCD/ecu_lcd.c: 162:         while(*str){
  4788   002798  C095  FFF6         	movff	lcd_4bit_send_string_pos@str,tblptrl
  4789   00279C  C096  FFF7         	movff	lcd_4bit_send_string_pos@str+1,tblptrh
  4790   0027A0  0E00               	movlw	low (__smallconst shr (0+16))
  4791   0027A2  6EF8               	movwf	tblptru,c
  4792   0027A4  0E0F               	movlw	(high __ramtop+-1)
  4793   0027A6  64F7               	cpfsgt	tblptrh,c
  4794   0027A8  D003               	bra	u6107
  4795   0027AA  0008               	tblrd		*
  4796   0027AC  50F5               	movf	tablat,w,c
  4797   0027AE  D005               	bra	u6100
  4798   0027B0                     u6107:
  4799   0027B0  CFF6 FFE9          	movff	tblptrl,fsr0l
  4800   0027B4  CFF7 FFEA          	movff	tblptrh,fsr0h
  4801   0027B8  50EF               	movf	indf0,w,c
  4802   0027BA                     u6100:
  4803   0027BA  0900               	iorlw	0
  4804   0027BC  A4D8               	btfss	status,2,c
  4805   0027BE  EFE3  F013         	goto	u6111
  4806   0027C2  EFE5  F013         	goto	u6110
  4807   0027C6                     u6111:
  4808   0027C6  EFB2  F013         	goto	l6431
  4809   0027CA                     u6110:
  4810   0027CA                     
  4811                           ;ECU_Layer/LCD/ecu_lcd.c: 165:         ret = (Std_ReturnType)0x01;
  4812   0027CA  0E01               	movlw	1
  4813   0027CC  0100               	movlb	0	; () banked
  4814   0027CE  6F99               	movwf	lcd_4bit_send_string_pos@ret& (0+255),b
  4815   0027D0                     l87:
  4816                           
  4817                           ; BSR set to: 0
  4818                           ;ECU_Layer/LCD/ecu_lcd.c: 168:     return ret;
  4819   0027D0  5199               	movf	lcd_4bit_send_string_pos@ret& (0+255),w,b
  4820   0027D2                     
  4821                           ; BSR set to: 0
  4822   0027D2  0012               	return		;funcret
  4823   0027D4                     __end_of_lcd_4bit_send_string_pos:
  4824                           	callstack 0
  4825                           
  4826 ;; *************** function _lcd_4bit_set_cursor *****************
  4827 ;; Defined at:
  4828 ;;		line 437 in file "ECU_Layer/LCD/ecu_lcd.c"
  4829 ;; Parameters:    Size  Location     Type
  4830 ;;  lcd             1   16[BANK0 ] PTR const struct .
  4831 ;;		 -> lcd(6), 
  4832 ;;  row             1   17[BANK0 ] unsigned char 
  4833 ;;  column          1   18[BANK0 ] unsigned char 
  4834 ;; Auto vars:     Size  Location     Type
  4835 ;;  ret             1   19[BANK0 ] unsigned char 
  4836 ;; Return value:  Size  Location     Type
  4837 ;;                  1    wreg      unsigned char 
  4838 ;; Registers used:
  4839 ;;		wreg, fsr2l, fsr2h, status,2, status,0, prodl, prodh, cstack
  4840 ;; Tracked objects:
  4841 ;;		On entry : 0/0
  4842 ;;		On exit  : 0/0
  4843 ;;		Unchanged: 0/0
  4844 ;; Data sizes:     COMRAM   BANK0   BANK1   BANK2   BANK3   BANK4   BANK5   BANK6   BANK7   BANK8   BANK9  BANK10  BANK1
      +1  BANK12  BANK13  BANK14  BANK15
  4845 ;;      Params:         0       3       0       0       0       0       0       0       0       0       0       0       
      +0       0       0       0       0
  4846 ;;      Locals:         0       1       0       0       0       0       0       0       0       0       0       0       
      +0       0       0       0       0
  4847 ;;      Temps:          0       0       0       0       0       0       0       0       0       0       0       0       
      +0       0       0       0       0
  4848 ;;      Totals:         0       4       0       0       0       0       0       0       0       0       0       0       
      +0       0       0       0       0
  4849 ;;Total ram usage:        4 bytes
  4850 ;; Hardware stack levels used: 1
  4851 ;; Hardware stack levels required when called: 13
  4852 ;; This function calls:
  4853 ;;		_lcd_4bit_send_command
  4854 ;; This function is called by:
  4855 ;;		_lcd_4bit_send_char_data_pos
  4856 ;;		_lcd_4bit_send_string_pos
  4857 ;; This function uses a non-reentrant model
  4858 ;;
  4859                           
  4860                           	psect	text26
  4861   002C64                     __ptext26:
  4862                           	callstack 0
  4863   002C64                     _lcd_4bit_set_cursor:
  4864                           	callstack 15
  4865   002C64                     
  4866                           ;ECU_Layer/LCD/ecu_lcd.c: 440:     if (lcd == ((void*)0)){
  4867   002C64  0100               	movlb	0	; () banked
  4868   002C66  5190               	movf	lcd_4bit_set_cursor@lcd& (0+255),w,b
  4869   002C68  A4D8               	btfss	status,2,c
  4870   002C6A  EF39  F016         	goto	u5791
  4871   002C6E  EF3B  F016         	goto	u5790
  4872   002C72                     u5791:
  4873   002C72  EF3F  F016         	goto	l6111
  4874   002C76                     u5790:
  4875   002C76                     
  4876                           ; BSR set to: 0
  4877                           ;ECU_Layer/LCD/ecu_lcd.c: 441:         ret = (Std_ReturnType)0x00;
  4878   002C76  0E00               	movlw	0
  4879   002C78  6F93               	movwf	lcd_4bit_set_cursor@ret& (0+255),b
  4880                           
  4881                           ;ECU_Layer/LCD/ecu_lcd.c: 442:     }
  4882   002C7A  EF7C  F016         	goto	l167
  4883   002C7E                     l6111:
  4884                           
  4885                           ; BSR set to: 0
  4886                           ;ECU_Layer/LCD/ecu_lcd.c: 444:         column--;
  4887   002C7E  0792               	decf	lcd_4bit_set_cursor@column& (0+255),f,b
  4888                           
  4889                           ;ECU_Layer/LCD/ecu_lcd.c: 445:         switch(row){
  4890   002C80  EF66  F016         	goto	l6121
  4891   002C84                     l6113:
  4892                           
  4893                           ; BSR set to: 0
  4894   002C84  C090  F08D         	movff	lcd_4bit_set_cursor@lcd,lcd_4bit_send_command@lcd
  4895   002C88  5192               	movf	lcd_4bit_set_cursor@column& (0+255),w,b
  4896   002C8A  0F80               	addlw	128
  4897   002C8C  6F8E               	movwf	lcd_4bit_send_command@command& (0+255),b
  4898   002C8E  EC7F  F019         	call	_lcd_4bit_send_command	;wreg free
  4899   002C92  EF79  F016         	goto	l6123
  4900   002C96                     l6115:
  4901                           
  4902                           ; BSR set to: 0
  4903   002C96  C090  F08D         	movff	lcd_4bit_set_cursor@lcd,lcd_4bit_send_command@lcd
  4904   002C9A  5192               	movf	lcd_4bit_set_cursor@column& (0+255),w,b
  4905   002C9C  0FC0               	addlw	192
  4906   002C9E  6F8E               	movwf	lcd_4bit_send_command@command& (0+255),b
  4907   002CA0  EC7F  F019         	call	_lcd_4bit_send_command	;wreg free
  4908   002CA4  EF79  F016         	goto	l6123
  4909   002CA8                     l6117:
  4910                           
  4911                           ; BSR set to: 0
  4912   002CA8  C090  F08D         	movff	lcd_4bit_set_cursor@lcd,lcd_4bit_send_command@lcd
  4913   002CAC  5192               	movf	lcd_4bit_set_cursor@column& (0+255),w,b
  4914   002CAE  0F94               	addlw	148
  4915   002CB0  6F8E               	movwf	lcd_4bit_send_command@command& (0+255),b
  4916   002CB2  EC7F  F019         	call	_lcd_4bit_send_command	;wreg free
  4917   002CB6  EF79  F016         	goto	l6123
  4918   002CBA                     l6119:
  4919                           
  4920                           ; BSR set to: 0
  4921   002CBA  C090  F08D         	movff	lcd_4bit_set_cursor@lcd,lcd_4bit_send_command@lcd
  4922   002CBE  5192               	movf	lcd_4bit_set_cursor@column& (0+255),w,b
  4923   002CC0  0FD4               	addlw	212
  4924   002CC2  6F8E               	movwf	lcd_4bit_send_command@command& (0+255),b
  4925   002CC4  EC7F  F019         	call	_lcd_4bit_send_command	;wreg free
  4926   002CC8  EF79  F016         	goto	l6123
  4927   002CCC                     l6121:
  4928                           
  4929                           ; BSR set to: 0
  4930   002CCC  5191               	movf	lcd_4bit_set_cursor@row& (0+255),w,b
  4931                           
  4932                           ; Switch size 1, requested type "simple"
  4933                           ; Number of cases is 4, Range of values is 1 to 4
  4934                           ; switch strategies available:
  4935                           ; Name         Instructions Cycles
  4936                           ; simple_byte           13     7 (average)
  4937                           ;	Chosen strategy is simple_byte
  4938   002CCE  0A01               	xorlw	1	; case 1
  4939   002CD0  B4D8               	btfsc	status,2,c
  4940   002CD2  EF42  F016         	goto	l6113
  4941   002CD6  0A03               	xorlw	3	; case 2
  4942   002CD8  B4D8               	btfsc	status,2,c
  4943   002CDA  EF4B  F016         	goto	l6115
  4944   002CDE  0A01               	xorlw	1	; case 3
  4945   002CE0  B4D8               	btfsc	status,2,c
  4946   002CE2  EF54  F016         	goto	l6117
  4947   002CE6  0A07               	xorlw	7	; case 4
  4948   002CE8  B4D8               	btfsc	status,2,c
  4949   002CEA  EF5D  F016         	goto	l6119
  4950   002CEE  EF79  F016         	goto	l6123
  4951   002CF2                     l6123:
  4952                           
  4953                           ;ECU_Layer/LCD/ecu_lcd.c: 452:         ret = (Std_ReturnType)0x01;
  4954   002CF2  0E01               	movlw	1
  4955   002CF4  0100               	movlb	0	; () banked
  4956   002CF6  6F93               	movwf	lcd_4bit_set_cursor@ret& (0+255),b
  4957   002CF8                     l167:
  4958                           
  4959                           ; BSR set to: 0
  4960                           ;ECU_Layer/LCD/ecu_lcd.c: 455:     return ret;
  4961   002CF8  5193               	movf	lcd_4bit_set_cursor@ret& (0+255),w,b
  4962   002CFA                     
  4963                           ; BSR set to: 0
  4964   002CFA  0012               	return		;funcret
  4965   002CFC                     __end_of_lcd_4bit_set_cursor:
  4966                           	callstack 0
  4967                           
  4968 ;; *************** function _lcd_4bit_send_command *****************
  4969 ;; Defined at:
  4970 ;;		line 59 in file "ECU_Layer/LCD/ecu_lcd.c"
  4971 ;; Parameters:    Size  Location     Type
  4972 ;;  lcd             1   13[BANK0 ] PTR const struct .
  4973 ;;		 -> lcd(6), 
  4974 ;;  command         1   14[BANK0 ] unsigned char 
  4975 ;; Auto vars:     Size  Location     Type
  4976 ;;  ret             1   15[BANK0 ] unsigned char 
  4977 ;; Return value:  Size  Location     Type
  4978 ;;                  1    wreg      unsigned char 
  4979 ;; Registers used:
  4980 ;;		wreg, fsr2l, fsr2h, status,2, status,0, prodl, prodh, cstack
  4981 ;; Tracked objects:
  4982 ;;		On entry : 0/0
  4983 ;;		On exit  : 0/0
  4984 ;;		Unchanged: 0/0
  4985 ;; Data sizes:     COMRAM   BANK0   BANK1   BANK2   BANK3   BANK4   BANK5   BANK6   BANK7   BANK8   BANK9  BANK10  BANK1
      +1  BANK12  BANK13  BANK14  BANK15
  4986 ;;      Params:         0       2       0       0       0       0       0       0       0       0       0       0       
      +0       0       0       0       0
  4987 ;;      Locals:         0       1       0       0       0       0       0       0       0       0       0       0       
      +0       0       0       0       0
  4988 ;;      Temps:          0       0       0       0       0       0       0       0       0       0       0       0       
      +0       0       0       0       0
  4989 ;;      Totals:         0       3       0       0       0       0       0       0       0       0       0       0       
      +0       0       0       0       0
  4990 ;;Total ram usage:        3 bytes
  4991 ;; Hardware stack levels used: 1
  4992 ;; Hardware stack levels required when called: 12
  4993 ;; This function calls:
  4994 ;;		_gpio_pin_write_logic
  4995 ;;		_lcd_4bit_enable_signal
  4996 ;;		_lcd_send_4bits
  4997 ;; This function is called by:
  4998 ;;		_lcd_4bit_initialize
  4999 ;;		_lcd_4bit_set_cursor
  5000 ;;		_welcome_message
  5001 ;;		_loading_screen
  5002 ;;		_display
  5003 ;;		_winner
  5004 ;;		_lcd_4bit_send_custom_char
  5005 ;; This function uses a non-reentrant model
  5006 ;;
  5007                           
  5008                           	psect	text27
  5009   0032FE                     __ptext27:
  5010                           	callstack 0
  5011   0032FE                     _lcd_4bit_send_command:
  5012                           	callstack 15
  5013   0032FE                     
  5014                           ;ECU_Layer/LCD/ecu_lcd.c: 62:     if (lcd == ((void*)0)){
  5015   0032FE  0100               	movlb	0	; () banked
  5016   003300  518D               	movf	lcd_4bit_send_command@lcd& (0+255),w,b
  5017   003302  A4D8               	btfss	status,2,c
  5018   003304  EF86  F019         	goto	u5721
  5019   003308  EF88  F019         	goto	u5720
  5020   00330C                     u5721:
  5021   00330C  EF8C  F019         	goto	l6069
  5022   003310                     u5720:
  5023   003310                     
  5024                           ; BSR set to: 0
  5025                           ;ECU_Layer/LCD/ecu_lcd.c: 63:         ret = (Std_ReturnType)0x00;
  5026   003310  0E00               	movlw	0
  5027   003312  6F8F               	movwf	lcd_4bit_send_command@ret& (0+255),b
  5028                           
  5029                           ;ECU_Layer/LCD/ecu_lcd.c: 64:     }
  5030   003314  EFB4  F019         	goto	l6073
  5031   003318                     l6069:
  5032                           
  5033                           ; BSR set to: 0
  5034                           ;ECU_Layer/LCD/ecu_lcd.c: 66:         ret = gpio_pin_write_logic(&(lcd->lcd_rs), GPIO_LO
      +                          W);
  5035   003318  C08D  F080         	movff	lcd_4bit_send_command@lcd,gpio_pin_write_logic@pin_config
  5036   00331C  6B81               	clrf	(gpio_pin_write_logic@pin_config+1)& (0+255),b
  5037   00331E  0E00               	movlw	0
  5038   003320  6F82               	movwf	gpio_pin_write_logic@logic& (0+255),b
  5039   003322  EC73  F010         	call	_gpio_pin_write_logic	;wreg free
  5040   003326  0100               	movlb	0	; () banked
  5041   003328  6F8F               	movwf	lcd_4bit_send_command@ret& (0+255),b
  5042                           
  5043                           ;ECU_Layer/LCD/ecu_lcd.c: 67:         ret = lcd_send_4bits(lcd, (command >> 4));
  5044   00332A  C08D  F089         	movff	lcd_4bit_send_command@lcd,lcd_send_4bits@lcd
  5045   00332E  398E               	swapf	lcd_4bit_send_command@command& (0+255),w,b
  5046   003330  0B0F               	andlw	15
  5047   003332  6F8A               	movwf	lcd_send_4bits@data& (0+255),b
  5048   003334  ECE4  F015         	call	_lcd_send_4bits	;wreg free
  5049   003338  0100               	movlb	0	; () banked
  5050   00333A  6F8F               	movwf	lcd_4bit_send_command@ret& (0+255),b
  5051                           
  5052                           ;ECU_Layer/LCD/ecu_lcd.c: 68:         ret = lcd_4bit_enable_signal(lcd);
  5053   00333C  C08D  F089         	movff	lcd_4bit_send_command@lcd,lcd_4bit_enable_signal@lcd
  5054   003340  ECD6  F01A         	call	_lcd_4bit_enable_signal	;wreg free
  5055   003344  0100               	movlb	0	; () banked
  5056   003346  6F8F               	movwf	lcd_4bit_send_command@ret& (0+255),b
  5057                           
  5058                           ;ECU_Layer/LCD/ecu_lcd.c: 69:         ret = lcd_send_4bits(lcd, command);
  5059   003348  C08D  F089         	movff	lcd_4bit_send_command@lcd,lcd_send_4bits@lcd
  5060   00334C  C08E  F08A         	movff	lcd_4bit_send_command@command,lcd_send_4bits@data
  5061   003350  ECE4  F015         	call	_lcd_send_4bits	;wreg free
  5062   003354  0100               	movlb	0	; () banked
  5063   003356  6F8F               	movwf	lcd_4bit_send_command@ret& (0+255),b
  5064                           
  5065                           ;ECU_Layer/LCD/ecu_lcd.c: 70:         ret = lcd_4bit_enable_signal(lcd);
  5066   003358  C08D  F089         	movff	lcd_4bit_send_command@lcd,lcd_4bit_enable_signal@lcd
  5067   00335C  ECD6  F01A         	call	_lcd_4bit_enable_signal	;wreg free
  5068   003360  0100               	movlb	0	; () banked
  5069   003362  6F8F               	movwf	lcd_4bit_send_command@ret& (0+255),b
  5070   003364                     
  5071                           ; BSR set to: 0
  5072                           ;ECU_Layer/LCD/ecu_lcd.c: 71:         ret = (Std_ReturnType)0x01;
  5073   003364  0E01               	movlw	1
  5074   003366  6F8F               	movwf	lcd_4bit_send_command@ret& (0+255),b
  5075   003368                     l6073:
  5076                           
  5077                           ; BSR set to: 0
  5078                           ;ECU_Layer/LCD/ecu_lcd.c: 74:     return ret;
  5079   003368  518F               	movf	lcd_4bit_send_command@ret& (0+255),w,b
  5080   00336A                     
  5081                           ; BSR set to: 0
  5082   00336A  0012               	return		;funcret
  5083   00336C                     __end_of_lcd_4bit_send_command:
  5084                           	callstack 0
  5085                           
  5086 ;; *************** function _lcd_4bit_send_char_data *****************
  5087 ;; Defined at:
  5088 ;;		line 83 in file "ECU_Layer/LCD/ecu_lcd.c"
  5089 ;; Parameters:    Size  Location     Type
  5090 ;;  lcd             1   13[BANK0 ] PTR const struct .
  5091 ;;		 -> lcd(6), 
  5092 ;;  data            1   14[BANK0 ] unsigned char 
  5093 ;; Auto vars:     Size  Location     Type
  5094 ;;  ret             1   15[BANK0 ] unsigned char 
  5095 ;; Return value:  Size  Location     Type
  5096 ;;                  1    wreg      unsigned char 
  5097 ;; Registers used:
  5098 ;;		wreg, fsr2l, fsr2h, status,2, status,0, prodl, prodh, cstack
  5099 ;; Tracked objects:
  5100 ;;		On entry : 0/0
  5101 ;;		On exit  : 0/0
  5102 ;;		Unchanged: 0/0
  5103 ;; Data sizes:     COMRAM   BANK0   BANK1   BANK2   BANK3   BANK4   BANK5   BANK6   BANK7   BANK8   BANK9  BANK10  BANK1
      +1  BANK12  BANK13  BANK14  BANK15
  5104 ;;      Params:         0       2       0       0       0       0       0       0       0       0       0       0       
      +0       0       0       0       0
  5105 ;;      Locals:         0       1       0       0       0       0       0       0       0       0       0       0       
      +0       0       0       0       0
  5106 ;;      Temps:          0       0       0       0       0       0       0       0       0       0       0       0       
      +0       0       0       0       0
  5107 ;;      Totals:         0       3       0       0       0       0       0       0       0       0       0       0       
      +0       0       0       0       0
  5108 ;;Total ram usage:        3 bytes
  5109 ;; Hardware stack levels used: 1
  5110 ;; Hardware stack levels required when called: 12
  5111 ;; This function calls:
  5112 ;;		_gpio_pin_write_logic
  5113 ;;		_lcd_4bit_enable_signal
  5114 ;;		_lcd_send_4bits
  5115 ;; This function is called by:
  5116 ;;		_lcd_4bit_send_char_data_pos
  5117 ;;		_lcd_4bit_send_string_pos
  5118 ;;		_lcd_4bit_send_string
  5119 ;;		_lcd_4bit_send_custom_char
  5120 ;; This function uses a non-reentrant model
  5121 ;;
  5122                           
  5123                           	psect	text28
  5124   00336C                     __ptext28:
  5125                           	callstack 0
  5126   00336C                     _lcd_4bit_send_char_data:
  5127                           	callstack 16
  5128   00336C                     
  5129                           ;ECU_Layer/LCD/ecu_lcd.c: 86:     if (lcd == ((void*)0)){
  5130   00336C  0100               	movlb	0	; () banked
  5131   00336E  518D               	movf	lcd_4bit_send_char_data@lcd& (0+255),w,b
  5132   003370  A4D8               	btfss	status,2,c
  5133   003372  EFBD  F019         	goto	u5781
  5134   003376  EFBF  F019         	goto	u5780
  5135   00337A                     u5781:
  5136   00337A  EFC3  F019         	goto	l6099
  5137   00337E                     u5780:
  5138   00337E                     
  5139                           ; BSR set to: 0
  5140                           ;ECU_Layer/LCD/ecu_lcd.c: 87:         ret = (Std_ReturnType)0x00;
  5141   00337E  0E00               	movlw	0
  5142   003380  6F8F               	movwf	lcd_4bit_send_char_data@ret& (0+255),b
  5143                           
  5144                           ;ECU_Layer/LCD/ecu_lcd.c: 88:     }
  5145   003382  EFEB  F019         	goto	l6103
  5146   003386                     l6099:
  5147                           
  5148                           ; BSR set to: 0
  5149                           ;ECU_Layer/LCD/ecu_lcd.c: 90:         ret = gpio_pin_write_logic(&(lcd->lcd_rs), GPIO_HI
      +                          GH);
  5150   003386  C08D  F080         	movff	lcd_4bit_send_char_data@lcd,gpio_pin_write_logic@pin_config
  5151   00338A  6B81               	clrf	(gpio_pin_write_logic@pin_config+1)& (0+255),b
  5152   00338C  0E01               	movlw	1
  5153   00338E  6F82               	movwf	gpio_pin_write_logic@logic& (0+255),b
  5154   003390  EC73  F010         	call	_gpio_pin_write_logic	;wreg free
  5155   003394  0100               	movlb	0	; () banked
  5156   003396  6F8F               	movwf	lcd_4bit_send_char_data@ret& (0+255),b
  5157                           
  5158                           ;ECU_Layer/LCD/ecu_lcd.c: 91:         ret = lcd_send_4bits(lcd, (data >> 4));
  5159   003398  C08D  F089         	movff	lcd_4bit_send_char_data@lcd,lcd_send_4bits@lcd
  5160   00339C  398E               	swapf	lcd_4bit_send_char_data@data& (0+255),w,b
  5161   00339E  0B0F               	andlw	15
  5162   0033A0  6F8A               	movwf	lcd_send_4bits@data& (0+255),b
  5163   0033A2  ECE4  F015         	call	_lcd_send_4bits	;wreg free
  5164   0033A6  0100               	movlb	0	; () banked
  5165   0033A8  6F8F               	movwf	lcd_4bit_send_char_data@ret& (0+255),b
  5166                           
  5167                           ;ECU_Layer/LCD/ecu_lcd.c: 92:         ret = lcd_4bit_enable_signal(lcd);
  5168   0033AA  C08D  F089         	movff	lcd_4bit_send_char_data@lcd,lcd_4bit_enable_signal@lcd
  5169   0033AE  ECD6  F01A         	call	_lcd_4bit_enable_signal	;wreg free
  5170   0033B2  0100               	movlb	0	; () banked
  5171   0033B4  6F8F               	movwf	lcd_4bit_send_char_data@ret& (0+255),b
  5172                           
  5173                           ;ECU_Layer/LCD/ecu_lcd.c: 93:         ret = lcd_send_4bits(lcd, data);
  5174   0033B6  C08D  F089         	movff	lcd_4bit_send_char_data@lcd,lcd_send_4bits@lcd
  5175   0033BA  C08E  F08A         	movff	lcd_4bit_send_char_data@data,lcd_send_4bits@data
  5176   0033BE  ECE4  F015         	call	_lcd_send_4bits	;wreg free
  5177   0033C2  0100               	movlb	0	; () banked
  5178   0033C4  6F8F               	movwf	lcd_4bit_send_char_data@ret& (0+255),b
  5179                           
  5180                           ;ECU_Layer/LCD/ecu_lcd.c: 94:         ret = lcd_4bit_enable_signal(lcd);
  5181   0033C6  C08D  F089         	movff	lcd_4bit_send_char_data@lcd,lcd_4bit_enable_signal@lcd
  5182   0033CA  ECD6  F01A         	call	_lcd_4bit_enable_signal	;wreg free
  5183   0033CE  0100               	movlb	0	; () banked
  5184   0033D0  6F8F               	movwf	lcd_4bit_send_char_data@ret& (0+255),b
  5185   0033D2                     
  5186                           ; BSR set to: 0
  5187                           ;ECU_Layer/LCD/ecu_lcd.c: 95:         ret = (Std_ReturnType)0x01;
  5188   0033D2  0E01               	movlw	1
  5189   0033D4  6F8F               	movwf	lcd_4bit_send_char_data@ret& (0+255),b
  5190   0033D6                     l6103:
  5191                           
  5192                           ; BSR set to: 0
  5193                           ;ECU_Layer/LCD/ecu_lcd.c: 98:     return ret;
  5194   0033D6  518F               	movf	lcd_4bit_send_char_data@ret& (0+255),w,b
  5195   0033D8                     
  5196                           ; BSR set to: 0
  5197   0033D8  0012               	return		;funcret
  5198   0033DA                     __end_of_lcd_4bit_send_char_data:
  5199                           	callstack 0
  5200                           
  5201 ;; *************** function _lcd_send_4bits *****************
  5202 ;; Defined at:
  5203 ;;		line 388 in file "ECU_Layer/LCD/ecu_lcd.c"
  5204 ;; Parameters:    Size  Location     Type
  5205 ;;  lcd             1    9[BANK0 ] PTR const struct .
  5206 ;;		 -> lcd(6), 
  5207 ;;  data            1   10[BANK0 ] unsigned char 
  5208 ;; Auto vars:     Size  Location     Type
  5209 ;;  ret             1   12[BANK0 ] unsigned char 
  5210 ;; Return value:  Size  Location     Type
  5211 ;;                  1    wreg      unsigned char 
  5212 ;; Registers used:
  5213 ;;		wreg, fsr2l, fsr2h, status,2, status,0, prodl, prodh, cstack
  5214 ;; Tracked objects:
  5215 ;;		On entry : 0/0
  5216 ;;		On exit  : 0/0
  5217 ;;		Unchanged: 0/0
  5218 ;; Data sizes:     COMRAM   BANK0   BANK1   BANK2   BANK3   BANK4   BANK5   BANK6   BANK7   BANK8   BANK9  BANK10  BANK1
      +1  BANK12  BANK13  BANK14  BANK15
  5219 ;;      Params:         0       2       0       0       0       0       0       0       0       0       0       0       
      +0       0       0       0       0
  5220 ;;      Locals:         0       1       0       0       0       0       0       0       0       0       0       0       
      +0       0       0       0       0
  5221 ;;      Temps:          0       1       0       0       0       0       0       0       0       0       0       0       
      +0       0       0       0       0
  5222 ;;      Totals:         0       4       0       0       0       0       0       0       0       0       0       0       
      +0       0       0       0       0
  5223 ;;Total ram usage:        4 bytes
  5224 ;; Hardware stack levels used: 1
  5225 ;; Hardware stack levels required when called: 11
  5226 ;; This function calls:
  5227 ;;		_gpio_pin_write_logic
  5228 ;; This function is called by:
  5229 ;;		_lcd_4bit_send_command
  5230 ;;		_lcd_4bit_send_char_data
  5231 ;; This function uses a non-reentrant model
  5232 ;;
  5233                           
  5234                           	psect	text29
  5235   002BC8                     __ptext29:
  5236                           	callstack 0
  5237   002BC8                     _lcd_send_4bits:
  5238                           	callstack 15
  5239   002BC8                     
  5240                           ;ECU_Layer/LCD/ecu_lcd.c: 391:     if (lcd == ((void*)0)){
  5241   002BC8  0100               	movlb	0	; () banked
  5242   002BCA  5189               	movf	lcd_send_4bits@lcd& (0+255),w,b
  5243   002BCC  A4D8               	btfss	status,2,c
  5244   002BCE  EFEB  F015         	goto	u5661
  5245   002BD2  EFED  F015         	goto	u5660
  5246   002BD6                     u5661:
  5247   002BD6  EFF1  F015         	goto	l5995
  5248   002BDA                     u5660:
  5249   002BDA                     
  5250                           ; BSR set to: 0
  5251                           ;ECU_Layer/LCD/ecu_lcd.c: 392:         ret = (Std_ReturnType)0x00;
  5252   002BDA  0E00               	movlw	0
  5253   002BDC  6F8C               	movwf	lcd_send_4bits@ret& (0+255),b
  5254                           
  5255                           ;ECU_Layer/LCD/ecu_lcd.c: 393:     }
  5256   002BDE  EF30  F016         	goto	l5999
  5257   002BE2                     l5995:
  5258                           
  5259                           ; BSR set to: 0
  5260                           ;ECU_Layer/LCD/ecu_lcd.c: 395:         ret = gpio_pin_write_logic(&(lcd->lcd_data[0]), (
      +                          data >> 0) & (uint8)0x01);
  5261   002BE2  C089  F08B         	movff	lcd_send_4bits@lcd,??_lcd_send_4bits
  5262   002BE6  0E02               	movlw	2
  5263   002BE8  278B               	addwf	??_lcd_send_4bits& (0+255),f,b
  5264   002BEA  C08B  F080         	movff	??_lcd_send_4bits,gpio_pin_write_logic@pin_config
  5265   002BEE  6B81               	clrf	(gpio_pin_write_logic@pin_config+1)& (0+255),b
  5266   002BF0  518A               	movf	lcd_send_4bits@data& (0+255),w,b
  5267   002BF2  0B01               	andlw	1
  5268   002BF4  6F82               	movwf	gpio_pin_write_logic@logic& (0+255),b
  5269   002BF6  EC73  F010         	call	_gpio_pin_write_logic	;wreg free
  5270   002BFA  0100               	movlb	0	; () banked
  5271   002BFC  6F8C               	movwf	lcd_send_4bits@ret& (0+255),b
  5272                           
  5273                           ;ECU_Layer/LCD/ecu_lcd.c: 396:         ret = gpio_pin_write_logic(&(lcd->lcd_data[1]), (
      +                          data >> 1) & (uint8)0x01);
  5274   002BFE  C089  F08B         	movff	lcd_send_4bits@lcd,??_lcd_send_4bits
  5275   002C02  0E03               	movlw	3
  5276   002C04  278B               	addwf	??_lcd_send_4bits& (0+255),f,b
  5277   002C06  C08B  F080         	movff	??_lcd_send_4bits,gpio_pin_write_logic@pin_config
  5278   002C0A  6B81               	clrf	(gpio_pin_write_logic@pin_config+1)& (0+255),b
  5279   002C0C  90D8               	bcf	status,0,c
  5280   002C0E  318A               	rrcf	lcd_send_4bits@data& (0+255),w,b
  5281   002C10  0B01               	andlw	1
  5282   002C12  6F82               	movwf	gpio_pin_write_logic@logic& (0+255),b
  5283   002C14  EC73  F010         	call	_gpio_pin_write_logic	;wreg free
  5284   002C18  0100               	movlb	0	; () banked
  5285   002C1A  6F8C               	movwf	lcd_send_4bits@ret& (0+255),b
  5286                           
  5287                           ;ECU_Layer/LCD/ecu_lcd.c: 397:         ret = gpio_pin_write_logic(&(lcd->lcd_data[2]), (
      +                          data >> 2) & (uint8)0x01);
  5288   002C1C  C089  F08B         	movff	lcd_send_4bits@lcd,??_lcd_send_4bits
  5289   002C20  0E04               	movlw	4
  5290   002C22  278B               	addwf	??_lcd_send_4bits& (0+255),f,b
  5291   002C24  C08B  F080         	movff	??_lcd_send_4bits,gpio_pin_write_logic@pin_config
  5292   002C28  6B81               	clrf	(gpio_pin_write_logic@pin_config+1)& (0+255),b
  5293   002C2A  418A               	rrncf	lcd_send_4bits@data& (0+255),w,b
  5294   002C2C  42E8               	rrncf	wreg,f,c
  5295   002C2E  0B3F               	andlw	63
  5296   002C30  0B01               	andlw	1
  5297   002C32  6F82               	movwf	gpio_pin_write_logic@logic& (0+255),b
  5298   002C34  EC73  F010         	call	_gpio_pin_write_logic	;wreg free
  5299   002C38  0100               	movlb	0	; () banked
  5300   002C3A  6F8C               	movwf	lcd_send_4bits@ret& (0+255),b
  5301                           
  5302                           ;ECU_Layer/LCD/ecu_lcd.c: 398:         ret = gpio_pin_write_logic(&(lcd->lcd_data[3]), (
      +                          data >> 3) & (uint8)0x01);
  5303   002C3C  C089  F08B         	movff	lcd_send_4bits@lcd,??_lcd_send_4bits
  5304   002C40  0E05               	movlw	5
  5305   002C42  278B               	addwf	??_lcd_send_4bits& (0+255),f,b
  5306   002C44  C08B  F080         	movff	??_lcd_send_4bits,gpio_pin_write_logic@pin_config
  5307   002C48  6B81               	clrf	(gpio_pin_write_logic@pin_config+1)& (0+255),b
  5308   002C4A  398A               	swapf	lcd_send_4bits@data& (0+255),w,b
  5309   002C4C  46E8               	rlncf	wreg,f,c
  5310   002C4E  0B1F               	andlw	31
  5311   002C50  0B01               	andlw	1
  5312   002C52  6F82               	movwf	gpio_pin_write_logic@logic& (0+255),b
  5313   002C54  EC73  F010         	call	_gpio_pin_write_logic	;wreg free
  5314   002C58  0100               	movlb	0	; () banked
  5315   002C5A  6F8C               	movwf	lcd_send_4bits@ret& (0+255),b
  5316   002C5C                     
  5317                           ; BSR set to: 0
  5318                           ;ECU_Layer/LCD/ecu_lcd.c: 399:         ret = (Std_ReturnType)0x01;
  5319   002C5C  0E01               	movlw	1
  5320   002C5E  6F8C               	movwf	lcd_send_4bits@ret& (0+255),b
  5321   002C60                     l5999:
  5322                           
  5323                           ; BSR set to: 0
  5324                           ;ECU_Layer/LCD/ecu_lcd.c: 402:     return ret;
  5325   002C60  518C               	movf	lcd_send_4bits@ret& (0+255),w,b
  5326   002C62                     
  5327                           ; BSR set to: 0
  5328   002C62  0012               	return		;funcret
  5329   002C64                     __end_of_lcd_send_4bits:
  5330                           	callstack 0
  5331                           
  5332 ;; *************** function _lcd_4bit_enable_signal *****************
  5333 ;; Defined at:
  5334 ;;		line 405 in file "ECU_Layer/LCD/ecu_lcd.c"
  5335 ;; Parameters:    Size  Location     Type
  5336 ;;  lcd             1    9[BANK0 ] PTR const struct .
  5337 ;;		 -> lcd(6), 
  5338 ;; Auto vars:     Size  Location     Type
  5339 ;;  ret             1   11[BANK0 ] unsigned char 
  5340 ;; Return value:  Size  Location     Type
  5341 ;;                  1    wreg      unsigned char 
  5342 ;; Registers used:
  5343 ;;		wreg, fsr2l, fsr2h, status,2, status,0, prodl, prodh, cstack
  5344 ;; Tracked objects:
  5345 ;;		On entry : 0/0
  5346 ;;		On exit  : 0/0
  5347 ;;		Unchanged: 0/0
  5348 ;; Data sizes:     COMRAM   BANK0   BANK1   BANK2   BANK3   BANK4   BANK5   BANK6   BANK7   BANK8   BANK9  BANK10  BANK1
      +1  BANK12  BANK13  BANK14  BANK15
  5349 ;;      Params:         0       1       0       0       0       0       0       0       0       0       0       0       
      +0       0       0       0       0
  5350 ;;      Locals:         0       1       0       0       0       0       0       0       0       0       0       0       
      +0       0       0       0       0
  5351 ;;      Temps:          0       1       0       0       0       0       0       0       0       0       0       0       
      +0       0       0       0       0
  5352 ;;      Totals:         0       3       0       0       0       0       0       0       0       0       0       0       
      +0       0       0       0       0
  5353 ;;Total ram usage:        3 bytes
  5354 ;; Hardware stack levels used: 1
  5355 ;; Hardware stack levels required when called: 11
  5356 ;; This function calls:
  5357 ;;		_gpio_pin_write_logic
  5358 ;; This function is called by:
  5359 ;;		_lcd_4bit_send_command
  5360 ;;		_lcd_4bit_send_char_data
  5361 ;; This function uses a non-reentrant model
  5362 ;;
  5363                           
  5364                           	psect	text30
  5365   0035AC                     __ptext30:
  5366                           	callstack 0
  5367   0035AC                     _lcd_4bit_enable_signal:
  5368                           	callstack 15
  5369   0035AC                     
  5370                           ;ECU_Layer/LCD/ecu_lcd.c: 408:     if (lcd == ((void*)0)){
  5371   0035AC  0100               	movlb	0	; () banked
  5372   0035AE  5189               	movf	lcd_4bit_enable_signal@lcd& (0+255),w,b
  5373   0035B0  A4D8               	btfss	status,2,c
  5374   0035B2  EFDD  F01A         	goto	u5671
  5375   0035B6  EFDF  F01A         	goto	u5670
  5376   0035BA                     u5671:
  5377   0035BA  EFE3  F01A         	goto	l6007
  5378   0035BE                     u5670:
  5379   0035BE                     
  5380                           ; BSR set to: 0
  5381                           ;ECU_Layer/LCD/ecu_lcd.c: 409:         ret = (Std_ReturnType)0x00;
  5382   0035BE  0E00               	movlw	0
  5383   0035C0  6F8B               	movwf	lcd_4bit_enable_signal@ret& (0+255),b
  5384                           
  5385                           ;ECU_Layer/LCD/ecu_lcd.c: 410:     }
  5386   0035C2  EF00  F01B         	goto	l6013
  5387   0035C6                     l6007:
  5388                           
  5389                           ; BSR set to: 0
  5390   0035C6  C089  F08A         	movff	lcd_4bit_enable_signal@lcd,??_lcd_4bit_enable_signal
  5391   0035CA  0E01               	movlw	1
  5392   0035CC  278A               	addwf	??_lcd_4bit_enable_signal& (0+255),f,b
  5393   0035CE  C08A  F080         	movff	??_lcd_4bit_enable_signal,gpio_pin_write_logic@pin_config
  5394   0035D2  6B81               	clrf	(gpio_pin_write_logic@pin_config+1)& (0+255),b
  5395   0035D4  0E01               	movlw	1
  5396   0035D6  6F82               	movwf	gpio_pin_write_logic@logic& (0+255),b
  5397   0035D8  EC73  F010         	call	_gpio_pin_write_logic	;wreg free
  5398   0035DC                     
  5399                           ;ECU_Layer/LCD/ecu_lcd.c: 413:         _delay((unsigned long)((5)*(4000000UL/4000000.0))
      +                          );
  5400   0035DC  D000               	nop2		;2 cycle nop
  5401   0035DE  D000               	nop2		;2 cycle nop
  5402   0035E0  0000               	nop	
  5403   0035E2  C089  F08A         	movff	lcd_4bit_enable_signal@lcd,??_lcd_4bit_enable_signal
  5404   0035E6  0E01               	movlw	1
  5405   0035E8  0100               	movlb	0	; () banked
  5406   0035EA  278A               	addwf	??_lcd_4bit_enable_signal& (0+255),f,b
  5407   0035EC  C08A  F080         	movff	??_lcd_4bit_enable_signal,gpio_pin_write_logic@pin_config
  5408   0035F0  6B81               	clrf	(gpio_pin_write_logic@pin_config+1)& (0+255),b
  5409   0035F2  0E00               	movlw	0
  5410   0035F4  6F82               	movwf	gpio_pin_write_logic@logic& (0+255),b
  5411   0035F6  EC73  F010         	call	_gpio_pin_write_logic	;wreg free
  5412   0035FA                     
  5413                           ;ECU_Layer/LCD/ecu_lcd.c: 415:         ret = (Std_ReturnType)0x01;
  5414   0035FA  0E01               	movlw	1
  5415   0035FC  0100               	movlb	0	; () banked
  5416   0035FE  6F8B               	movwf	lcd_4bit_enable_signal@ret& (0+255),b
  5417   003600                     l6013:
  5418                           
  5419                           ; BSR set to: 0
  5420                           ;ECU_Layer/LCD/ecu_lcd.c: 418:     return ret;
  5421   003600  518B               	movf	lcd_4bit_enable_signal@ret& (0+255),w,b
  5422   003602                     
  5423                           ; BSR set to: 0
  5424   003602  0012               	return		;funcret
  5425   003604                     __end_of_lcd_4bit_enable_signal:
  5426                           	callstack 0
  5427                           
  5428 ;; *************** function _gpio_pin_write_logic *****************
  5429 ;; Defined at:
  5430 ;;		line 81 in file "MCAL_Layer/GPIO/hal_gpio.c"
  5431 ;; Parameters:    Size  Location     Type
  5432 ;;  pin_config      2    0[BANK0 ] PTR const struct .
  5433 ;;		 -> int2_obj(6), int1_obj(6), int0_obj(6), lcd$lcd_data(4), 
  5434 ;;		 -> lcd(6), 
  5435 ;;  logic           1    2[BANK0 ] enum E2986
  5436 ;; Auto vars:     Size  Location     Type
  5437 ;;  ret             1    8[BANK0 ] unsigned char 
  5438 ;; Return value:  Size  Location     Type
  5439 ;;                  1    wreg      unsigned char 
  5440 ;; Registers used:
  5441 ;;		wreg, fsr2l, fsr2h, status,2, status,0, prodl, prodh
  5442 ;; Tracked objects:
  5443 ;;		On entry : 0/0
  5444 ;;		On exit  : 0/0
  5445 ;;		Unchanged: 0/0
  5446 ;; Data sizes:     COMRAM   BANK0   BANK1   BANK2   BANK3   BANK4   BANK5   BANK6   BANK7   BANK8   BANK9  BANK10  BANK1
      +1  BANK12  BANK13  BANK14  BANK15
  5447 ;;      Params:         0       3       0       0       0       0       0       0       0       0       0       0       
      +0       0       0       0       0
  5448 ;;      Locals:         0       1       0       0       0       0       0       0       0       0       0       0       
      +0       0       0       0       0
  5449 ;;      Temps:          0       5       0       0       0       0       0       0       0       0       0       0       
      +0       0       0       0       0
  5450 ;;      Totals:         0       9       0       0       0       0       0       0       0       0       0       0       
      +0       0       0       0       0
  5451 ;;Total ram usage:        9 bytes
  5452 ;; Hardware stack levels used: 1
  5453 ;; Hardware stack levels required when called: 10
  5454 ;; This function calls:
  5455 ;;		Nothing
  5456 ;; This function is called by:
  5457 ;;		_lcd_4bit_send_command
  5458 ;;		_lcd_4bit_send_char_data
  5459 ;;		_lcd_send_4bits
  5460 ;;		_lcd_4bit_enable_signal
  5461 ;;		_gpio_pin_initialize
  5462 ;;		_lcd_8bit_send_command
  5463 ;;		_lcd_8bit_send_char_data
  5464 ;;		_lcd_8bit_enable_signal
  5465 ;; This function uses a non-reentrant model
  5466 ;;
  5467                           
  5468                           	psect	text31
  5469   0020E6                     __ptext31:
  5470                           	callstack 0
  5471   0020E6                     _gpio_pin_write_logic:
  5472                           	callstack 15
  5473   0020E6                     
  5474                           ;MCAL_Layer/GPIO/hal_gpio.c: 84:     if ((pin_config == ((void*)0)) || (pin_config->pin 
      +                          > 8 - 1)){
  5475   0020E6  0100               	movlb	0	; () banked
  5476   0020E8  5180               	movf	gpio_pin_write_logic@pin_config& (0+255),w,b
  5477   0020EA  1181               	iorwf	(gpio_pin_write_logic@pin_config+1)& (0+255),w,b
  5478   0020EC  B4D8               	btfsc	status,2,c
  5479   0020EE  EF7B  F010         	goto	u5561
  5480   0020F2  EF7D  F010         	goto	u5560
  5481   0020F6                     u5561:
  5482   0020F6  EF8E  F010         	goto	l5929
  5483   0020FA                     u5560:
  5484   0020FA                     
  5485                           ; BSR set to: 0
  5486   0020FA  C080  FFD9         	movff	gpio_pin_write_logic@pin_config,fsr2l
  5487   0020FE  C081  FFDA         	movff	gpio_pin_write_logic@pin_config+1,fsr2h
  5488   002102  30DF               	rrcf	223,w,c
  5489   002104  32E8               	rrcf	wreg,f,c
  5490   002106  32E8               	rrcf	wreg,f,c
  5491   002108  0B07               	andlw	7
  5492   00210A  6F83               	movwf	??_gpio_pin_write_logic& (0+255),b
  5493   00210C  0E07               	movlw	7
  5494   00210E  6583               	cpfsgt	??_gpio_pin_write_logic& (0+255),b
  5495   002110  EF8C  F010         	goto	u5571
  5496   002114  EF8E  F010         	goto	u5570
  5497   002118                     u5571:
  5498   002118  EFED  F010         	goto	l5943
  5499   00211C                     u5570:
  5500   00211C                     l5929:
  5501                           
  5502                           ; BSR set to: 0
  5503                           ;MCAL_Layer/GPIO/hal_gpio.c: 85:         ret = (Std_ReturnType)0x00;
  5504   00211C  0E00               	movlw	0
  5505   00211E  6F88               	movwf	gpio_pin_write_logic@ret& (0+255),b
  5506                           
  5507                           ;MCAL_Layer/GPIO/hal_gpio.c: 86:     }
  5508   002120  EF02  F011         	goto	l5945
  5509   002124                     l5931:
  5510                           
  5511                           ; BSR set to: 0
  5512                           ;MCAL_Layer/GPIO/hal_gpio.c: 90:                 (*(lat_registers[pin_config->port]) &= 
      +                          ~((uint8)1 << pin_config->pin));
  5513   002124  C080  FFD9         	movff	gpio_pin_write_logic@pin_config,fsr2l
  5514   002128  C081  FFDA         	movff	gpio_pin_write_logic@pin_config+1,fsr2h
  5515   00212C  30DF               	rrcf	223,w,c
  5516   00212E  32E8               	rrcf	wreg,f,c
  5517   002130  32E8               	rrcf	wreg,f,c
  5518   002132  0B07               	andlw	7
  5519   002134  6F83               	movwf	??_gpio_pin_write_logic& (0+255),b
  5520   002136  0E01               	movlw	1
  5521   002138  6F84               	movwf	(??_gpio_pin_write_logic+1)& (0+255),b
  5522   00213A  2B83               	incf	??_gpio_pin_write_logic& (0+255),f,b
  5523   00213C  EFA2  F010         	goto	u5584
  5524   002140                     u5585:
  5525   002140  90D8               	bcf	status,0,c
  5526   002142  3784               	rlcf	(??_gpio_pin_write_logic+1)& (0+255),f,b
  5527   002144                     u5584:
  5528   002144  2F83               	decfsz	??_gpio_pin_write_logic& (0+255),f,b
  5529   002146  EFA0  F010         	goto	u5585
  5530   00214A  0100               	movlb	0	; () banked
  5531   00214C  5184               	movf	(??_gpio_pin_write_logic+1)& (0+255),w,b
  5532   00214E  0AFF               	xorlw	255
  5533   002150  6F85               	movwf	(??_gpio_pin_write_logic+2)& (0+255),b
  5534   002152  C080  FFD9         	movff	gpio_pin_write_logic@pin_config,fsr2l
  5535   002156  C081  FFDA         	movff	gpio_pin_write_logic@pin_config+1,fsr2h
  5536   00215A  50DF               	movf	223,w,c
  5537   00215C  0B07               	andlw	7
  5538   00215E  0D02               	mullw	2
  5539   002160  50F3               	movf	243,w,c
  5540   002162  0FB5               	addlw	low _lat_registers
  5541   002164  6ED9               	movwf	fsr2l,c
  5542   002166  6ADA               	clrf	fsr2h,c
  5543   002168  CFDE F086          	movff	postinc2,??_gpio_pin_write_logic+3
  5544   00216C  CFDD F087          	movff	postdec2,??_gpio_pin_write_logic+4
  5545   002170  C086  FFD9         	movff	??_gpio_pin_write_logic+3,fsr2l
  5546   002174  C087  FFDA         	movff	??_gpio_pin_write_logic+4,fsr2h
  5547   002178  5185               	movf	(??_gpio_pin_write_logic+2)& (0+255),w,b
  5548   00217A  16DF               	andwf	indf2,f,c
  5549   00217C                     l5933:
  5550                           
  5551                           ; BSR set to: 0
  5552                           ;MCAL_Layer/GPIO/hal_gpio.c: 91:                 ret = (Std_ReturnType)0x01;
  5553   00217C  0E01               	movlw	1
  5554   00217E  6F88               	movwf	gpio_pin_write_logic@ret& (0+255),b
  5555                           
  5556                           ;MCAL_Layer/GPIO/hal_gpio.c: 92:                 break;
  5557   002180  EF02  F011         	goto	l5945
  5558   002184                     l5935:
  5559                           
  5560                           ; BSR set to: 0
  5561                           ;MCAL_Layer/GPIO/hal_gpio.c: 94:                 (*(lat_registers[pin_config->port]) |= 
      +                          ((uint8)1 << pin_config->pin));
  5562   002184  C080  FFD9         	movff	gpio_pin_write_logic@pin_config,fsr2l
  5563   002188  C081  FFDA         	movff	gpio_pin_write_logic@pin_config+1,fsr2h
  5564   00218C  30DF               	rrcf	223,w,c
  5565   00218E  32E8               	rrcf	wreg,f,c
  5566   002190  32E8               	rrcf	wreg,f,c
  5567   002192  0B07               	andlw	7
  5568   002194  6F83               	movwf	??_gpio_pin_write_logic& (0+255),b
  5569   002196  0E01               	movlw	1
  5570   002198  6F84               	movwf	(??_gpio_pin_write_logic+1)& (0+255),b
  5571   00219A  2B83               	incf	??_gpio_pin_write_logic& (0+255),f,b
  5572   00219C  EFD2  F010         	goto	u5594
  5573   0021A0                     u5595:
  5574   0021A0  90D8               	bcf	status,0,c
  5575   0021A2  3784               	rlcf	(??_gpio_pin_write_logic+1)& (0+255),f,b
  5576   0021A4                     u5594:
  5577   0021A4  2F83               	decfsz	??_gpio_pin_write_logic& (0+255),f,b
  5578   0021A6  EFD0  F010         	goto	u5595
  5579   0021AA  C080  FFD9         	movff	gpio_pin_write_logic@pin_config,fsr2l
  5580   0021AE  C081  FFDA         	movff	gpio_pin_write_logic@pin_config+1,fsr2h
  5581   0021B2  50DF               	movf	223,w,c
  5582   0021B4  0B07               	andlw	7
  5583   0021B6  0D02               	mullw	2
  5584   0021B8  50F3               	movf	243,w,c
  5585   0021BA  0FB5               	addlw	low _lat_registers
  5586   0021BC  6ED9               	movwf	fsr2l,c
  5587   0021BE  6ADA               	clrf	fsr2h,c
  5588   0021C0  CFDE F085          	movff	postinc2,??_gpio_pin_write_logic+2
  5589   0021C4  CFDD F086          	movff	postdec2,??_gpio_pin_write_logic+3
  5590   0021C8  C085  FFD9         	movff	??_gpio_pin_write_logic+2,fsr2l
  5591   0021CC  C086  FFDA         	movff	??_gpio_pin_write_logic+3,fsr2h
  5592   0021D0  0100               	movlb	0	; () banked
  5593   0021D2  5184               	movf	(??_gpio_pin_write_logic+1)& (0+255),w,b
  5594   0021D4  12DF               	iorwf	indf2,f,c
  5595   0021D6  EFBE  F010         	goto	l5933
  5596   0021DA                     l5943:
  5597                           
  5598                           ; BSR set to: 0
  5599   0021DA  5182               	movf	gpio_pin_write_logic@logic& (0+255),w,b
  5600   0021DC  6F83               	movwf	??_gpio_pin_write_logic& (0+255),b
  5601   0021DE  6B84               	clrf	(??_gpio_pin_write_logic+1)& (0+255),b
  5602                           
  5603                           ; Switch on 2 bytes has been partitioned into a top level switch of size 1, and 1 sub-sw
      +                          itches
  5604                           ; Switch size 1, requested type "simple"
  5605                           ; Number of cases is 1, Range of values is 0 to 0
  5606                           ; switch strategies available:
  5607                           ; Name         Instructions Cycles
  5608                           ; simple_byte            4     3 (average)
  5609                           ;	Chosen strategy is simple_byte
  5610   0021E0  5184               	movf	(??_gpio_pin_write_logic+1)& (0+255),w,b
  5611   0021E2  0A00               	xorlw	0	; case 0
  5612   0021E4  B4D8               	btfsc	status,2,c
  5613   0021E6  EFF7  F010         	goto	l7305
  5614   0021EA  EF8E  F010         	goto	l5929
  5615   0021EE                     l7305:
  5616                           
  5617                           ; BSR set to: 0
  5618                           ; Switch size 1, requested type "simple"
  5619                           ; Number of cases is 2, Range of values is 0 to 1
  5620                           ; switch strategies available:
  5621                           ; Name         Instructions Cycles
  5622                           ; simple_byte            7     4 (average)
  5623                           ;	Chosen strategy is simple_byte
  5624   0021EE  5183               	movf	??_gpio_pin_write_logic& (0+255),w,b
  5625   0021F0  0A00               	xorlw	0	; case 0
  5626   0021F2  B4D8               	btfsc	status,2,c
  5627   0021F4  EF92  F010         	goto	l5931
  5628   0021F8  0A01               	xorlw	1	; case 1
  5629   0021FA  B4D8               	btfsc	status,2,c
  5630   0021FC  EFC2  F010         	goto	l5935
  5631   002200  EF8E  F010         	goto	l5929
  5632   002204                     l5945:
  5633                           
  5634                           ; BSR set to: 0
  5635                           ;MCAL_Layer/GPIO/hal_gpio.c: 103:     return ret;
  5636   002204  5188               	movf	gpio_pin_write_logic@ret& (0+255),w,b
  5637   002206                     
  5638                           ; BSR set to: 0
  5639   002206  0012               	return		;funcret
  5640   002208                     __end_of_gpio_pin_write_logic:
  5641                           	callstack 0
  5642                           
  5643 ;; *************** function _convert_uint16_to_string *****************
  5644 ;; Defined at:
  5645 ;;		line 504 in file "ECU_Layer/LCD/ecu_lcd.c"
  5646 ;; Parameters:    Size  Location     Type
  5647 ;;  value           2   42[BANK0 ] unsigned short 
  5648 ;;  str             1   44[BANK0 ] PTR unsigned char 
  5649 ;;		 -> can_D_str(6), can_C_str(6), can_B_str(6), can_A_str(6), 
  5650 ;; Auto vars:     Size  Location     Type
  5651 ;;  temp_str        6   45[BANK0 ] unsigned char [6]
  5652 ;;  data_counter    1   52[BANK0 ] unsigned char 
  5653 ;;  ret             1   51[BANK0 ] unsigned char 
  5654 ;; Return value:  Size  Location     Type
  5655 ;;                  1    wreg      unsigned char 
  5656 ;; Registers used:
  5657 ;;		wreg, fsr1l, fsr1h, fsr2l, fsr2h, status,2, status,0, tblptrl, tblptrh, tblptru, cstack
  5658 ;; Tracked objects:
  5659 ;;		On entry : 0/0
  5660 ;;		On exit  : 0/0
  5661 ;;		Unchanged: 0/0
  5662 ;; Data sizes:     COMRAM   BANK0   BANK1   BANK2   BANK3   BANK4   BANK5   BANK6   BANK7   BANK8   BANK9  BANK10  BANK1
      +1  BANK12  BANK13  BANK14  BANK15
  5663 ;;      Params:         0       3       0       0       0       0       0       0       0       0       0       0       
      +0       0       0       0       0
  5664 ;;      Locals:         0       8       0       0       0       0       0       0       0       0       0       0       
      +0       0       0       0       0
  5665 ;;      Temps:          0       0       0       0       0       0       0       0       0       0       0       0       
      +0       0       0       0       0
  5666 ;;      Totals:         0      11       0       0       0       0       0       0       0       0       0       0       
      +0       0       0       0       0
  5667 ;;Total ram usage:       11 bytes
  5668 ;; Hardware stack levels used: 1
  5669 ;; Hardware stack levels required when called: 15
  5670 ;; This function calls:
  5671 ;;		_memset
  5672 ;;		_sprintf
  5673 ;; This function is called by:
  5674 ;;		_display
  5675 ;; This function uses a non-reentrant model
  5676 ;;
  5677                           
  5678                           	psect	text32
  5679   002A82                     __ptext32:
  5680                           	callstack 0
  5681   002A82                     _convert_uint16_to_string:
  5682                           	callstack 14
  5683   002A82                     
  5684                           ;ECU_Layer/LCD/ecu_lcd.c: 507:     if (str == ((void*)0)){
  5685   002A82  0100               	movlb	0	; () banked
  5686   002A84  51AC               	movf	convert_uint16_to_string@str& (0+255),w,b
  5687   002A86  A4D8               	btfss	status,2,c
  5688   002A88  EF48  F015         	goto	u4101
  5689   002A8C  EF4A  F015         	goto	u4100
  5690   002A90                     u4101:
  5691   002A90  EF4E  F015         	goto	l4821
  5692   002A94                     u4100:
  5693   002A94                     
  5694                           ; BSR set to: 0
  5695                           ;ECU_Layer/LCD/ecu_lcd.c: 508:         ret = (Std_ReturnType)0x00;
  5696   002A94  0E00               	movlw	0
  5697   002A96  6FB3               	movwf	convert_uint16_to_string@ret& (0+255),b
  5698                           
  5699                           ;ECU_Layer/LCD/ecu_lcd.c: 509:     }
  5700   002A98  EF92  F015         	goto	l196
  5701   002A9C                     l4821:
  5702                           
  5703                           ; BSR set to: 0
  5704                           ;ECU_Layer/LCD/ecu_lcd.c: 511:         uint8 temp_str[6] = {0};
  5705   002A9C  EE20  F045         	lfsr	2,convert_uint16_to_string@F3236
  5706   002AA0  EE10  F0AD         	lfsr	1,convert_uint16_to_string@temp_str
  5707   002AA4  0E05               	movlw	5
  5708   002AA6                     u4111:
  5709   002AA6  CFDB FFE3          	movff	plusw2,plusw1
  5710   002AAA  06E8               	decf	wreg,f,c
  5711   002AAC  E2FC               	bc	u4111
  5712   002AAE                     
  5713                           ; BSR set to: 0
  5714                           ;ECU_Layer/LCD/ecu_lcd.c: 512:         uint8 data_counter = 0;
  5715   002AAE  0E00               	movlw	0
  5716   002AB0  6FB4               	movwf	convert_uint16_to_string@data_counter& (0+255),b
  5717   002AB2                     
  5718                           ; BSR set to: 0
  5719                           ;ECU_Layer/LCD/ecu_lcd.c: 514:         memset(str, ' ', 5);
  5720   002AB2  C0AC  F080         	movff	convert_uint16_to_string@str,memset@dest
  5721   002AB6  0E00               	movlw	0
  5722   002AB8  6F82               	movwf	(memset@c+1)& (0+255),b
  5723   002ABA  0E20               	movlw	32
  5724   002ABC  6F81               	movwf	memset@c& (0+255),b
  5725   002ABE  0E00               	movlw	0
  5726   002AC0  6F84               	movwf	(memset@n+1)& (0+255),b
  5727   002AC2  0E05               	movlw	5
  5728   002AC4  6F83               	movwf	memset@n& (0+255),b
  5729   002AC6  EC10  F01D         	call	_memset	;wreg free
  5730   002ACA                     
  5731                           ;ECU_Layer/LCD/ecu_lcd.c: 515:         str[5] = '\0';
  5732   002ACA  0100               	movlb	0	; () banked
  5733   002ACC  51AC               	movf	convert_uint16_to_string@str& (0+255),w,b
  5734   002ACE  6ED9               	movwf	fsr2l,c
  5735   002AD0  6ADA               	clrf	fsr2h,c
  5736   002AD2  0E05               	movlw	5
  5737   002AD4  26D9               	addwf	fsr2l,f,c
  5738   002AD6  6ADF               	clrf	indf2,c
  5739   002AD8                     
  5740                           ; BSR set to: 0
  5741                           ;ECU_Layer/LCD/ecu_lcd.c: 516:         sprintf((char *)temp_str, "%i", value);
  5742   002AD8  0EAD               	movlw	low convert_uint16_to_string@temp_str
  5743   002ADA  6F99               	movwf	sprintf@s& (0+255),b
  5744   002ADC  0E71               	movlw	low STR_1
  5745   002ADE  6F9A               	movwf	sprintf@fmt& (0+255),b
  5746   002AE0  C0AA  F09B         	movff	convert_uint16_to_string@value,?_sprintf+2
  5747   002AE4  C0AB  F09C         	movff	convert_uint16_to_string@value+1,?_sprintf+3
  5748   002AE8  EC56  F01C         	call	_sprintf	;wreg free
  5749                           
  5750                           ;ECU_Layer/LCD/ecu_lcd.c: 517:         while(temp_str[data_counter] != '\0'){
  5751   002AEC  EF83  F015         	goto	l4835
  5752   002AF0                     l4831:
  5753                           
  5754                           ; BSR set to: 0
  5755                           ;ECU_Layer/LCD/ecu_lcd.c: 518:             str[data_counter] = temp_str[data_counter];
  5756   002AF0  51B4               	movf	convert_uint16_to_string@data_counter& (0+255),w,b
  5757   002AF2  0FAD               	addlw	low convert_uint16_to_string@temp_str
  5758   002AF4  6ED9               	movwf	fsr2l,c
  5759   002AF6  6ADA               	clrf	fsr2h,c
  5760   002AF8  51AC               	movf	convert_uint16_to_string@str& (0+255),w,b
  5761   002AFA  25B4               	addwf	convert_uint16_to_string@data_counter& (0+255),w,b
  5762   002AFC  6EE1               	movwf	fsr1l,c
  5763   002AFE  6AE2               	clrf	fsr1h,c
  5764   002B00  CFDF FFE7          	movff	indf2,indf1
  5765   002B04                     
  5766                           ; BSR set to: 0
  5767                           ;ECU_Layer/LCD/ecu_lcd.c: 519:             data_counter++;
  5768   002B04  2BB4               	incf	convert_uint16_to_string@data_counter& (0+255),f,b
  5769   002B06                     l4835:
  5770                           
  5771                           ;ECU_Layer/LCD/ecu_lcd.c: 517:         while(temp_str[data_counter] != '\0'){
  5772   002B06  0100               	movlb	0	; () banked
  5773   002B08  51B4               	movf	convert_uint16_to_string@data_counter& (0+255),w,b
  5774   002B0A  0FAD               	addlw	low convert_uint16_to_string@temp_str
  5775   002B0C  6ED9               	movwf	fsr2l,c
  5776   002B0E  6ADA               	clrf	fsr2h,c
  5777   002B10  50DF               	movf	indf2,w,c
  5778   002B12  A4D8               	btfss	status,2,c
  5779   002B14  EF8E  F015         	goto	u4121
  5780   002B18  EF90  F015         	goto	u4120
  5781   002B1C                     u4121:
  5782   002B1C  EF78  F015         	goto	l4831
  5783   002B20                     u4120:
  5784   002B20                     
  5785                           ; BSR set to: 0
  5786                           ;ECU_Layer/LCD/ecu_lcd.c: 521:         ret = (Std_ReturnType)0x01;
  5787   002B20  0E01               	movlw	1
  5788   002B22  6FB3               	movwf	convert_uint16_to_string@ret& (0+255),b
  5789   002B24                     l196:
  5790                           
  5791                           ; BSR set to: 0
  5792                           ;ECU_Layer/LCD/ecu_lcd.c: 524:     return ret;
  5793   002B24  51B3               	movf	convert_uint16_to_string@ret& (0+255),w,b
  5794   002B26                     
  5795                           ; BSR set to: 0
  5796   002B26  0012               	return		;funcret
  5797   002B28                     __end_of_convert_uint16_to_string:
  5798                           	callstack 0
  5799                           
  5800 ;; *************** function _sprintf *****************
  5801 ;; Defined at:
  5802 ;;		line 9 in file "C:\Program Files\Microchip\xc8\v2.46\pic\sources\c99\common\nf_sprintf.c"
  5803 ;; Parameters:    Size  Location     Type
  5804 ;;  s               1   25[BANK0 ] PTR unsigned char 
  5805 ;;		 -> convert_uint16_to_string@temp_str(6), 
  5806 ;;  fmt             1   26[BANK0 ] PTR const unsigned char 
  5807 ;;		 -> STR_3(3), STR_2(3), STR_1(3), 
  5808 ;; Auto vars:     Size  Location     Type
  5809 ;;  f              12   30[BANK0 ] struct _IO_FILE
  5810 ;;  ret             2    0        int 
  5811 ;;  ap              1   29[BANK0 ] PTR void [1]
  5812 ;;		 -> ?_sprintf(2), 
  5813 ;; Return value:  Size  Location     Type
  5814 ;;                  2   25[BANK0 ] int 
  5815 ;; Registers used:
  5816 ;;		wreg, fsr1l, fsr1h, fsr2l, fsr2h, status,2, status,0, tblptrl, tblptrh, tblptru, cstack
  5817 ;; Tracked objects:
  5818 ;;		On entry : 0/0
  5819 ;;		On exit  : 0/0
  5820 ;;		Unchanged: 0/0
  5821 ;; Data sizes:     COMRAM   BANK0   BANK1   BANK2   BANK3   BANK4   BANK5   BANK6   BANK7   BANK8   BANK9  BANK10  BANK1
      +1  BANK12  BANK13  BANK14  BANK15
  5822 ;;      Params:         0       4       0       0       0       0       0       0       0       0       0       0       
      +0       0       0       0       0
  5823 ;;      Locals:         0      13       0       0       0       0       0       0       0       0       0       0       
      +0       0       0       0       0
  5824 ;;      Temps:          0       0       0       0       0       0       0       0       0       0       0       0       
      +0       0       0       0       0
  5825 ;;      Totals:         0      17       0       0       0       0       0       0       0       0       0       0       
      +0       0       0       0       0
  5826 ;;Total ram usage:       17 bytes
  5827 ;; Hardware stack levels used: 1
  5828 ;; Hardware stack levels required when called: 14
  5829 ;; This function calls:
  5830 ;;		_vfprintf
  5831 ;; This function is called by:
  5832 ;;		_convert_uint16_to_string
  5833 ;;		_convert_uint8_to_string
  5834 ;;		_convert_uint32_to_string
  5835 ;; This function uses a non-reentrant model
  5836 ;;
  5837                           
  5838                           	psect	text33
  5839   0038AC                     __ptext33:
  5840                           	callstack 0
  5841   0038AC                     _sprintf:
  5842                           	callstack 14
  5843   0038AC  0E9B               	movlw	low (?_sprintf+2)
  5844   0038AE  0100               	movlb	0	; () banked
  5845   0038B0  6F9D               	movwf	sprintf@ap& (0+255),b
  5846   0038B2  C099  F09E         	movff	sprintf@s,sprintf@f
  5847   0038B6                     
  5848                           ; BSR set to: 0
  5849   0038B6  0E00               	movlw	0
  5850   0038B8  6FA2               	movwf	(sprintf@f+4)& (0+255),b
  5851   0038BA  0E00               	movlw	0
  5852   0038BC  6FA1               	movwf	(sprintf@f+3)& (0+255),b
  5853   0038BE                     
  5854                           ; BSR set to: 0
  5855   0038BE  0E00               	movlw	0
  5856   0038C0  6FA9               	movwf	(sprintf@f+11)& (0+255),b
  5857   0038C2  0E00               	movlw	0
  5858   0038C4  6FA8               	movwf	(sprintf@f+10)& (0+255),b
  5859   0038C6                     
  5860                           ; BSR set to: 0
  5861   0038C6  0E9E               	movlw	low sprintf@f
  5862   0038C8  6F95               	movwf	vfprintf@fp& (0+255),b
  5863   0038CA  C09A  F096         	movff	sprintf@fmt,vfprintf@fmt
  5864   0038CE  0E9D               	movlw	low sprintf@ap
  5865   0038D0  6F97               	movwf	vfprintf@ap& (0+255),b
  5866   0038D2  EC73  F01B         	call	_vfprintf	;wreg free
  5867   0038D6  0100               	movlb	0	; () banked
  5868   0038D8  5199               	movf	sprintf@s& (0+255),w,b
  5869   0038DA  25A1               	addwf	(sprintf@f+3)& (0+255),w,b
  5870   0038DC  6ED9               	movwf	fsr2l,c
  5871   0038DE  6ADA               	clrf	fsr2h,c
  5872   0038E0  6ADF               	clrf	indf2,c
  5873   0038E2                     
  5874                           ; BSR set to: 0
  5875   0038E2  0012               	return		;funcret
  5876   0038E4                     __end_of_sprintf:
  5877                           	callstack 0
  5878                           
  5879 ;; *************** function _vfprintf *****************
  5880 ;; Defined at:
  5881 ;;		line 1817 in file "C:\Program Files\Microchip\xc8\v2.46\pic\sources\c99\common\doprnt.c"
  5882 ;; Parameters:    Size  Location     Type
  5883 ;;  fp              1   21[BANK0 ] PTR struct _IO_FILE
  5884 ;;		 -> sprintf@f(12), 
  5885 ;;  fmt             1   22[BANK0 ] PTR const unsigned char 
  5886 ;;		 -> STR_3(3), STR_2(3), STR_1(3), 
  5887 ;;  ap              1   23[BANK0 ] PTR PTR void 
  5888 ;;		 -> sprintf@ap(1), 
  5889 ;; Auto vars:     Size  Location     Type
  5890 ;;  cfmt            1   24[BANK0 ] PTR unsigned char 
  5891 ;;		 -> STR_3(3), STR_2(3), STR_1(3), 
  5892 ;; Return value:  Size  Location     Type
  5893 ;;                  2   21[BANK0 ] int 
  5894 ;; Registers used:
  5895 ;;		wreg, fsr1l, fsr1h, fsr2l, fsr2h, status,2, status,0, tblptrl, tblptrh, tblptru, cstack
  5896 ;; Tracked objects:
  5897 ;;		On entry : 0/0
  5898 ;;		On exit  : 0/0
  5899 ;;		Unchanged: 0/0
  5900 ;; Data sizes:     COMRAM   BANK0   BANK1   BANK2   BANK3   BANK4   BANK5   BANK6   BANK7   BANK8   BANK9  BANK10  BANK1
      +1  BANK12  BANK13  BANK14  BANK15
  5901 ;;      Params:         0       3       0       0       0       0       0       0       0       0       0       0       
      +0       0       0       0       0
  5902 ;;      Locals:         0       1       0       0       0       0       0       0       0       0       0       0       
      +0       0       0       0       0
  5903 ;;      Temps:          0       0       0       0       0       0       0       0       0       0       0       0       
      +0       0       0       0       0
  5904 ;;      Totals:         0       4       0       0       0       0       0       0       0       0       0       0       
      +0       0       0       0       0
  5905 ;;Total ram usage:        4 bytes
  5906 ;; Hardware stack levels used: 1
  5907 ;; Hardware stack levels required when called: 13
  5908 ;; This function calls:
  5909 ;;		_vfpfcnvrt
  5910 ;; This function is called by:
  5911 ;;		_sprintf
  5912 ;; This function uses a non-reentrant model
  5913 ;;
  5914                           
  5915                           	psect	text34
  5916   0036E6                     __ptext34:
  5917                           	callstack 0
  5918   0036E6                     _vfprintf:
  5919                           	callstack 14
  5920   0036E6                     
  5921                           ;C:\Program Files\Microchip\xc8\v2.46\pic\sources\c99\common\doprnt.c: 1817: int vfprint
      +                          f(FILE *fp, const char *fmt, va_list ap);C:\Program Files\Microchip\xc8\v2.46\pic\source
      +                          s\c99\common\doprnt.c: 1818: {;C:\Program Files\Microchip\xc8\v2.46\pic\sources\c99\comm
      +                          on\doprnt.c: 1820:     char *cfmt;;C:\Program Files\Microchip\xc8\v2.46\pic\sources\c99\
      +                          common\doprnt.c: 1822:     cfmt = (char *)fmt;
  5922   0036E6  C096  F098         	movff	vfprintf@fmt,vfprintf@cfmt
  5923                           
  5924                           ;C:\Program Files\Microchip\xc8\v2.46\pic\sources\c99\common\doprnt.c: 1826:     while (
      +                          *cfmt) {
  5925   0036EA  EF80  F01B         	goto	l4327
  5926   0036EE                     l4325:
  5927                           
  5928                           ;C:\Program Files\Microchip\xc8\v2.46\pic\sources\c99\common\doprnt.c: 1830:    vfpfcnvr
      +                          t(fp, &cfmt, ap);
  5929   0036EE  C095  F08A         	movff	vfprintf@fp,vfpfcnvrt@fp
  5930   0036F2  0E98               	movlw	low vfprintf@cfmt
  5931   0036F4  0100               	movlb	0	; () banked
  5932   0036F6  6F8B               	movwf	vfpfcnvrt@fmt& (0+255),b
  5933   0036F8  C097  F08C         	movff	vfprintf@ap,vfpfcnvrt@ap
  5934   0036FC  ECB6  F009         	call	_vfpfcnvrt	;wreg free
  5935   003700                     l4327:
  5936                           
  5937                           ;C:\Program Files\Microchip\xc8\v2.46\pic\sources\c99\common\doprnt.c: 1826:     while (
      +                          *cfmt) {
  5938   003700  C098  FFF6         	movff	vfprintf@cfmt,tblptrl
  5939   003704                     	if	1	;There is more than 1 active tblptr byte
  5940   003704  0E10               	movlw	high __smallconst
  5941   003706  6EF7               	movwf	tblptrh,c
  5942   003708                     	endif
  5943   003708                     	if	1	;Program memory is < 0x10000, tblptru is always zero
  5944   003708  6AF8               	clrf	tblptru,c
  5945   00370A                     	endif
  5946   00370A                     	if	0	;tblptru may be non-zero
  5947   00370A                     	endif
  5948   00370A  0008               	tblrd		*
  5949   00370C  50F5               	movf	tablat,w,c
  5950   00370E  0900               	iorlw	0
  5951   003710  A4D8               	btfss	status,2,c
  5952   003712  EF8D  F01B         	goto	u3611
  5953   003716  EF8F  F01B         	goto	u3610
  5954   00371A                     u3611:
  5955   00371A  EF77  F01B         	goto	l4325
  5956   00371E                     u3610:
  5957   00371E                     
  5958                           ;C:\Program Files\Microchip\xc8\v2.46\pic\sources\c99\common\doprnt.c: 1835:  return 0;
  5959   00371E  0E00               	movlw	0
  5960   003720  0100               	movlb	0	; () banked
  5961   003722  6F96               	movwf	(?_vfprintf+1)& (0+255),b
  5962   003724  0E00               	movlw	0
  5963   003726  6F95               	movwf	?_vfprintf& (0+255),b
  5964   003728                     
  5965                           ; BSR set to: 0
  5966   003728  0012               	return		;funcret
  5967   00372A                     __end_of_vfprintf:
  5968                           	callstack 0
  5969                           
  5970 ;; *************** function _vfpfcnvrt *****************
  5971 ;; Defined at:
  5972 ;;		line 1177 in file "C:\Program Files\Microchip\xc8\v2.46\pic\sources\c99\common\doprnt.c"
  5973 ;; Parameters:    Size  Location     Type
  5974 ;;  fp              1   10[BANK0 ] PTR struct _IO_FILE
  5975 ;;		 -> sprintf@f(12), 
  5976 ;;  fmt             1   11[BANK0 ] PTR PTR unsigned char 
  5977 ;;		 -> vfprintf@cfmt(1), 
  5978 ;;  ap              1   12[BANK0 ] PTR PTR void 
  5979 ;;		 -> sprintf@ap(1), 
  5980 ;; Auto vars:     Size  Location     Type
  5981 ;;  convarg         4   16[BANK0 ] struct .
  5982 ;;  c               1   20[BANK0 ] unsigned char 
  5983 ;;  cp              1   15[BANK0 ] PTR unsigned char 
  5984 ;;		 -> STR_3(3), STR_2(3), STR_1(3), 
  5985 ;;  done            1   14[BANK0 ] _Bool 
  5986 ;; Return value:  Size  Location     Type
  5987 ;;                  1    wreg      void 
  5988 ;; Registers used:
  5989 ;;		wreg, fsr1l, fsr1h, fsr2l, fsr2h, status,2, status,0, tblptrl, tblptrh, tblptru, cstack
  5990 ;; Tracked objects:
  5991 ;;		On entry : 0/0
  5992 ;;		On exit  : 0/0
  5993 ;;		Unchanged: 0/0
  5994 ;; Data sizes:     COMRAM   BANK0   BANK1   BANK2   BANK3   BANK4   BANK5   BANK6   BANK7   BANK8   BANK9  BANK10  BANK1
      +1  BANK12  BANK13  BANK14  BANK15
  5995 ;;      Params:         0       3       0       0       0       0       0       0       0       0       0       0       
      +0       0       0       0       0
  5996 ;;      Locals:         0       7       0       0       0       0       0       0       0       0       0       0       
      +0       0       0       0       0
  5997 ;;      Temps:          0       1       0       0       0       0       0       0       0       0       0       0       
      +0       0       0       0       0
  5998 ;;      Totals:         0      11       0       0       0       0       0       0       0       0       0       0       
      +0       0       0       0       0
  5999 ;;Total ram usage:       11 bytes
  6000 ;; Hardware stack levels used: 1
  6001 ;; Hardware stack levels required when called: 12
  6002 ;; This function calls:
  6003 ;;		___awdiv
  6004 ;;		___awmod
  6005 ;;		_abs
  6006 ;;		_fputc
  6007 ;; This function is called by:
  6008 ;;		_vfprintf
  6009 ;; This function uses a non-reentrant model
  6010 ;;
  6011                           
  6012                           	psect	text35
  6013   00136C                     __ptext35:
  6014                           	callstack 0
  6015   00136C                     _vfpfcnvrt:
  6016                           	callstack 14
  6017   00136C                     
  6018                           ;C:\Program Files\Microchip\xc8\v2.46\pic\sources\c99\common\doprnt.c: 1177: vfpfcnvrt(F
      +                          ILE *fp, char *fmt[], va_list ap);C:\Program Files\Microchip\xc8\v2.46\pic\sources\c99\c
      +                          ommon\doprnt.c: 1178: {;C:\Program Files\Microchip\xc8\v2.46\pic\sources\c99\common\dopr
      +                          nt.c: 1179:     char c, *cp;;C:\Program Files\Microchip\xc8\v2.46\pic\sources\c99\common
      +                          \doprnt.c: 1180:     _Bool done;;C:\Program Files\Microchip\xc8\v2.46\pic\sources\c99\co
      +                          mmon\doprnt.c: 1188:  } convarg;;C:\Program Files\Microchip\xc8\v2.46\pic\sources\c99\co
      +                          mmon\doprnt.c: 1201:     if ((*fmt)[0] == '%') {
  6019   00136C  0100               	movlb	0	; () banked
  6020   00136E  518B               	movf	vfpfcnvrt@fmt& (0+255),w,b
  6021   001370  6ED9               	movwf	fsr2l,c
  6022   001372  6ADA               	clrf	fsr2h,c
  6023   001374  CFDF FFF6          	movff	indf2,tblptrl
  6024   001378                     	if	1	;There is more than 1 active tblptr byte
  6025   001378  0E10               	movlw	high __smallconst
  6026   00137A  6EF7               	movwf	tblptrh,c
  6027   00137C                     	endif
  6028   00137C                     	if	1	;Program memory is < 0x10000, tblptru is always zero
  6029   00137C  6AF8               	clrf	tblptru,c
  6030   00137E                     	endif
  6031   00137E                     	if	0	;tblptru may be non-zero
  6032   00137E                     	endif
  6033   00137E  0008               	tblrd		*
  6034   001380  50F5               	movf	tablat,w,c
  6035   001382  0A25               	xorlw	37
  6036   001384  A4D8               	btfss	status,2,c
  6037   001386  EFC7  F009         	goto	u3391
  6038   00138A  EFC9  F009         	goto	u3390
  6039   00138E                     u3391:
  6040   00138E  EF8E  F00A         	goto	l4147
  6041   001392                     u3390:
  6042   001392                     
  6043                           ; BSR set to: 0
  6044                           ;C:\Program Files\Microchip\xc8\v2.46\pic\sources\c99\common\doprnt.c: 1202:         ++*
      +                          fmt;
  6045   001392  518B               	movf	vfpfcnvrt@fmt& (0+255),w,b
  6046   001394  6ED9               	movwf	fsr2l,c
  6047   001396  6ADA               	clrf	fsr2h,c
  6048   001398  2ADF               	incf	indf2,f,c
  6049   00139A                     
  6050                           ; BSR set to: 0
  6051                           ;C:\Program Files\Microchip\xc8\v2.46\pic\sources\c99\common\doprnt.c: 1204:         fla
      +                          gs = width = 0;
  6052   00139A  0E00               	movlw	0
  6053   00139C  6E4C               	movwf	(_width+1)^0,c
  6054   00139E  0E00               	movlw	0
  6055   0013A0  6E4B               	movwf	_width^0,c
  6056   0013A2  C04B  F065         	movff	_width,_flags
  6057   0013A6                     
  6058                           ; BSR set to: 0
  6059                           ;C:\Program Files\Microchip\xc8\v2.46\pic\sources\c99\common\doprnt.c: 1205:         pre
      +                          c = -1;
  6060   0013A6  684D               	setf	_prec^0,c
  6061   0013A8  684E               	setf	(_prec+1)^0,c
  6062   0013AA                     
  6063                           ; BSR set to: 0
  6064                           ;C:\Program Files\Microchip\xc8\v2.46\pic\sources\c99\common\doprnt.c: 1291:   cp = *fmt
      +                          ;
  6065   0013AA  518B               	movf	vfpfcnvrt@fmt& (0+255),w,b
  6066   0013AC  6ED9               	movwf	fsr2l,c
  6067   0013AE  6ADA               	clrf	fsr2h,c
  6068   0013B0  50DF               	movf	indf2,w,c
  6069   0013B2  6F8F               	movwf	vfpfcnvrt@cp& (0+255),b
  6070   0013B4                     
  6071                           ; BSR set to: 0
  6072                           ;C:\Program Files\Microchip\xc8\v2.46\pic\sources\c99\common\doprnt.c: 1361:   if (*cp =
      +                          = 'd' || *cp == 'i') {
  6073   0013B4  C08F  FFF6         	movff	vfpfcnvrt@cp,tblptrl
  6074   0013B8                     	if	1	;There is more than 1 active tblptr byte
  6075   0013B8  0E10               	movlw	high __smallconst
  6076   0013BA  6EF7               	movwf	tblptrh,c
  6077   0013BC                     	endif
  6078   0013BC                     	if	1	;Program memory is < 0x10000, tblptru is always zero
  6079   0013BC  6AF8               	clrf	tblptru,c
  6080   0013BE                     	endif
  6081   0013BE                     	if	0	;tblptru may be non-zero
  6082   0013BE                     	endif
  6083   0013BE  0008               	tblrd		*
  6084   0013C0  50F5               	movf	tablat,w,c
  6085   0013C2  0A64               	xorlw	100
  6086   0013C4  B4D8               	btfsc	status,2,c
  6087   0013C6  EFE7  F009         	goto	u3401
  6088   0013CA  EFE9  F009         	goto	u3400
  6089   0013CE                     u3401:
  6090   0013CE  EFF8  F009         	goto	l4117
  6091   0013D2                     u3400:
  6092   0013D2                     
  6093                           ; BSR set to: 0
  6094   0013D2  C08F  FFF6         	movff	vfpfcnvrt@cp,tblptrl
  6095   0013D6                     	if	1	;There is more than 1 active tblptr byte
  6096   0013D6  0E10               	movlw	high __smallconst
  6097   0013D8  6EF7               	movwf	tblptrh,c
  6098   0013DA                     	endif
  6099   0013DA                     	if	1	;Program memory is < 0x10000, tblptru is always zero
  6100   0013DA  6AF8               	clrf	tblptru,c
  6101   0013DC                     	endif
  6102   0013DC                     	if	0	;tblptru may be non-zero
  6103   0013DC                     	endif
  6104   0013DC  0008               	tblrd		*
  6105   0013DE  50F5               	movf	tablat,w,c
  6106   0013E0  0A69               	xorlw	105
  6107   0013E2  A4D8               	btfss	status,2,c
  6108   0013E4  EFF6  F009         	goto	u3411
  6109   0013E8  EFF8  F009         	goto	u3410
  6110   0013EC                     u3411:
  6111   0013EC  EF87  F00A         	goto	l4143
  6112   0013F0                     u3410:
  6113   0013F0                     l4117:
  6114                           
  6115                           ; BSR set to: 0
  6116                           ;C:\Program Files\Microchip\xc8\v2.46\pic\sources\c99\common\doprnt.c: 1404:    convarg.
      +                          sint = (vfpf_sint_t)(int)(*(int *)__va_arg(*(int **)ap, (int)0));
  6117   0013F0  518C               	movf	vfpfcnvrt@ap& (0+255),w,b
  6118   0013F2  6ED9               	movwf	fsr2l,c
  6119   0013F4  6ADA               	clrf	fsr2h,c
  6120   0013F6  0E02               	movlw	2
  6121   0013F8  26DF               	addwf	indf2,f,c
  6122   0013FA  5CDF               	subwf	indf2,w,c
  6123   0013FC  6ED9               	movwf	fsr2l,c
  6124   0013FE  6ADA               	clrf	fsr2h,c
  6125   001400  CFDE F090          	movff	postinc2,vfpfcnvrt@convarg
  6126   001404  CFDE F091          	movff	postinc2,vfpfcnvrt@convarg+1
  6127   001408                     
  6128                           ; BSR set to: 0
  6129                           ;C:\Program Files\Microchip\xc8\v2.46\pic\sources\c99\common\doprnt.c: 1406:    *fmt = c
      +                          p+1;
  6130   001408  518B               	movf	vfpfcnvrt@fmt& (0+255),w,b
  6131   00140A  6ED9               	movwf	fsr2l,c
  6132   00140C  6ADA               	clrf	fsr2h,c
  6133   00140E  298F               	incf	vfpfcnvrt@cp& (0+255),w,b
  6134   001410  6EDF               	movwf	indf2,c
  6135   001412                     
  6136                           ; BSR set to: 0
  6137                           ;C:\Program Files\Microchip\xc8\v2.46\pic\sources\c99\common\doprnt.c: 1408:    c = size
      +                          of(dbuf);
  6138   001412  0E20               	movlw	32
  6139   001414  6F94               	movwf	vfpfcnvrt@c& (0+255),b
  6140                           
  6141                           ;C:\Program Files\Microchip\xc8\v2.46\pic\sources\c99\common\doprnt.c: 1409:    done = c
      +                          onvarg.sint < 0;
  6142   001416  BF91               	btfsc	(vfpfcnvrt@convarg+1)& (0+255),7,b
  6143   001418  EF10  F00A         	goto	u3421
  6144   00141C  EF13  F00A         	goto	u3420
  6145   001420                     u3421:
  6146   001420  0E01               	movlw	1
  6147   001422  EF14  F00A         	goto	u3430
  6148   001426                     u3420:
  6149   001426  0E00               	movlw	0
  6150   001428                     u3430:
  6151   001428  6F8E               	movwf	vfpfcnvrt@done& (0+255),b
  6152   00142A                     l4123:
  6153                           
  6154                           ; BSR set to: 0
  6155                           ;C:\Program Files\Microchip\xc8\v2.46\pic\sources\c99\common\doprnt.c: 1411:     dbuf[--
      +                          c] = abs(convarg.sint % 10) + '0';
  6156   00142A  0794               	decf	vfpfcnvrt@c& (0+255),f,b
  6157   00142C  0E00               	movlw	low _dbuf
  6158   00142E  2594               	addwf	vfpfcnvrt@c& (0+255),w,b
  6159   001430  6ED9               	movwf	fsr2l,c
  6160   001432  6ADA               	clrf	fsr2h,c
  6161   001434  0E01               	movlw	high _dbuf
  6162   001436  22DA               	addwfc	fsr2h,f,c
  6163   001438  C090  F080         	movff	vfpfcnvrt@convarg,___awmod@dividend
  6164   00143C  C091  F081         	movff	vfpfcnvrt@convarg+1,___awmod@dividend+1
  6165   001440  0E00               	movlw	0
  6166   001442  6F83               	movwf	(___awmod@divisor+1)& (0+255),b
  6167   001444  0E0A               	movlw	10
  6168   001446  6F82               	movwf	___awmod@divisor& (0+255),b
  6169   001448  EC39  F013         	call	___awmod	;wreg free
  6170   00144C  C080  F086         	movff	?___awmod,abs@a
  6171   001450  C081  F087         	movff	?___awmod+1,abs@a+1
  6172   001454  EC8D  F01C         	call	_abs	;wreg free
  6173   001458  0100               	movlb	0	; () banked
  6174   00145A  5186               	movf	?_abs& (0+255),w,b
  6175   00145C  0F30               	addlw	48
  6176   00145E  6EDF               	movwf	indf2,c
  6177   001460                     
  6178                           ; BSR set to: 0
  6179                           ;C:\Program Files\Microchip\xc8\v2.46\pic\sources\c99\common\doprnt.c: 1412:     convarg
      +                          .sint /= 10;
  6180   001460  C090  F080         	movff	vfpfcnvrt@convarg,___awdiv@dividend
  6181   001464  C091  F081         	movff	vfpfcnvrt@convarg+1,___awdiv@dividend+1
  6182   001468  0E00               	movlw	0
  6183   00146A  6F83               	movwf	(___awdiv@divisor+1)& (0+255),b
  6184   00146C  0E0A               	movlw	10
  6185   00146E  6F82               	movwf	___awdiv@divisor& (0+255),b
  6186   001470  EC1B  F012         	call	___awdiv	;wreg free
  6187   001474  C080  F090         	movff	?___awdiv,vfpfcnvrt@convarg
  6188   001478  C081  F091         	movff	?___awdiv+1,vfpfcnvrt@convarg+1
  6189   00147C                     
  6190                           ;C:\Program Files\Microchip\xc8\v2.46\pic\sources\c99\common\doprnt.c: 1416:    } while 
      +                          (convarg.sint != 0 && c != 0);
  6191   00147C  0100               	movlb	0	; () banked
  6192   00147E  5190               	movf	vfpfcnvrt@convarg& (0+255),w,b
  6193   001480  1191               	iorwf	(vfpfcnvrt@convarg+1)& (0+255),w,b
  6194   001482  B4D8               	btfsc	status,2,c
  6195   001484  EF46  F00A         	goto	u3441
  6196   001488  EF48  F00A         	goto	u3440
  6197   00148C                     u3441:
  6198   00148C  EF50  F00A         	goto	l4131
  6199   001490                     u3440:
  6200   001490                     
  6201                           ; BSR set to: 0
  6202   001490  5194               	movf	vfpfcnvrt@c& (0+255),w,b
  6203   001492  A4D8               	btfss	status,2,c
  6204   001494  EF4E  F00A         	goto	u3451
  6205   001498  EF50  F00A         	goto	u3450
  6206   00149C                     u3451:
  6207   00149C  EF15  F00A         	goto	l4123
  6208   0014A0                     u3450:
  6209   0014A0                     l4131:
  6210                           
  6211                           ; BSR set to: 0
  6212                           ;C:\Program Files\Microchip\xc8\v2.46\pic\sources\c99\common\doprnt.c: 1417:    if (c !=
      +                           0 && done) {
  6213   0014A0  5194               	movf	vfpfcnvrt@c& (0+255),w,b
  6214   0014A2  B4D8               	btfsc	status,2,c
  6215   0014A4  EF56  F00A         	goto	u3461
  6216   0014A8  EF58  F00A         	goto	u3460
  6217   0014AC                     u3461:
  6218   0014AC  EF7C  F00A         	goto	l4141
  6219   0014B0                     u3460:
  6220   0014B0                     
  6221                           ; BSR set to: 0
  6222   0014B0  518E               	movf	vfpfcnvrt@done& (0+255),w,b
  6223   0014B2  B4D8               	btfsc	status,2,c
  6224   0014B4  EF5E  F00A         	goto	u3471
  6225   0014B8  EF60  F00A         	goto	u3470
  6226   0014BC                     u3471:
  6227   0014BC  EF7C  F00A         	goto	l4141
  6228   0014C0                     u3470:
  6229   0014C0                     
  6230                           ; BSR set to: 0
  6231                           ;C:\Program Files\Microchip\xc8\v2.46\pic\sources\c99\common\doprnt.c: 1418:     dbuf[--
      +                          c] = '-';
  6232   0014C0  0794               	decf	vfpfcnvrt@c& (0+255),f,b
  6233   0014C2  0E00               	movlw	low _dbuf
  6234   0014C4  2594               	addwf	vfpfcnvrt@c& (0+255),w,b
  6235   0014C6  6ED9               	movwf	fsr2l,c
  6236   0014C8  6ADA               	clrf	fsr2h,c
  6237   0014CA  0E01               	movlw	high _dbuf
  6238   0014CC  22DA               	addwfc	fsr2h,f,c
  6239   0014CE  0E2D               	movlw	45
  6240   0014D0  6EDF               	movwf	indf2,c
  6241   0014D2  EF7C  F00A         	goto	l4141
  6242   0014D6                     l4137:
  6243                           
  6244                           ; BSR set to: 0
  6245                           ;C:\Program Files\Microchip\xc8\v2.46\pic\sources\c99\common\doprnt.c: 1424:     fputc(d
      +                          buf[c++], fp);
  6246   0014D6  0E00               	movlw	low _dbuf
  6247   0014D8  2594               	addwf	vfpfcnvrt@c& (0+255),w,b
  6248   0014DA  6ED9               	movwf	fsr2l,c
  6249   0014DC  6ADA               	clrf	fsr2h,c
  6250   0014DE  0E01               	movlw	high _dbuf
  6251   0014E0  22DA               	addwfc	fsr2h,f,c
  6252   0014E2  50DF               	movf	indf2,w,c
  6253   0014E4  6F8D               	movwf	??_vfpfcnvrt& (0+255),b
  6254   0014E6  518D               	movf	??_vfpfcnvrt& (0+255),w,b
  6255   0014E8  6F80               	movwf	fputc@c& (0+255),b
  6256   0014EA  6B81               	clrf	(fputc@c+1)& (0+255),b
  6257   0014EC  C08A  F082         	movff	vfpfcnvrt@fp,fputc@fp
  6258   0014F0  EC42  F014         	call	_fputc	;wreg free
  6259   0014F4  0100               	movlb	0	; () banked
  6260   0014F6  2B94               	incf	vfpfcnvrt@c& (0+255),f,b
  6261   0014F8                     l4141:
  6262                           
  6263                           ; BSR set to: 0
  6264                           ;C:\Program Files\Microchip\xc8\v2.46\pic\sources\c99\common\doprnt.c: 1423:    while (c
      +                           != sizeof(dbuf)) {
  6265   0014F8  0E20               	movlw	32
  6266   0014FA  1994               	xorwf	vfpfcnvrt@c& (0+255),w,b
  6267   0014FC  A4D8               	btfss	status,2,c
  6268   0014FE  EF83  F00A         	goto	u3481
  6269   001502  EF85  F00A         	goto	u3480
  6270   001506                     u3481:
  6271   001506  EF6B  F00A         	goto	l4137
  6272   00150A                     u3480:
  6273   00150A  EFA0  F00A         	goto	l1539
  6274   00150E                     l4143:
  6275                           
  6276                           ;C:\Program Files\Microchip\xc8\v2.46\pic\sources\c99\common\doprnt.c: 1806:         ++*
      +                          fmt;
  6277   00150E  0100               	movlb	0	; () banked
  6278   001510  518B               	movf	vfpfcnvrt@fmt& (0+255),w,b
  6279   001512  6ED9               	movwf	fsr2l,c
  6280   001514  6ADA               	clrf	fsr2h,c
  6281   001516  2ADF               	incf	indf2,f,c
  6282   001518  EFA0  F00A         	goto	l1539
  6283   00151C                     l4147:
  6284                           
  6285                           ; BSR set to: 0
  6286                           ;C:\Program Files\Microchip\xc8\v2.46\pic\sources\c99\common\doprnt.c: 1811:     fputc((
      +                          int)(*fmt)[0], fp);
  6287   00151C  518B               	movf	vfpfcnvrt@fmt& (0+255),w,b
  6288   00151E  6ED9               	movwf	fsr2l,c
  6289   001520  6ADA               	clrf	fsr2h,c
  6290   001522  CFDF FFF6          	movff	indf2,tblptrl
  6291   001526                     	if	1	;There is more than 1 active tblptr byte
  6292   001526  0E10               	movlw	high __smallconst
  6293   001528  6EF7               	movwf	tblptrh,c
  6294   00152A                     	endif
  6295   00152A                     	if	1	;Program memory is < 0x10000, tblptru is always zero
  6296   00152A  6AF8               	clrf	tblptru,c
  6297   00152C                     	endif
  6298   00152C                     	if	0	;tblptru may be non-zero
  6299   00152C                     	endif
  6300   00152C  0008               	tblrd		*
  6301   00152E  50F5               	movf	tablat,w,c
  6302   001530  6F80               	movwf	fputc@c& (0+255),b
  6303   001532  6B81               	clrf	(fputc@c+1)& (0+255),b
  6304   001534  C08A  F082         	movff	vfpfcnvrt@fp,fputc@fp
  6305   001538  EC42  F014         	call	_fputc	;wreg free
  6306   00153C  EF87  F00A         	goto	l4143
  6307   001540                     l1539:
  6308                           
  6309                           ; BSR set to: 0
  6310   001540  0012               	return		;funcret
  6311   001542                     __end_of_vfpfcnvrt:
  6312                           	callstack 0
  6313                           
  6314 ;; *************** function _fputc *****************
  6315 ;; Defined at:
  6316 ;;		line 8 in file "C:\Program Files\Microchip\xc8\v2.46\pic\sources\c99\common\nf_fputc.c"
  6317 ;; Parameters:    Size  Location     Type
  6318 ;;  c               2    0[BANK0 ] int 
  6319 ;;  fp              1    2[BANK0 ] PTR struct _IO_FILE
  6320 ;;		 -> sprintf@f(12), 
  6321 ;; Auto vars:     Size  Location     Type
  6322 ;;		None
  6323 ;; Return value:  Size  Location     Type
  6324 ;;                  2    0[BANK0 ] int 
  6325 ;; Registers used:
  6326 ;;		wreg, fsr1l, fsr1h, fsr2l, fsr2h, status,2, status,0, cstack
  6327 ;; Tracked objects:
  6328 ;;		On entry : 0/0
  6329 ;;		On exit  : 0/0
  6330 ;;		Unchanged: 0/0
  6331 ;; Data sizes:     COMRAM   BANK0   BANK1   BANK2   BANK3   BANK4   BANK5   BANK6   BANK7   BANK8   BANK9  BANK10  BANK1
      +1  BANK12  BANK13  BANK14  BANK15
  6332 ;;      Params:         0       3       0       0       0       0       0       0       0       0       0       0       
      +0       0       0       0       0
  6333 ;;      Locals:         0       0       0       0       0       0       0       0       0       0       0       0       
      +0       0       0       0       0
  6334 ;;      Temps:          0       5       0       0       0       0       0       0       0       0       0       0       
      +0       0       0       0       0
  6335 ;;      Totals:         0       8       0       0       0       0       0       0       0       0       0       0       
      +0       0       0       0       0
  6336 ;;Total ram usage:        8 bytes
  6337 ;; Hardware stack levels used: 1
  6338 ;; Hardware stack levels required when called: 11
  6339 ;; This function calls:
  6340 ;;		_putch
  6341 ;; This function is called by:
  6342 ;;		_vfpfcnvrt
  6343 ;; This function uses a non-reentrant model
  6344 ;;
  6345                           
  6346                           	psect	text36
  6347   002884                     __ptext36:
  6348                           	callstack 0
  6349   002884                     _fputc:
  6350                           	callstack 14
  6351   002884  0100               	movlb	0	; () banked
  6352   002886  5182               	movf	fputc@fp& (0+255),w,b
  6353   002888  B4D8               	btfsc	status,2,c
  6354   00288A  EF49  F014         	goto	u3251
  6355   00288E  EF4B  F014         	goto	u3250
  6356   002892                     u3251:
  6357   002892  EF53  F014         	goto	l4015
  6358   002896                     u3250:
  6359   002896                     
  6360                           ; BSR set to: 0
  6361   002896  5182               	movf	fputc@fp& (0+255),w,b
  6362   002898  A4D8               	btfss	status,2,c
  6363   00289A  EF51  F014         	goto	u3261
  6364   00289E  EF53  F014         	goto	u3260
  6365   0028A2                     u3261:
  6366   0028A2  EF58  F014         	goto	l4017
  6367   0028A6                     u3260:
  6368   0028A6                     l4015:
  6369                           
  6370                           ; BSR set to: 0
  6371   0028A6  5180               	movf	fputc@c& (0+255),w,b
  6372   0028A8  EC67  F01E         	call	_putch
  6373   0028AC  EF97  F014         	goto	l1564
  6374   0028B0                     l4017:
  6375                           
  6376                           ; BSR set to: 0
  6377   0028B0  5182               	movf	fputc@fp& (0+255),w,b
  6378   0028B2  6ED9               	movwf	fsr2l,c
  6379   0028B4  6ADA               	clrf	fsr2h,c
  6380   0028B6  0E0A               	movlw	10
  6381   0028B8  26D9               	addwf	fsr2l,f,c
  6382   0028BA  50DE               	movf	postinc2,w,c
  6383   0028BC  10DE               	iorwf	postinc2,w,c
  6384   0028BE  B4D8               	btfsc	status,2,c
  6385   0028C0  EF64  F014         	goto	u3271
  6386   0028C4  EF66  F014         	goto	u3270
  6387   0028C8                     u3271:
  6388   0028C8  EF7F  F014         	goto	l4021
  6389   0028CC                     u3270:
  6390   0028CC                     
  6391                           ; BSR set to: 0
  6392   0028CC  5182               	movf	fputc@fp& (0+255),w,b
  6393   0028CE  6ED9               	movwf	fsr2l,c
  6394   0028D0  6ADA               	clrf	fsr2h,c
  6395   0028D2  0E0A               	movlw	10
  6396   0028D4  26D9               	addwf	fsr2l,f,c
  6397   0028D6  5182               	movf	fputc@fp& (0+255),w,b
  6398   0028D8  6EE1               	movwf	fsr1l,c
  6399   0028DA  6AE2               	clrf	fsr1h,c
  6400   0028DC  0E03               	movlw	3
  6401   0028DE  26E1               	addwf	fsr1l,f,c
  6402   0028E0  50DE               	movf	postinc2,w,c
  6403   0028E2  5CE6               	subwf	postinc1,w,c
  6404   0028E4  50E6               	movf	postinc1,w,c
  6405   0028E6  0A80               	xorlw	128
  6406   0028E8  6F87               	movwf	(??_fputc+4)& (0+255),b
  6407   0028EA  50DE               	movf	postinc2,w,c
  6408   0028EC  0A80               	xorlw	128
  6409   0028EE  5987               	subwfb	(??_fputc+4)& (0+255),w,b
  6410   0028F0  B0D8               	btfsc	status,0,c
  6411   0028F2  EF7D  F014         	goto	u3281
  6412   0028F6  EF7F  F014         	goto	u3280
  6413   0028FA                     u3281:
  6414   0028FA  EF97  F014         	goto	l1564
  6415   0028FE                     u3280:
  6416   0028FE                     l4021:
  6417                           
  6418                           ; BSR set to: 0
  6419   0028FE  5182               	movf	fputc@fp& (0+255),w,b
  6420   002900  6ED9               	movwf	fsr2l,c
  6421   002902  6ADA               	clrf	fsr2h,c
  6422   002904  0E03               	movlw	3
  6423   002906  26D9               	addwf	fsr2l,f,c
  6424   002908  50DF               	movf	indf2,w,c
  6425   00290A  6F83               	movwf	??_fputc& (0+255),b
  6426   00290C  5182               	movf	fputc@fp& (0+255),w,b
  6427   00290E  6ED9               	movwf	fsr2l,c
  6428   002910  6ADA               	clrf	fsr2h,c
  6429   002912  50DF               	movf	indf2,w,c
  6430   002914  2583               	addwf	??_fputc& (0+255),w,b
  6431   002916  6ED9               	movwf	fsr2l,c
  6432   002918  6ADA               	clrf	fsr2h,c
  6433   00291A  C080  FFDF         	movff	fputc@c,indf2
  6434   00291E  5182               	movf	fputc@fp& (0+255),w,b
  6435   002920  6ED9               	movwf	fsr2l,c
  6436   002922  6ADA               	clrf	fsr2h,c
  6437   002924  0E03               	movlw	3
  6438   002926  26D9               	addwf	fsr2l,f,c
  6439   002928  2ADE               	incf	postinc2,f,c
  6440   00292A  0E00               	movlw	0
  6441   00292C  22DD               	addwfc	postdec2,f,c
  6442   00292E                     l1564:
  6443   00292E  0012               	return		;funcret
  6444   002930                     __end_of_fputc:
  6445                           	callstack 0
  6446                           
  6447 ;; *************** function _putch *****************
  6448 ;; Defined at:
  6449 ;;		line 7 in file "C:\Program Files\Microchip\xc8\v2.46\pic\sources\c99\common\putch.c"
  6450 ;; Parameters:    Size  Location     Type
  6451 ;;  c               1    wreg     unsigned char 
  6452 ;; Auto vars:     Size  Location     Type
  6453 ;;  c               1    0[COMRAM] unsigned char 
  6454 ;; Return value:  Size  Location     Type
  6455 ;;                  1    wreg      void 
  6456 ;; Registers used:
  6457 ;;		wreg
  6458 ;; Tracked objects:
  6459 ;;		On entry : 0/0
  6460 ;;		On exit  : 0/0
  6461 ;;		Unchanged: 0/0
  6462 ;; Data sizes:     COMRAM   BANK0   BANK1   BANK2   BANK3   BANK4   BANK5   BANK6   BANK7   BANK8   BANK9  BANK10  BANK1
      +1  BANK12  BANK13  BANK14  BANK15
  6463 ;;      Params:         0       0       0       0       0       0       0       0       0       0       0       0       
      +0       0       0       0       0
  6464 ;;      Locals:         0       0       0       0       0       0       0       0       0       0       0       0       
      +0       0       0       0       0
  6465 ;;      Temps:          0       0       0       0       0       0       0       0       0       0       0       0       
      +0       0       0       0       0
  6466 ;;      Totals:         0       0       0       0       0       0       0       0       0       0       0       0       
      +0       0       0       0       0
  6467 ;;Total ram usage:        0 bytes
  6468 ;; Hardware stack levels used: 1
  6469 ;; Hardware stack levels required when called: 10
  6470 ;; This function calls:
  6471 ;;		Nothing
  6472 ;; This function is called by:
  6473 ;;		_fputc
  6474 ;; This function uses a non-reentrant model
  6475 ;;
  6476                           
  6477                           	psect	text37
  6478   003CCE                     __ptext37:
  6479                           	callstack 0
  6480   003CCE                     _putch:
  6481                           	callstack 14
  6482   003CCE  0012               	return		;funcret
  6483   003CD0                     __end_of_putch:
  6484                           	callstack 0
  6485                           
  6486 ;; *************** function _abs *****************
  6487 ;; Defined at:
  6488 ;;		line 1 in file "C:\Program Files\Microchip\xc8\v2.46\pic\sources\c99\common\abs.c"
  6489 ;; Parameters:    Size  Location     Type
  6490 ;;  a               2    6[BANK0 ] int 
  6491 ;; Auto vars:     Size  Location     Type
  6492 ;;		None
  6493 ;; Return value:  Size  Location     Type
  6494 ;;                  2    6[BANK0 ] int 
  6495 ;; Registers used:
  6496 ;;		wreg, status,2, status,0
  6497 ;; Tracked objects:
  6498 ;;		On entry : 0/0
  6499 ;;		On exit  : 0/0
  6500 ;;		Unchanged: 0/0
  6501 ;; Data sizes:     COMRAM   BANK0   BANK1   BANK2   BANK3   BANK4   BANK5   BANK6   BANK7   BANK8   BANK9  BANK10  BANK1
      +1  BANK12  BANK13  BANK14  BANK15
  6502 ;;      Params:         0       2       0       0       0       0       0       0       0       0       0       0       
      +0       0       0       0       0
  6503 ;;      Locals:         0       0       0       0       0       0       0       0       0       0       0       0       
      +0       0       0       0       0
  6504 ;;      Temps:          0       2       0       0       0       0       0       0       0       0       0       0       
      +0       0       0       0       0
  6505 ;;      Totals:         0       4       0       0       0       0       0       0       0       0       0       0       
      +0       0       0       0       0
  6506 ;;Total ram usage:        4 bytes
  6507 ;; Hardware stack levels used: 1
  6508 ;; Hardware stack levels required when called: 10
  6509 ;; This function calls:
  6510 ;;		Nothing
  6511 ;; This function is called by:
  6512 ;;		_vfpfcnvrt
  6513 ;; This function uses a non-reentrant model
  6514 ;;
  6515                           
  6516                           	psect	text38
  6517   00391A                     __ptext38:
  6518                           	callstack 0
  6519   00391A                     _abs:
  6520                           	callstack 15
  6521   00391A  0100               	movlb	0	; () banked
  6522   00391C  BF87               	btfsc	(abs@a+1)& (0+255),7,b
  6523   00391E  EF93  F01C         	goto	u3291
  6524   003922  EF95  F01C         	goto	u3290
  6525   003926                     u3291:
  6526   003926  EF9B  F01C         	goto	l1549
  6527   00392A                     u3290:
  6528   00392A                     
  6529                           ; BSR set to: 0
  6530   00392A  C086  F086         	movff	abs@a,?_abs
  6531   00392E  C087  F087         	movff	abs@a+1,?_abs+1
  6532   003932  EFA7  F01C         	goto	l1552
  6533   003936                     l1549:
  6534                           
  6535                           ; BSR set to: 0
  6536   003936  C086  F088         	movff	abs@a,??_abs
  6537   00393A  C087  F089         	movff	abs@a+1,??_abs+1
  6538   00393E  1F88               	comf	??_abs& (0+255),f,b
  6539   003940  1F89               	comf	(??_abs+1)& (0+255),f,b
  6540   003942  4B88               	infsnz	??_abs& (0+255),f,b
  6541   003944  2B89               	incf	(??_abs+1)& (0+255),f,b
  6542   003946  C088  F086         	movff	??_abs,?_abs
  6543   00394A  C089  F087         	movff	??_abs+1,?_abs+1
  6544   00394E                     l1552:
  6545                           
  6546                           ; BSR set to: 0
  6547   00394E  0012               	return		;funcret
  6548   003950                     __end_of_abs:
  6549                           	callstack 0
  6550                           
  6551 ;; *************** function ___awmod *****************
  6552 ;; Defined at:
  6553 ;;		line 7 in file "C:\Program Files\Microchip\xc8\v2.46\pic\sources\c99\common\awmod.c"
  6554 ;; Parameters:    Size  Location     Type
  6555 ;;  dividend        2    0[BANK0 ] int 
  6556 ;;  divisor         2    2[BANK0 ] int 
  6557 ;; Auto vars:     Size  Location     Type
  6558 ;;  sign            1    5[BANK0 ] unsigned char 
  6559 ;;  counter         1    4[BANK0 ] unsigned char 
  6560 ;; Return value:  Size  Location     Type
  6561 ;;                  2    0[BANK0 ] int 
  6562 ;; Registers used:
  6563 ;;		wreg, status,2, status,0
  6564 ;; Tracked objects:
  6565 ;;		On entry : 0/0
  6566 ;;		On exit  : 0/0
  6567 ;;		Unchanged: 0/0
  6568 ;; Data sizes:     COMRAM   BANK0   BANK1   BANK2   BANK3   BANK4   BANK5   BANK6   BANK7   BANK8   BANK9  BANK10  BANK1
      +1  BANK12  BANK13  BANK14  BANK15
  6569 ;;      Params:         0       4       0       0       0       0       0       0       0       0       0       0       
      +0       0       0       0       0
  6570 ;;      Locals:         0       2       0       0       0       0       0       0       0       0       0       0       
      +0       0       0       0       0
  6571 ;;      Temps:          0       0       0       0       0       0       0       0       0       0       0       0       
      +0       0       0       0       0
  6572 ;;      Totals:         0       6       0       0       0       0       0       0       0       0       0       0       
      +0       0       0       0       0
  6573 ;;Total ram usage:        6 bytes
  6574 ;; Hardware stack levels used: 1
  6575 ;; Hardware stack levels required when called: 10
  6576 ;; This function calls:
  6577 ;;		Nothing
  6578 ;; This function is called by:
  6579 ;;		_vfpfcnvrt
  6580 ;; This function uses a non-reentrant model
  6581 ;;
  6582                           
  6583                           	psect	text39
  6584   002672                     __ptext39:
  6585                           	callstack 0
  6586   002672                     ___awmod:
  6587                           	callstack 15
  6588   002672  0E00               	movlw	0
  6589   002674  0100               	movlb	0	; () banked
  6590   002676  6F85               	movwf	___awmod@sign& (0+255),b
  6591   002678                     
  6592                           ; BSR set to: 0
  6593   002678  BF81               	btfsc	(___awmod@dividend+1)& (0+255),7,b
  6594   00267A  EF43  F013         	goto	u3190
  6595   00267E  EF41  F013         	goto	u3191
  6596   002682                     u3191:
  6597   002682  EF49  F013         	goto	l3983
  6598   002686                     u3190:
  6599   002686                     
  6600                           ; BSR set to: 0
  6601   002686  6D80               	negf	___awmod@dividend& (0+255),b
  6602   002688  1F81               	comf	(___awmod@dividend+1)& (0+255),f,b
  6603   00268A  B0D8               	btfsc	status,0,c
  6604   00268C  2B81               	incf	(___awmod@dividend+1)& (0+255),f,b
  6605   00268E                     
  6606                           ; BSR set to: 0
  6607   00268E  0E01               	movlw	1
  6608   002690  6F85               	movwf	___awmod@sign& (0+255),b
  6609   002692                     l3983:
  6610                           
  6611                           ; BSR set to: 0
  6612   002692  BF83               	btfsc	(___awmod@divisor+1)& (0+255),7,b
  6613   002694  EF50  F013         	goto	u3200
  6614   002698  EF4E  F013         	goto	u3201
  6615   00269C                     u3201:
  6616   00269C  EF54  F013         	goto	l3987
  6617   0026A0                     u3200:
  6618   0026A0                     
  6619                           ; BSR set to: 0
  6620   0026A0  6D82               	negf	___awmod@divisor& (0+255),b
  6621   0026A2  1F83               	comf	(___awmod@divisor+1)& (0+255),f,b
  6622   0026A4  B0D8               	btfsc	status,0,c
  6623   0026A6  2B83               	incf	(___awmod@divisor+1)& (0+255),f,b
  6624   0026A8                     l3987:
  6625                           
  6626                           ; BSR set to: 0
  6627   0026A8  5182               	movf	___awmod@divisor& (0+255),w,b
  6628   0026AA  1183               	iorwf	(___awmod@divisor+1)& (0+255),w,b
  6629   0026AC  B4D8               	btfsc	status,2,c
  6630   0026AE  EF5B  F013         	goto	u3211
  6631   0026B2  EF5D  F013         	goto	u3210
  6632   0026B6                     u3211:
  6633   0026B6  EF81  F013         	goto	l4003
  6634   0026BA                     u3210:
  6635   0026BA                     
  6636                           ; BSR set to: 0
  6637   0026BA  0E01               	movlw	1
  6638   0026BC  6F84               	movwf	___awmod@counter& (0+255),b
  6639   0026BE  EF65  F013         	goto	l3993
  6640   0026C2                     l3991:
  6641                           
  6642                           ; BSR set to: 0
  6643   0026C2  90D8               	bcf	status,0,c
  6644   0026C4  3782               	rlcf	___awmod@divisor& (0+255),f,b
  6645   0026C6  3783               	rlcf	(___awmod@divisor+1)& (0+255),f,b
  6646   0026C8  2B84               	incf	___awmod@counter& (0+255),f,b
  6647   0026CA                     l3993:
  6648                           
  6649                           ; BSR set to: 0
  6650   0026CA  AF83               	btfss	(___awmod@divisor+1)& (0+255),7,b
  6651   0026CC  EF6A  F013         	goto	u3221
  6652   0026D0  EF6C  F013         	goto	u3220
  6653   0026D4                     u3221:
  6654   0026D4  EF61  F013         	goto	l3991
  6655   0026D8                     u3220:
  6656   0026D8                     l3995:
  6657                           
  6658                           ; BSR set to: 0
  6659   0026D8  5182               	movf	___awmod@divisor& (0+255),w,b
  6660   0026DA  5D80               	subwf	___awmod@dividend& (0+255),w,b
  6661   0026DC  5183               	movf	(___awmod@divisor+1)& (0+255),w,b
  6662   0026DE  5981               	subwfb	(___awmod@dividend+1)& (0+255),w,b
  6663   0026E0  A0D8               	btfss	status,0,c
  6664   0026E2  EF75  F013         	goto	u3231
  6665   0026E6  EF77  F013         	goto	u3230
  6666   0026EA                     u3231:
  6667   0026EA  EF7B  F013         	goto	l3999
  6668   0026EE                     u3230:
  6669   0026EE                     
  6670                           ; BSR set to: 0
  6671   0026EE  5182               	movf	___awmod@divisor& (0+255),w,b
  6672   0026F0  5F80               	subwf	___awmod@dividend& (0+255),f,b
  6673   0026F2  5183               	movf	(___awmod@divisor+1)& (0+255),w,b
  6674   0026F4  5B81               	subwfb	(___awmod@dividend+1)& (0+255),f,b
  6675   0026F6                     l3999:
  6676                           
  6677                           ; BSR set to: 0
  6678   0026F6  90D8               	bcf	status,0,c
  6679   0026F8  3383               	rrcf	(___awmod@divisor+1)& (0+255),f,b
  6680   0026FA  3382               	rrcf	___awmod@divisor& (0+255),f,b
  6681   0026FC                     
  6682                           ; BSR set to: 0
  6683   0026FC  2F84               	decfsz	___awmod@counter& (0+255),f,b
  6684   0026FE  EF6C  F013         	goto	l3995
  6685   002702                     l4003:
  6686                           
  6687                           ; BSR set to: 0
  6688   002702  5185               	movf	___awmod@sign& (0+255),w,b
  6689   002704  B4D8               	btfsc	status,2,c
  6690   002706  EF87  F013         	goto	u3241
  6691   00270A  EF89  F013         	goto	u3240
  6692   00270E                     u3241:
  6693   00270E  EF8D  F013         	goto	l4007
  6694   002712                     u3240:
  6695   002712                     
  6696                           ; BSR set to: 0
  6697   002712  6D80               	negf	___awmod@dividend& (0+255),b
  6698   002714  1F81               	comf	(___awmod@dividend+1)& (0+255),f,b
  6699   002716  B0D8               	btfsc	status,0,c
  6700   002718  2B81               	incf	(___awmod@dividend+1)& (0+255),f,b
  6701   00271A                     l4007:
  6702                           
  6703                           ; BSR set to: 0
  6704   00271A  C080  F080         	movff	___awmod@dividend,?___awmod
  6705   00271E  C081  F081         	movff	___awmod@dividend+1,?___awmod+1
  6706   002722                     
  6707                           ; BSR set to: 0
  6708   002722  0012               	return		;funcret
  6709   002724                     __end_of___awmod:
  6710                           	callstack 0
  6711                           
  6712 ;; *************** function ___awdiv *****************
  6713 ;; Defined at:
  6714 ;;		line 7 in file "C:\Program Files\Microchip\xc8\v2.46\pic\sources\c99\common\awdiv.c"
  6715 ;; Parameters:    Size  Location     Type
  6716 ;;  dividend        2    0[BANK0 ] int 
  6717 ;;  divisor         2    2[BANK0 ] int 
  6718 ;; Auto vars:     Size  Location     Type
  6719 ;;  quotient        2    6[BANK0 ] int 
  6720 ;;  sign            1    5[BANK0 ] unsigned char 
  6721 ;;  counter         1    4[BANK0 ] unsigned char 
  6722 ;; Return value:  Size  Location     Type
  6723 ;;                  2    0[BANK0 ] int 
  6724 ;; Registers used:
  6725 ;;		wreg, status,2, status,0
  6726 ;; Tracked objects:
  6727 ;;		On entry : 0/0
  6728 ;;		On exit  : 0/0
  6729 ;;		Unchanged: 0/0
  6730 ;; Data sizes:     COMRAM   BANK0   BANK1   BANK2   BANK3   BANK4   BANK5   BANK6   BANK7   BANK8   BANK9  BANK10  BANK1
      +1  BANK12  BANK13  BANK14  BANK15
  6731 ;;      Params:         0       4       0       0       0       0       0       0       0       0       0       0       
      +0       0       0       0       0
  6732 ;;      Locals:         0       4       0       0       0       0       0       0       0       0       0       0       
      +0       0       0       0       0
  6733 ;;      Temps:          0       0       0       0       0       0       0       0       0       0       0       0       
      +0       0       0       0       0
  6734 ;;      Totals:         0       8       0       0       0       0       0       0       0       0       0       0       
      +0       0       0       0       0
  6735 ;;Total ram usage:        8 bytes
  6736 ;; Hardware stack levels used: 1
  6737 ;; Hardware stack levels required when called: 10
  6738 ;; This function calls:
  6739 ;;		Nothing
  6740 ;; This function is called by:
  6741 ;;		_vfpfcnvrt
  6742 ;; This function uses a non-reentrant model
  6743 ;;
  6744                           
  6745                           	psect	text40
  6746   002436                     __ptext40:
  6747                           	callstack 0
  6748   002436                     ___awdiv:
  6749                           	callstack 15
  6750   002436  0E00               	movlw	0
  6751   002438  0100               	movlb	0	; () banked
  6752   00243A  6F85               	movwf	___awdiv@sign& (0+255),b
  6753   00243C                     
  6754                           ; BSR set to: 0
  6755   00243C  BF83               	btfsc	(___awdiv@divisor+1)& (0+255),7,b
  6756   00243E  EF25  F012         	goto	u3130
  6757   002442  EF23  F012         	goto	u3131
  6758   002446                     u3131:
  6759   002446  EF2B  F012         	goto	l3939
  6760   00244A                     u3130:
  6761   00244A                     
  6762                           ; BSR set to: 0
  6763   00244A  6D82               	negf	___awdiv@divisor& (0+255),b
  6764   00244C  1F83               	comf	(___awdiv@divisor+1)& (0+255),f,b
  6765   00244E  B0D8               	btfsc	status,0,c
  6766   002450  2B83               	incf	(___awdiv@divisor+1)& (0+255),f,b
  6767   002452                     
  6768                           ; BSR set to: 0
  6769   002452  0E01               	movlw	1
  6770   002454  6F85               	movwf	___awdiv@sign& (0+255),b
  6771   002456                     l3939:
  6772                           
  6773                           ; BSR set to: 0
  6774   002456  BF81               	btfsc	(___awdiv@dividend+1)& (0+255),7,b
  6775   002458  EF32  F012         	goto	u3140
  6776   00245C  EF30  F012         	goto	u3141
  6777   002460                     u3141:
  6778   002460  EF38  F012         	goto	l3945
  6779   002464                     u3140:
  6780   002464                     
  6781                           ; BSR set to: 0
  6782   002464  6D80               	negf	___awdiv@dividend& (0+255),b
  6783   002466  1F81               	comf	(___awdiv@dividend+1)& (0+255),f,b
  6784   002468  B0D8               	btfsc	status,0,c
  6785   00246A  2B81               	incf	(___awdiv@dividend+1)& (0+255),f,b
  6786   00246C                     
  6787                           ; BSR set to: 0
  6788   00246C  0E01               	movlw	1
  6789   00246E  1B85               	xorwf	___awdiv@sign& (0+255),f,b
  6790   002470                     l3945:
  6791                           
  6792                           ; BSR set to: 0
  6793   002470  0E00               	movlw	0
  6794   002472  6F87               	movwf	(___awdiv@quotient+1)& (0+255),b
  6795   002474  0E00               	movlw	0
  6796   002476  6F86               	movwf	___awdiv@quotient& (0+255),b
  6797   002478                     
  6798                           ; BSR set to: 0
  6799   002478  5182               	movf	___awdiv@divisor& (0+255),w,b
  6800   00247A  1183               	iorwf	(___awdiv@divisor+1)& (0+255),w,b
  6801   00247C  B4D8               	btfsc	status,2,c
  6802   00247E  EF43  F012         	goto	u3151
  6803   002482  EF45  F012         	goto	u3150
  6804   002486                     u3151:
  6805   002486  EF6D  F012         	goto	l3967
  6806   00248A                     u3150:
  6807   00248A                     
  6808                           ; BSR set to: 0
  6809   00248A  0E01               	movlw	1
  6810   00248C  6F84               	movwf	___awdiv@counter& (0+255),b
  6811   00248E  EF4D  F012         	goto	l3953
  6812   002492                     l3951:
  6813                           
  6814                           ; BSR set to: 0
  6815   002492  90D8               	bcf	status,0,c
  6816   002494  3782               	rlcf	___awdiv@divisor& (0+255),f,b
  6817   002496  3783               	rlcf	(___awdiv@divisor+1)& (0+255),f,b
  6818   002498  2B84               	incf	___awdiv@counter& (0+255),f,b
  6819   00249A                     l3953:
  6820                           
  6821                           ; BSR set to: 0
  6822   00249A  AF83               	btfss	(___awdiv@divisor+1)& (0+255),7,b
  6823   00249C  EF52  F012         	goto	u3161
  6824   0024A0  EF54  F012         	goto	u3160
  6825   0024A4                     u3161:
  6826   0024A4  EF49  F012         	goto	l3951
  6827   0024A8                     u3160:
  6828   0024A8                     l3955:
  6829                           
  6830                           ; BSR set to: 0
  6831   0024A8  90D8               	bcf	status,0,c
  6832   0024AA  3786               	rlcf	___awdiv@quotient& (0+255),f,b
  6833   0024AC  3787               	rlcf	(___awdiv@quotient+1)& (0+255),f,b
  6834   0024AE                     
  6835                           ; BSR set to: 0
  6836   0024AE  5182               	movf	___awdiv@divisor& (0+255),w,b
  6837   0024B0  5D80               	subwf	___awdiv@dividend& (0+255),w,b
  6838   0024B2  5183               	movf	(___awdiv@divisor+1)& (0+255),w,b
  6839   0024B4  5981               	subwfb	(___awdiv@dividend+1)& (0+255),w,b
  6840   0024B6  A0D8               	btfss	status,0,c
  6841   0024B8  EF60  F012         	goto	u3171
  6842   0024BC  EF62  F012         	goto	u3170
  6843   0024C0                     u3171:
  6844   0024C0  EF67  F012         	goto	l3963
  6845   0024C4                     u3170:
  6846   0024C4                     
  6847                           ; BSR set to: 0
  6848   0024C4  5182               	movf	___awdiv@divisor& (0+255),w,b
  6849   0024C6  5F80               	subwf	___awdiv@dividend& (0+255),f,b
  6850   0024C8  5183               	movf	(___awdiv@divisor+1)& (0+255),w,b
  6851   0024CA  5B81               	subwfb	(___awdiv@dividend+1)& (0+255),f,b
  6852   0024CC                     
  6853                           ; BSR set to: 0
  6854   0024CC  8186               	bsf	___awdiv@quotient& (0+255),0,b
  6855   0024CE                     l3963:
  6856                           
  6857                           ; BSR set to: 0
  6858   0024CE  90D8               	bcf	status,0,c
  6859   0024D0  3383               	rrcf	(___awdiv@divisor+1)& (0+255),f,b
  6860   0024D2  3382               	rrcf	___awdiv@divisor& (0+255),f,b
  6861   0024D4                     
  6862                           ; BSR set to: 0
  6863   0024D4  2F84               	decfsz	___awdiv@counter& (0+255),f,b
  6864   0024D6  EF54  F012         	goto	l3955
  6865   0024DA                     l3967:
  6866                           
  6867                           ; BSR set to: 0
  6868   0024DA  5185               	movf	___awdiv@sign& (0+255),w,b
  6869   0024DC  B4D8               	btfsc	status,2,c
  6870   0024DE  EF73  F012         	goto	u3181
  6871   0024E2  EF75  F012         	goto	u3180
  6872   0024E6                     u3181:
  6873   0024E6  EF79  F012         	goto	l3971
  6874   0024EA                     u3180:
  6875   0024EA                     
  6876                           ; BSR set to: 0
  6877   0024EA  6D86               	negf	___awdiv@quotient& (0+255),b
  6878   0024EC  1F87               	comf	(___awdiv@quotient+1)& (0+255),f,b
  6879   0024EE  B0D8               	btfsc	status,0,c
  6880   0024F0  2B87               	incf	(___awdiv@quotient+1)& (0+255),f,b
  6881   0024F2                     l3971:
  6882                           
  6883                           ; BSR set to: 0
  6884   0024F2  C086  F080         	movff	___awdiv@quotient,?___awdiv
  6885   0024F6  C087  F081         	movff	___awdiv@quotient+1,?___awdiv+1
  6886   0024FA                     
  6887                           ; BSR set to: 0
  6888   0024FA  0012               	return		;funcret
  6889   0024FC                     __end_of___awdiv:
  6890                           	callstack 0
  6891                           
  6892 ;; *************** function _memset *****************
  6893 ;; Defined at:
  6894 ;;		line 3 in file "C:\Program Files\Microchip\xc8\v2.46\pic\sources\c99\common\memset.c"
  6895 ;; Parameters:    Size  Location     Type
  6896 ;;  dest            1    0[BANK0 ] PTR void 
  6897 ;;		 -> can_D_str(6), can_C_str(6), can_B_str(6), can_A_str(6), 
  6898 ;;  c               2    1[BANK0 ] int 
  6899 ;;  n               2    3[BANK0 ] unsigned int 
  6900 ;; Auto vars:     Size  Location     Type
  6901 ;;  p               1    5[BANK0 ] PTR unsigned char 
  6902 ;;		 -> can_D_str(6), can_C_str(6), can_B_str(6), can_A_str(6), 
  6903 ;; Return value:  Size  Location     Type
  6904 ;;                  1    wreg      PTR void 
  6905 ;; Registers used:
  6906 ;;		wreg, fsr2l, fsr2h, status,2, status,0
  6907 ;; Tracked objects:
  6908 ;;		On entry : 0/0
  6909 ;;		On exit  : 0/0
  6910 ;;		Unchanged: 0/0
  6911 ;; Data sizes:     COMRAM   BANK0   BANK1   BANK2   BANK3   BANK4   BANK5   BANK6   BANK7   BANK8   BANK9  BANK10  BANK1
      +1  BANK12  BANK13  BANK14  BANK15
  6912 ;;      Params:         0       5       0       0       0       0       0       0       0       0       0       0       
      +0       0       0       0       0
  6913 ;;      Locals:         0       1       0       0       0       0       0       0       0       0       0       0       
      +0       0       0       0       0
  6914 ;;      Temps:          0       0       0       0       0       0       0       0       0       0       0       0       
      +0       0       0       0       0
  6915 ;;      Totals:         0       6       0       0       0       0       0       0       0       0       0       0       
      +0       0       0       0       0
  6916 ;;Total ram usage:        6 bytes
  6917 ;; Hardware stack levels used: 1
  6918 ;; Hardware stack levels required when called: 10
  6919 ;; This function calls:
  6920 ;;		Nothing
  6921 ;; This function is called by:
  6922 ;;		_convert_uint16_to_string
  6923 ;;		_convert_uint8_to_string
  6924 ;;		_convert_uint32_to_string
  6925 ;; This function uses a non-reentrant model
  6926 ;;
  6927                           
  6928                           	psect	text41
  6929   003A20                     __ptext41:
  6930                           	callstack 0
  6931   003A20                     _memset:
  6932                           	callstack 18
  6933   003A20  C080  F085         	movff	memset@dest,memset@p
  6934   003A24  EF1A  F01D         	goto	l4415
  6935   003A28                     l4411:
  6936                           
  6937                           ; BSR set to: 0
  6938   003A28  5185               	movf	memset@p& (0+255),w,b
  6939   003A2A  6ED9               	movwf	fsr2l,c
  6940   003A2C  6ADA               	clrf	fsr2h,c
  6941   003A2E  C081  FFDF         	movff	memset@c,indf2
  6942   003A32                     
  6943                           ; BSR set to: 0
  6944   003A32  2B85               	incf	memset@p& (0+255),f,b
  6945   003A34                     l4415:
  6946   003A34  0100               	movlb	0	; () banked
  6947   003A36  0783               	decf	memset@n& (0+255),f,b
  6948   003A38  A0D8               	btfss	status,0,c
  6949   003A3A  0784               	decf	(memset@n+1)& (0+255),f,b
  6950   003A3C  2983               	incf	memset@n& (0+255),w,b
  6951   003A3E  E106               	bnz	u3721
  6952   003A40  2984               	incf	(memset@n+1)& (0+255),w,b
  6953   003A42  A4D8               	btfss	status,2,c
  6954   003A44  EF26  F01D         	goto	u3721
  6955   003A48  EF28  F01D         	goto	u3720
  6956   003A4C                     u3721:
  6957   003A4C  EF14  F01D         	goto	l4411
  6958   003A50                     u3720:
  6959   003A50                     
  6960                           ; BSR set to: 0
  6961   003A50  0012               	return		;funcret
  6962   003A52                     __end_of_memset:
  6963                           	callstack 0
  6964                           
  6965 ;; *************** function _InterruptManager *****************
  6966 ;; Defined at:
  6967 ;;		line 28 in file "MCAL_Layer/Interrupt/mcal_interrupt_manager.c"
  6968 ;; Parameters:    Size  Location     Type
  6969 ;;		None
  6970 ;; Auto vars:     Size  Location     Type
  6971 ;;		None
  6972 ;; Return value:  Size  Location     Type
  6973 ;;                  1    wreg      void 
  6974 ;; Registers used:
  6975 ;;		wreg, fsr0l, fsr0h, fsr1l, fsr1h, fsr2l, fsr2h, status,2, status,0, pcl, pclath, pclatu, tosl, tblptrl, tblptrh, tbl
      +ptru, prodl, prodh, cstack
  6976 ;; Tracked objects:
  6977 ;;		On entry : 0/0
  6978 ;;		On exit  : 0/0
  6979 ;;		Unchanged: 0/0
  6980 ;; Data sizes:     COMRAM   BANK0   BANK1   BANK2   BANK3   BANK4   BANK5   BANK6   BANK7   BANK8   BANK9  BANK10  BANK1
      +1  BANK12  BANK13  BANK14  BANK15
  6981 ;;      Params:         0       0       0       0       0       0       0       0       0       0       0       0       
      +0       0       0       0       0
  6982 ;;      Locals:         0       0       0       0       0       0       0       0       0       0       0       0       
      +0       0       0       0       0
  6983 ;;      Temps:         14       0       0       0       0       0       0       0       0       0       0       0       
      +0       0       0       0       0
  6984 ;;      Totals:        14       0       0       0       0       0       0       0       0       0       0       0       
      +0       0       0       0       0
  6985 ;;Total ram usage:       14 bytes
  6986 ;; Hardware stack levels used: 1
  6987 ;; Hardware stack levels required when called: 9
  6988 ;; This function calls:
  6989 ;;		_INT0_ISR
  6990 ;;		_INT1_ISR
  6991 ;;		_INT2_ISR
  6992 ;;		_RB4_ISR
  6993 ;;		_RB5_ISR
  6994 ;;		_RB6_ISR
  6995 ;;		_RB7_ISR
  6996 ;; This function is called by:
  6997 ;;		Interrupt level 2
  6998 ;; This function uses a non-reentrant model
  6999 ;;
  7000                           
  7001                           	psect	intcode
  7002   000008                     __pintcode:
  7003                           	callstack 0
  7004   000008                     _InterruptManager:
  7005                           	callstack 14
  7006                           
  7007                           ; BSR set to: 0
  7008                           ;incstack = 0
  7009   000008  827D               	bsf	int$flags,1,c	;set compiler interrupt flag (level 2)
  7010   00000A  ED3B  F008         	call	int_func,f	;refresh shadow registers
  7011                           
  7012                           	psect	intcode_body
  7013   001076                     __pintcode_body:
  7014                           	callstack 14
  7015   001076                     int_func:
  7016                           	callstack 14
  7017   001076  0006               	pop		; remove dummy address from shadow register refresh
  7018   001078  CFFA F037          	movff	pclath,??_InterruptManager
  7019   00107C  CFFB F038          	movff	pclatu,??_InterruptManager+1
  7020   001080  CFE9 F039          	movff	fsr0l,??_InterruptManager+2
  7021   001084  CFEA F03A          	movff	fsr0h,??_InterruptManager+3
  7022   001088  CFE1 F03B          	movff	fsr1l,??_InterruptManager+4
  7023   00108C  CFE2 F03C          	movff	fsr1h,??_InterruptManager+5
  7024   001090  CFD9 F03D          	movff	fsr2l,??_InterruptManager+6
  7025   001094  CFDA F03E          	movff	fsr2h,??_InterruptManager+7
  7026   001098  CFF3 F03F          	movff	prodl,??_InterruptManager+8
  7027   00109C  CFF4 F040          	movff	prodh,??_InterruptManager+9
  7028   0010A0  CFF6 F041          	movff	tblptrl,??_InterruptManager+10
  7029   0010A4  CFF7 F042          	movff	tblptrh,??_InterruptManager+11
  7030   0010A8  CFF8 F043          	movff	tblptru,??_InterruptManager+12
  7031   0010AC  CFF5 F044          	movff	tablat,??_InterruptManager+13
  7032   0010B0                     
  7033                           ;MCAL_Layer/Interrupt/mcal_interrupt_manager.c: 29:     if((INTCONbits.INT0IE == 1) && (
      +                          INTCONbits.INT0IF == 1)){
  7034   0010B0  A8F2               	btfss	242,4,c	;volatile
  7035   0010B2  EF5D  F008         	goto	i2u676_41
  7036   0010B6  EF5F  F008         	goto	i2u676_40
  7037   0010BA                     i2u676_41:
  7038   0010BA  EF68  F008         	goto	i2l7005
  7039   0010BE                     i2u676_40:
  7040   0010BE  A2F2               	btfss	242,1,c	;volatile
  7041   0010C0  EF64  F008         	goto	i2u677_41
  7042   0010C4  EF66  F008         	goto	i2u677_40
  7043   0010C8                     i2u677_41:
  7044   0010C8  EF68  F008         	goto	i2l7005
  7045   0010CC                     i2u677_40:
  7046   0010CC                     
  7047                           ;MCAL_Layer/Interrupt/mcal_interrupt_manager.c: 30:         INT0_ISR();
  7048   0010CC  EC9D  F01D         	call	_INT0_ISR	;wreg free
  7049   0010D0                     i2l7005:
  7050                           
  7051                           ;MCAL_Layer/Interrupt/mcal_interrupt_manager.c: 32:     if((INTCON3bits.INT1IE == 1) && 
      +                          (INTCON3bits.INT1IF == 1)){
  7052   0010D0  A6F0               	btfss	240,3,c	;volatile
  7053   0010D2  EF6D  F008         	goto	i2u678_41
  7054   0010D6  EF6F  F008         	goto	i2u678_40
  7055   0010DA                     i2u678_41:
  7056   0010DA  EF78  F008         	goto	i2l7011
  7057   0010DE                     i2u678_40:
  7058   0010DE  A0F0               	btfss	240,0,c	;volatile
  7059   0010E0  EF74  F008         	goto	i2u679_41
  7060   0010E4  EF76  F008         	goto	i2u679_40
  7061   0010E8                     i2u679_41:
  7062   0010E8  EF78  F008         	goto	i2l7011
  7063   0010EC                     i2u679_40:
  7064   0010EC                     
  7065                           ;MCAL_Layer/Interrupt/mcal_interrupt_manager.c: 33:          INT1_ISR();
  7066   0010EC  EC86  F01D         	call	_INT1_ISR	;wreg free
  7067   0010F0                     i2l7011:
  7068                           
  7069                           ;MCAL_Layer/Interrupt/mcal_interrupt_manager.c: 35:     if((INTCON3bits.INT2IE == 1) && 
      +                          (INTCON3bits.INT2IF == 1)){
  7070   0010F0  A8F0               	btfss	240,4,c	;volatile
  7071   0010F2  EF7D  F008         	goto	i2u680_41
  7072   0010F6  EF7F  F008         	goto	i2u680_40
  7073   0010FA                     i2u680_41:
  7074   0010FA  EF88  F008         	goto	i2l7017
  7075   0010FE                     i2u680_40:
  7076   0010FE  A2F0               	btfss	240,1,c	;volatile
  7077   001100  EF84  F008         	goto	i2u681_41
  7078   001104  EF86  F008         	goto	i2u681_40
  7079   001108                     i2u681_41:
  7080   001108  EF88  F008         	goto	i2l7017
  7081   00110C                     i2u681_40:
  7082   00110C                     
  7083                           ;MCAL_Layer/Interrupt/mcal_interrupt_manager.c: 36:         INT2_ISR();
  7084   00110C  EC6F  F01D         	call	_INT2_ISR	;wreg free
  7085   001110                     i2l7017:
  7086                           
  7087                           ;MCAL_Layer/Interrupt/mcal_interrupt_manager.c: 38:     if((INTCONbits.RBIE == 1) && (IN
      +                          TCONbits.RBIF == 1)
  7088   001110  A6F2               	btfss	242,3,c	;volatile
  7089   001112  EF8D  F008         	goto	i2u682_41
  7090   001116  EF8F  F008         	goto	i2u682_40
  7091   00111A                     i2u682_41:
  7092   00111A  EFAA  F008         	goto	i2l7029
  7093   00111E                     i2u682_40:
  7094   00111E  A0F2               	btfss	242,0,c	;volatile
  7095   001120  EF94  F008         	goto	i2u683_41
  7096   001124  EF96  F008         	goto	i2u683_40
  7097   001128                     i2u683_41:
  7098   001128  EFAA  F008         	goto	i2l7029
  7099   00112C                     i2u683_40:
  7100   00112C  A881               	btfss	129,4,c	;volatile
  7101   00112E  EF9B  F008         	goto	i2u684_41
  7102   001132  EF9D  F008         	goto	i2u684_40
  7103   001136                     i2u684_41:
  7104   001136  EFAA  F008         	goto	i2l7029
  7105   00113A                     i2u684_40:
  7106   00113A  0469               	decf	_RB4_flag^0,w,c	;volatile
  7107   00113C  A4D8               	btfss	status,2,c
  7108   00113E  EFA3  F008         	goto	i2u685_41
  7109   001142  EFA5  F008         	goto	i2u685_40
  7110   001146                     i2u685_41:
  7111   001146  EFAA  F008         	goto	i2l7029
  7112   00114A                     i2u685_40:
  7113   00114A                     
  7114                           ;MCAL_Layer/Interrupt/mcal_interrupt_manager.c: 39:         && (PORTBbits.RB4 == GPIO_HI
      +                          GH) && (RB4_flag == 1)){;MCAL_Layer/Interrupt/mcal_interrupt_manager.c: 40:         RB4_
      +                          flag = 0;
  7115   00114A  0E00               	movlw	0
  7116   00114C  6E69               	movwf	_RB4_flag^0,c	;volatile
  7117   00114E                     
  7118                           ;MCAL_Layer/Interrupt/mcal_interrupt_manager.c: 41:         RB4_ISR(0);
  7119   00114E  0E00               	movlw	0
  7120   001150  EC55  F018         	call	_RB4_ISR
  7121   001154                     i2l7029:
  7122                           
  7123                           ;MCAL_Layer/Interrupt/mcal_interrupt_manager.c: 43:     if((INTCONbits.RBIE == 1) && (IN
      +                          TCONbits.RBIF == 1)
  7124   001154  A6F2               	btfss	242,3,c	;volatile
  7125   001156  EFAF  F008         	goto	i2u686_41
  7126   00115A  EFB1  F008         	goto	i2u686_40
  7127   00115E                     i2u686_41:
  7128   00115E  EFCC  F008         	goto	i2l7041
  7129   001162                     i2u686_40:
  7130   001162  A0F2               	btfss	242,0,c	;volatile
  7131   001164  EFB6  F008         	goto	i2u687_41
  7132   001168  EFB8  F008         	goto	i2u687_40
  7133   00116C                     i2u687_41:
  7134   00116C  EFCC  F008         	goto	i2l7041
  7135   001170                     i2u687_40:
  7136   001170  B881               	btfsc	129,4,c	;volatile
  7137   001172  EFBD  F008         	goto	i2u688_41
  7138   001176  EFBF  F008         	goto	i2u688_40
  7139   00117A                     i2u688_41:
  7140   00117A  EFCC  F008         	goto	i2l7041
  7141   00117E                     i2u688_40:
  7142   00117E  5069               	movf	_RB4_flag^0,w,c	;volatile
  7143   001180  A4D8               	btfss	status,2,c
  7144   001182  EFC5  F008         	goto	i2u689_41
  7145   001186  EFC7  F008         	goto	i2u689_40
  7146   00118A                     i2u689_41:
  7147   00118A  EFCC  F008         	goto	i2l7041
  7148   00118E                     i2u689_40:
  7149   00118E                     
  7150                           ;MCAL_Layer/Interrupt/mcal_interrupt_manager.c: 44:         && (PORTBbits.RB4 == GPIO_LO
      +                          W) && (RB4_flag == 0)){;MCAL_Layer/Interrupt/mcal_interrupt_manager.c: 45:         RB4_f
      +                          lag = 1;
  7151   00118E  0E01               	movlw	1
  7152   001190  6E69               	movwf	_RB4_flag^0,c	;volatile
  7153   001192                     
  7154                           ;MCAL_Layer/Interrupt/mcal_interrupt_manager.c: 46:         RB4_ISR(1);
  7155   001192  0E01               	movlw	1
  7156   001194  EC55  F018         	call	_RB4_ISR
  7157   001198                     i2l7041:
  7158                           
  7159                           ;MCAL_Layer/Interrupt/mcal_interrupt_manager.c: 48:     if((INTCONbits.RBIE == 1) && (IN
      +                          TCONbits.RBIF == 1)
  7160   001198  A6F2               	btfss	242,3,c	;volatile
  7161   00119A  EFD1  F008         	goto	i2u690_41
  7162   00119E  EFD3  F008         	goto	i2u690_40
  7163   0011A2                     i2u690_41:
  7164   0011A2  EFEE  F008         	goto	i2l7053
  7165   0011A6                     i2u690_40:
  7166   0011A6  A0F2               	btfss	242,0,c	;volatile
  7167   0011A8  EFD8  F008         	goto	i2u691_41
  7168   0011AC  EFDA  F008         	goto	i2u691_40
  7169   0011B0                     i2u691_41:
  7170   0011B0  EFEE  F008         	goto	i2l7053
  7171   0011B4                     i2u691_40:
  7172   0011B4  AA81               	btfss	129,5,c	;volatile
  7173   0011B6  EFDF  F008         	goto	i2u692_41
  7174   0011BA  EFE1  F008         	goto	i2u692_40
  7175   0011BE                     i2u692_41:
  7176   0011BE  EFEE  F008         	goto	i2l7053
  7177   0011C2                     i2u692_40:
  7178   0011C2  0468               	decf	_RB5_flag^0,w,c	;volatile
  7179   0011C4  A4D8               	btfss	status,2,c
  7180   0011C6  EFE7  F008         	goto	i2u693_41
  7181   0011CA  EFE9  F008         	goto	i2u693_40
  7182   0011CE                     i2u693_41:
  7183   0011CE  EFEE  F008         	goto	i2l7053
  7184   0011D2                     i2u693_40:
  7185   0011D2                     
  7186                           ;MCAL_Layer/Interrupt/mcal_interrupt_manager.c: 49:         && (PORTBbits.RB5 == GPIO_HI
      +                          GH) && (RB5_flag == 1)){;MCAL_Layer/Interrupt/mcal_interrupt_manager.c: 50:         RB5_
      +                          flag = 0;
  7187   0011D2  0E00               	movlw	0
  7188   0011D4  6E68               	movwf	_RB5_flag^0,c	;volatile
  7189   0011D6                     
  7190                           ;MCAL_Layer/Interrupt/mcal_interrupt_manager.c: 51:         RB5_ISR(0);
  7191   0011D6  0E00               	movlw	0
  7192   0011D8  EC16  F018         	call	_RB5_ISR
  7193   0011DC                     i2l7053:
  7194                           
  7195                           ;MCAL_Layer/Interrupt/mcal_interrupt_manager.c: 53:     if((INTCONbits.RBIE == 1) && (IN
      +                          TCONbits.RBIF == 1)
  7196   0011DC  A6F2               	btfss	242,3,c	;volatile
  7197   0011DE  EFF3  F008         	goto	i2u694_41
  7198   0011E2  EFF5  F008         	goto	i2u694_40
  7199   0011E6                     i2u694_41:
  7200   0011E6  EF10  F009         	goto	i2l7065
  7201   0011EA                     i2u694_40:
  7202   0011EA  A0F2               	btfss	242,0,c	;volatile
  7203   0011EC  EFFA  F008         	goto	i2u695_41
  7204   0011F0  EFFC  F008         	goto	i2u695_40
  7205   0011F4                     i2u695_41:
  7206   0011F4  EF10  F009         	goto	i2l7065
  7207   0011F8                     i2u695_40:
  7208   0011F8  BA81               	btfsc	129,5,c	;volatile
  7209   0011FA  EF01  F009         	goto	i2u696_41
  7210   0011FE  EF03  F009         	goto	i2u696_40
  7211   001202                     i2u696_41:
  7212   001202  EF10  F009         	goto	i2l7065
  7213   001206                     i2u696_40:
  7214   001206  5068               	movf	_RB5_flag^0,w,c	;volatile
  7215   001208  A4D8               	btfss	status,2,c
  7216   00120A  EF09  F009         	goto	i2u697_41
  7217   00120E  EF0B  F009         	goto	i2u697_40
  7218   001212                     i2u697_41:
  7219   001212  EF10  F009         	goto	i2l7065
  7220   001216                     i2u697_40:
  7221   001216                     
  7222                           ;MCAL_Layer/Interrupt/mcal_interrupt_manager.c: 54:         && (PORTBbits.RB5 == GPIO_LO
      +                          W) && (RB5_flag == 0)){;MCAL_Layer/Interrupt/mcal_interrupt_manager.c: 55:         RB5_f
      +                          lag = 1;
  7223   001216  0E01               	movlw	1
  7224   001218  6E68               	movwf	_RB5_flag^0,c	;volatile
  7225   00121A                     
  7226                           ;MCAL_Layer/Interrupt/mcal_interrupt_manager.c: 56:         RB5_ISR(1);
  7227   00121A  0E01               	movlw	1
  7228   00121C  EC16  F018         	call	_RB5_ISR
  7229   001220                     i2l7065:
  7230                           
  7231                           ;MCAL_Layer/Interrupt/mcal_interrupt_manager.c: 58:     if((INTCONbits.RBIE == 1) && (IN
      +                          TCONbits.RBIF == 1)
  7232   001220  A6F2               	btfss	242,3,c	;volatile
  7233   001222  EF15  F009         	goto	i2u698_41
  7234   001226  EF17  F009         	goto	i2u698_40
  7235   00122A                     i2u698_41:
  7236   00122A  EF32  F009         	goto	i2l7077
  7237   00122E                     i2u698_40:
  7238   00122E  A0F2               	btfss	242,0,c	;volatile
  7239   001230  EF1C  F009         	goto	i2u699_41
  7240   001234  EF1E  F009         	goto	i2u699_40
  7241   001238                     i2u699_41:
  7242   001238  EF32  F009         	goto	i2l7077
  7243   00123C                     i2u699_40:
  7244   00123C  AC81               	btfss	129,6,c	;volatile
  7245   00123E  EF23  F009         	goto	i2u700_41
  7246   001242  EF25  F009         	goto	i2u700_40
  7247   001246                     i2u700_41:
  7248   001246  EF32  F009         	goto	i2l7077
  7249   00124A                     i2u700_40:
  7250   00124A  0467               	decf	_RB6_flag^0,w,c	;volatile
  7251   00124C  A4D8               	btfss	status,2,c
  7252   00124E  EF2B  F009         	goto	i2u701_41
  7253   001252  EF2D  F009         	goto	i2u701_40
  7254   001256                     i2u701_41:
  7255   001256  EF32  F009         	goto	i2l7077
  7256   00125A                     i2u701_40:
  7257   00125A                     
  7258                           ;MCAL_Layer/Interrupt/mcal_interrupt_manager.c: 59:         && (PORTBbits.RB6 == GPIO_HI
      +                          GH) && (RB6_flag == 1)){;MCAL_Layer/Interrupt/mcal_interrupt_manager.c: 60:         RB6_
      +                          flag = 0;
  7259   00125A  0E00               	movlw	0
  7260   00125C  6E67               	movwf	_RB6_flag^0,c	;volatile
  7261   00125E                     
  7262                           ;MCAL_Layer/Interrupt/mcal_interrupt_manager.c: 61:         RB6_ISR(0);
  7263   00125E  0E00               	movlw	0
  7264   001260  ECD7  F017         	call	_RB6_ISR
  7265   001264                     i2l7077:
  7266                           
  7267                           ;MCAL_Layer/Interrupt/mcal_interrupt_manager.c: 63:     if((INTCONbits.RBIE == 1) && (IN
      +                          TCONbits.RBIF == 1)
  7268   001264  A6F2               	btfss	242,3,c	;volatile
  7269   001266  EF37  F009         	goto	i2u702_41
  7270   00126A  EF39  F009         	goto	i2u702_40
  7271   00126E                     i2u702_41:
  7272   00126E  EF54  F009         	goto	i2l7089
  7273   001272                     i2u702_40:
  7274   001272  A0F2               	btfss	242,0,c	;volatile
  7275   001274  EF3E  F009         	goto	i2u703_41
  7276   001278  EF40  F009         	goto	i2u703_40
  7277   00127C                     i2u703_41:
  7278   00127C  EF54  F009         	goto	i2l7089
  7279   001280                     i2u703_40:
  7280   001280  BC81               	btfsc	129,6,c	;volatile
  7281   001282  EF45  F009         	goto	i2u704_41
  7282   001286  EF47  F009         	goto	i2u704_40
  7283   00128A                     i2u704_41:
  7284   00128A  EF54  F009         	goto	i2l7089
  7285   00128E                     i2u704_40:
  7286   00128E  5067               	movf	_RB6_flag^0,w,c	;volatile
  7287   001290  A4D8               	btfss	status,2,c
  7288   001292  EF4D  F009         	goto	i2u705_41
  7289   001296  EF4F  F009         	goto	i2u705_40
  7290   00129A                     i2u705_41:
  7291   00129A  EF54  F009         	goto	i2l7089
  7292   00129E                     i2u705_40:
  7293   00129E                     
  7294                           ;MCAL_Layer/Interrupt/mcal_interrupt_manager.c: 64:         && (PORTBbits.RB6 == GPIO_LO
      +                          W) && (RB6_flag == 0)){;MCAL_Layer/Interrupt/mcal_interrupt_manager.c: 65:         RB6_f
      +                          lag = 1;
  7295   00129E  0E01               	movlw	1
  7296   0012A0  6E67               	movwf	_RB6_flag^0,c	;volatile
  7297   0012A2                     
  7298                           ;MCAL_Layer/Interrupt/mcal_interrupt_manager.c: 66:         RB6_ISR(1);
  7299   0012A2  0E01               	movlw	1
  7300   0012A4  ECD7  F017         	call	_RB6_ISR
  7301   0012A8                     i2l7089:
  7302                           
  7303                           ;MCAL_Layer/Interrupt/mcal_interrupt_manager.c: 68:     if((INTCONbits.RBIE == 1) && (IN
      +                          TCONbits.RBIF == 1)
  7304   0012A8  A6F2               	btfss	242,3,c	;volatile
  7305   0012AA  EF59  F009         	goto	i2u706_41
  7306   0012AE  EF5B  F009         	goto	i2u706_40
  7307   0012B2                     i2u706_41:
  7308   0012B2  EF76  F009         	goto	i2l7101
  7309   0012B6                     i2u706_40:
  7310   0012B6  A0F2               	btfss	242,0,c	;volatile
  7311   0012B8  EF60  F009         	goto	i2u707_41
  7312   0012BC  EF62  F009         	goto	i2u707_40
  7313   0012C0                     i2u707_41:
  7314   0012C0  EF76  F009         	goto	i2l7101
  7315   0012C4                     i2u707_40:
  7316   0012C4  AE81               	btfss	129,7,c	;volatile
  7317   0012C6  EF67  F009         	goto	i2u708_41
  7318   0012CA  EF69  F009         	goto	i2u708_40
  7319   0012CE                     i2u708_41:
  7320   0012CE  EF76  F009         	goto	i2l7101
  7321   0012D2                     i2u708_40:
  7322   0012D2  0466               	decf	_RB7_flag^0,w,c	;volatile
  7323   0012D4  A4D8               	btfss	status,2,c
  7324   0012D6  EF6F  F009         	goto	i2u709_41
  7325   0012DA  EF71  F009         	goto	i2u709_40
  7326   0012DE                     i2u709_41:
  7327   0012DE  EF76  F009         	goto	i2l7101
  7328   0012E2                     i2u709_40:
  7329   0012E2                     
  7330                           ;MCAL_Layer/Interrupt/mcal_interrupt_manager.c: 69:         && (PORTBbits.RB7 == GPIO_HI
      +                          GH) && (RB7_flag == 1)){;MCAL_Layer/Interrupt/mcal_interrupt_manager.c: 70:         RB7_
      +                          flag = 0;
  7331   0012E2  0E00               	movlw	0
  7332   0012E4  6E66               	movwf	_RB7_flag^0,c	;volatile
  7333   0012E6                     
  7334                           ;MCAL_Layer/Interrupt/mcal_interrupt_manager.c: 71:         RB7_ISR(0);
  7335   0012E6  0E00               	movlw	0
  7336   0012E8  EC98  F017         	call	_RB7_ISR
  7337   0012EC                     i2l7101:
  7338                           
  7339                           ;MCAL_Layer/Interrupt/mcal_interrupt_manager.c: 73:     if((INTCONbits.RBIE == 1) && (IN
      +                          TCONbits.RBIF == 1)
  7340   0012EC  A6F2               	btfss	242,3,c	;volatile
  7341   0012EE  EF7B  F009         	goto	i2u710_41
  7342   0012F2  EF7D  F009         	goto	i2u710_40
  7343   0012F6                     i2u710_41:
  7344   0012F6  EF98  F009         	goto	i2l627
  7345   0012FA                     i2u710_40:
  7346   0012FA  A0F2               	btfss	242,0,c	;volatile
  7347   0012FC  EF82  F009         	goto	i2u711_41
  7348   001300  EF84  F009         	goto	i2u711_40
  7349   001304                     i2u711_41:
  7350   001304  EF98  F009         	goto	i2l627
  7351   001308                     i2u711_40:
  7352   001308  BE81               	btfsc	129,7,c	;volatile
  7353   00130A  EF89  F009         	goto	i2u712_41
  7354   00130E  EF8B  F009         	goto	i2u712_40
  7355   001312                     i2u712_41:
  7356   001312  EF98  F009         	goto	i2l627
  7357   001316                     i2u712_40:
  7358   001316  5066               	movf	_RB7_flag^0,w,c	;volatile
  7359   001318  A4D8               	btfss	status,2,c
  7360   00131A  EF91  F009         	goto	i2u713_41
  7361   00131E  EF93  F009         	goto	i2u713_40
  7362   001322                     i2u713_41:
  7363   001322  EF98  F009         	goto	i2l627
  7364   001326                     i2u713_40:
  7365   001326                     
  7366                           ;MCAL_Layer/Interrupt/mcal_interrupt_manager.c: 74:         && (PORTBbits.RB7 == GPIO_LO
      +                          W) && (RB7_flag == 0)){;MCAL_Layer/Interrupt/mcal_interrupt_manager.c: 75:         RB7_f
      +                          lag = 1;
  7367   001326  0E01               	movlw	1
  7368   001328  6E66               	movwf	_RB7_flag^0,c	;volatile
  7369   00132A                     
  7370                           ;MCAL_Layer/Interrupt/mcal_interrupt_manager.c: 76:         RB7_ISR(1);
  7371   00132A  0E01               	movlw	1
  7372   00132C  EC98  F017         	call	_RB7_ISR
  7373   001330                     i2l627:
  7374   001330  C044  FFF5         	movff	??_InterruptManager+13,tablat
  7375   001334  C043  FFF8         	movff	??_InterruptManager+12,tblptru
  7376   001338  C042  FFF7         	movff	??_InterruptManager+11,tblptrh
  7377   00133C  C041  FFF6         	movff	??_InterruptManager+10,tblptrl
  7378   001340  C040  FFF4         	movff	??_InterruptManager+9,prodh
  7379   001344  C03F  FFF3         	movff	??_InterruptManager+8,prodl
  7380   001348  C03E  FFDA         	movff	??_InterruptManager+7,fsr2h
  7381   00134C  C03D  FFD9         	movff	??_InterruptManager+6,fsr2l
  7382   001350  C03C  FFE2         	movff	??_InterruptManager+5,fsr1h
  7383   001354  C03B  FFE1         	movff	??_InterruptManager+4,fsr1l
  7384   001358  C03A  FFEA         	movff	??_InterruptManager+3,fsr0h
  7385   00135C  C039  FFE9         	movff	??_InterruptManager+2,fsr0l
  7386   001360  C038  FFFB         	movff	??_InterruptManager+1,pclatu
  7387   001364  C037  FFFA         	movff	??_InterruptManager,pclath
  7388   001368  927D               	bcf	int$flags,1,c	;clear compiler interrupt flag (level 2)
  7389   00136A  0011               	retfie		f
  7390   00136C                     __end_of_InterruptManager:
  7391                           	callstack 0
  7392                           
  7393 ;; *************** function _RB7_ISR *****************
  7394 ;; Defined at:
  7395 ;;		line 107 in file "MCAL_Layer/Interrupt/mcal_external_interrupt.c"
  7396 ;; Parameters:    Size  Location     Type
  7397 ;;  RB7_source      1    wreg     unsigned char 
  7398 ;; Auto vars:     Size  Location     Type
  7399 ;;  RB7_source      1   53[COMRAM] unsigned char 
  7400 ;; Return value:  Size  Location     Type
  7401 ;;                  1    wreg      void 
  7402 ;; Registers used:
  7403 ;;		wreg, fsr0l, fsr0h, fsr1l, fsr1h, fsr2l, fsr2h, status,2, status,0, pcl, pclath, pclatu, tosl, tblptrl, tblptrh, tbl
      +ptru, prodl, prodh, cstack
  7404 ;; Tracked objects:
  7405 ;;		On entry : 0/0
  7406 ;;		On exit  : 0/0
  7407 ;;		Unchanged: 0/0
  7408 ;; Data sizes:     COMRAM   BANK0   BANK1   BANK2   BANK3   BANK4   BANK5   BANK6   BANK7   BANK8   BANK9  BANK10  BANK1
      +1  BANK12  BANK13  BANK14  BANK15
  7409 ;;      Params:         0       0       0       0       0       0       0       0       0       0       0       0       
      +0       0       0       0       0
  7410 ;;      Locals:         1       0       0       0       0       0       0       0       0       0       0       0       
      +0       0       0       0       0
  7411 ;;      Temps:          0       0       0       0       0       0       0       0       0       0       0       0       
      +0       0       0       0       0
  7412 ;;      Totals:         1       0       0       0       0       0       0       0       0       0       0       0       
      +0       0       0       0       0
  7413 ;;Total ram usage:        1 bytes
  7414 ;; Hardware stack levels used: 1
  7415 ;; Hardware stack levels required when called: 8
  7416 ;; This function calls:
  7417 ;;		NULL
  7418 ;;		_RB4_HIGH_APP_ISR
  7419 ;;		_RB5_LOW_APP_ISR
  7420 ;;		_RB6_HIGH_APP_ISR
  7421 ;; This function is called by:
  7422 ;;		_InterruptManager
  7423 ;; This function uses a non-reentrant model
  7424 ;;
  7425                           
  7426                           	psect	text43
  7427   002F30                     __ptext43:
  7428                           	callstack 0
  7429   002F30                     _RB7_ISR:
  7430                           	callstack 14
  7431                           
  7432                           ;incstack = 0
  7433                           ;RB7_ISR@RB7_source stored from wreg
  7434   002F30  6E36               	movwf	RB7_ISR@RB7_source^0,c
  7435   002F32                     
  7436                           ;MCAL_Layer/Interrupt/mcal_external_interrupt.c: 108:     (INTCONbits.RBIF = 0);
  7437   002F32  90F2               	bcf	242,0,c	;volatile
  7438   002F34                     
  7439                           ;MCAL_Layer/Interrupt/mcal_external_interrupt.c: 109:     if(RB7_source == 0){
  7440   002F34  5036               	movf	RB7_ISR@RB7_source^0,w,c
  7441   002F36  A4D8               	btfss	status,2,c
  7442   002F38  EFA0  F017         	goto	i2u644_41
  7443   002F3C  EFA2  F017         	goto	i2u644_40
  7444   002F40                     i2u644_41:
  7445   002F40  EFB9  F017         	goto	i2l6697
  7446   002F44                     i2u644_40:
  7447   002F44                     
  7448                           ;MCAL_Layer/Interrupt/mcal_external_interrupt.c: 110:         if(RB7_InterruptHandler_HI
      +                          GH){
  7449   002F44  5051               	movf	_RB7_InterruptHandler_HIGH^0,w,c
  7450   002F46  1052               	iorwf	(_RB7_InterruptHandler_HIGH+1)^0,w,c
  7451   002F48  B4D8               	btfsc	status,2,c
  7452   002F4A  EFA9  F017         	goto	i2u645_41
  7453   002F4E  EFAB  F017         	goto	i2u645_40
  7454   002F52                     i2u645_41:
  7455   002F52  EFD6  F017         	goto	i2l472
  7456   002F56                     i2u645_40:
  7457   002F56                     
  7458                           ;MCAL_Layer/Interrupt/mcal_external_interrupt.c: 111:         RB7_InterruptHandler_HIGH(
      +                          );
  7459   002F56  D802               	call	i2u646_48
  7460   002F58  EFB7  F017         	goto	i2u646_49
  7461   002F5C                     i2u646_48:
  7462   002F5C  0005               	push	
  7463   002F5E  6EFA               	movwf	pclath,c
  7464   002F60  5051               	movf	_RB7_InterruptHandler_HIGH^0,w,c
  7465   002F62  6EFD               	movwf	tosl,c
  7466   002F64  5052               	movf	(_RB7_InterruptHandler_HIGH+1)^0,w,c
  7467   002F66  6EFE               	movwf	tosh,c
  7468   002F68  6AFF               	clrf	tosu,c
  7469   002F6A  50FA               	movf	pclath,w,c
  7470   002F6C  0012               	return		;indir
  7471   002F6E                     i2u646_49:
  7472   002F6E  EFD6  F017         	goto	i2l472
  7473   002F72                     i2l6697:
  7474   002F72  0436               	decf	RB7_ISR@RB7_source^0,w,c
  7475   002F74  A4D8               	btfss	status,2,c
  7476   002F76  EFBF  F017         	goto	i2u647_41
  7477   002F7A  EFC1  F017         	goto	i2u647_40
  7478   002F7E                     i2u647_41:
  7479   002F7E  EFD6  F017         	goto	i2l472
  7480   002F82                     i2u647_40:
  7481   002F82                     
  7482                           ;MCAL_Layer/Interrupt/mcal_external_interrupt.c: 115:        if(RB7_InterruptHandler_LOW
      +                          ){
  7483   002F82  504F               	movf	_RB7_InterruptHandler_LOW^0,w,c
  7484   002F84  1050               	iorwf	(_RB7_InterruptHandler_LOW+1)^0,w,c
  7485   002F86  B4D8               	btfsc	status,2,c
  7486   002F88  EFC8  F017         	goto	i2u648_41
  7487   002F8C  EFCA  F017         	goto	i2u648_40
  7488   002F90                     i2u648_41:
  7489   002F90  EFD6  F017         	goto	i2l472
  7490   002F94                     i2u648_40:
  7491   002F94                     
  7492                           ;MCAL_Layer/Interrupt/mcal_external_interrupt.c: 116:         RB7_InterruptHandler_LOW()
      +                          ;
  7493   002F94  D802               	call	i2u649_48
  7494   002F96  EFD6  F017         	goto	i2u649_49
  7495   002F9A                     i2u649_48:
  7496   002F9A  0005               	push	
  7497   002F9C  6EFA               	movwf	pclath,c
  7498   002F9E  504F               	movf	_RB7_InterruptHandler_LOW^0,w,c
  7499   002FA0  6EFD               	movwf	tosl,c
  7500   002FA2  5050               	movf	(_RB7_InterruptHandler_LOW+1)^0,w,c
  7501   002FA4  6EFE               	movwf	tosh,c
  7502   002FA6  6AFF               	clrf	tosu,c
  7503   002FA8  50FA               	movf	pclath,w,c
  7504   002FAA  0012               	return		;indir
  7505   002FAC                     i2u649_49:
  7506   002FAC                     i2l472:
  7507   002FAC  0012               	return		;funcret
  7508   002FAE                     __end_of_RB7_ISR:
  7509                           	callstack 0
  7510                           
  7511 ;; *************** function _RB6_ISR *****************
  7512 ;; Defined at:
  7513 ;;		line 93 in file "MCAL_Layer/Interrupt/mcal_external_interrupt.c"
  7514 ;; Parameters:    Size  Location     Type
  7515 ;;  RB6_source      1    wreg     unsigned char 
  7516 ;; Auto vars:     Size  Location     Type
  7517 ;;  RB6_source      1   53[COMRAM] unsigned char 
  7518 ;; Return value:  Size  Location     Type
  7519 ;;                  1    wreg      void 
  7520 ;; Registers used:
  7521 ;;		wreg, fsr0l, fsr0h, fsr1l, fsr1h, fsr2l, fsr2h, status,2, status,0, pcl, pclath, pclatu, tosl, tblptrl, tblptrh, tbl
      +ptru, prodl, prodh, cstack
  7522 ;; Tracked objects:
  7523 ;;		On entry : 0/0
  7524 ;;		On exit  : 0/0
  7525 ;;		Unchanged: 0/0
  7526 ;; Data sizes:     COMRAM   BANK0   BANK1   BANK2   BANK3   BANK4   BANK5   BANK6   BANK7   BANK8   BANK9  BANK10  BANK1
      +1  BANK12  BANK13  BANK14  BANK15
  7527 ;;      Params:         0       0       0       0       0       0       0       0       0       0       0       0       
      +0       0       0       0       0
  7528 ;;      Locals:         1       0       0       0       0       0       0       0       0       0       0       0       
      +0       0       0       0       0
  7529 ;;      Temps:          0       0       0       0       0       0       0       0       0       0       0       0       
      +0       0       0       0       0
  7530 ;;      Totals:         1       0       0       0       0       0       0       0       0       0       0       0       
      +0       0       0       0       0
  7531 ;;Total ram usage:        1 bytes
  7532 ;; Hardware stack levels used: 1
  7533 ;; Hardware stack levels required when called: 8
  7534 ;; This function calls:
  7535 ;;		NULL
  7536 ;;		_RB4_HIGH_APP_ISR
  7537 ;;		_RB5_LOW_APP_ISR
  7538 ;;		_RB6_HIGH_APP_ISR
  7539 ;; This function is called by:
  7540 ;;		_InterruptManager
  7541 ;; This function uses a non-reentrant model
  7542 ;;
  7543                           
  7544                           	psect	text44
  7545   002FAE                     __ptext44:
  7546                           	callstack 0
  7547   002FAE                     _RB6_ISR:
  7548                           	callstack 14
  7549                           
  7550                           ;incstack = 0
  7551                           ;RB6_ISR@RB6_source stored from wreg
  7552   002FAE  6E36               	movwf	RB6_ISR@RB6_source^0,c
  7553   002FB0                     
  7554                           ;MCAL_Layer/Interrupt/mcal_external_interrupt.c: 94:     (INTCONbits.RBIF = 0);
  7555   002FB0  90F2               	bcf	242,0,c	;volatile
  7556   002FB2                     
  7557                           ;MCAL_Layer/Interrupt/mcal_external_interrupt.c: 95:     if(RB6_source == 0){
  7558   002FB2  5036               	movf	RB6_ISR@RB6_source^0,w,c
  7559   002FB4  A4D8               	btfss	status,2,c
  7560   002FB6  EFDF  F017         	goto	i2u638_41
  7561   002FBA  EFE1  F017         	goto	i2u638_40
  7562   002FBE                     i2u638_41:
  7563   002FBE  EFF8  F017         	goto	i2l6683
  7564   002FC2                     i2u638_40:
  7565   002FC2                     
  7566                           ;MCAL_Layer/Interrupt/mcal_external_interrupt.c: 96:         if(RB6_InterruptHandler_HIG
      +                          H){
  7567   002FC2  5055               	movf	_RB6_InterruptHandler_HIGH^0,w,c
  7568   002FC4  1056               	iorwf	(_RB6_InterruptHandler_HIGH+1)^0,w,c
  7569   002FC6  B4D8               	btfsc	status,2,c
  7570   002FC8  EFE8  F017         	goto	i2u639_41
  7571   002FCC  EFEA  F017         	goto	i2u639_40
  7572   002FD0                     i2u639_41:
  7573   002FD0  EF15  F018         	goto	i2l464
  7574   002FD4                     i2u639_40:
  7575   002FD4                     
  7576                           ;MCAL_Layer/Interrupt/mcal_external_interrupt.c: 97:         RB6_InterruptHandler_HIGH()
      +                          ;
  7577   002FD4  D802               	call	i2u640_48
  7578   002FD6  EFF6  F017         	goto	i2u640_49
  7579   002FDA                     i2u640_48:
  7580   002FDA  0005               	push	
  7581   002FDC  6EFA               	movwf	pclath,c
  7582   002FDE  5055               	movf	_RB6_InterruptHandler_HIGH^0,w,c
  7583   002FE0  6EFD               	movwf	tosl,c
  7584   002FE2  5056               	movf	(_RB6_InterruptHandler_HIGH+1)^0,w,c
  7585   002FE4  6EFE               	movwf	tosh,c
  7586   002FE6  6AFF               	clrf	tosu,c
  7587   002FE8  50FA               	movf	pclath,w,c
  7588   002FEA  0012               	return		;indir
  7589   002FEC                     i2u640_49:
  7590   002FEC  EF15  F018         	goto	i2l464
  7591   002FF0                     i2l6683:
  7592   002FF0  0436               	decf	RB6_ISR@RB6_source^0,w,c
  7593   002FF2  A4D8               	btfss	status,2,c
  7594   002FF4  EFFE  F017         	goto	i2u641_41
  7595   002FF8  EF00  F018         	goto	i2u641_40
  7596   002FFC                     i2u641_41:
  7597   002FFC  EF15  F018         	goto	i2l464
  7598   003000                     i2u641_40:
  7599   003000                     
  7600                           ;MCAL_Layer/Interrupt/mcal_external_interrupt.c: 101:        if(RB6_InterruptHandler_LOW
      +                          ){
  7601   003000  5053               	movf	_RB6_InterruptHandler_LOW^0,w,c
  7602   003002  1054               	iorwf	(_RB6_InterruptHandler_LOW+1)^0,w,c
  7603   003004  B4D8               	btfsc	status,2,c
  7604   003006  EF07  F018         	goto	i2u642_41
  7605   00300A  EF09  F018         	goto	i2u642_40
  7606   00300E                     i2u642_41:
  7607   00300E  EF15  F018         	goto	i2l464
  7608   003012                     i2u642_40:
  7609   003012                     
  7610                           ;MCAL_Layer/Interrupt/mcal_external_interrupt.c: 102:         RB6_InterruptHandler_LOW()
      +                          ;
  7611   003012  D802               	call	i2u643_48
  7612   003014  EF15  F018         	goto	i2u643_49
  7613   003018                     i2u643_48:
  7614   003018  0005               	push	
  7615   00301A  6EFA               	movwf	pclath,c
  7616   00301C  5053               	movf	_RB6_InterruptHandler_LOW^0,w,c
  7617   00301E  6EFD               	movwf	tosl,c
  7618   003020  5054               	movf	(_RB6_InterruptHandler_LOW+1)^0,w,c
  7619   003022  6EFE               	movwf	tosh,c
  7620   003024  6AFF               	clrf	tosu,c
  7621   003026  50FA               	movf	pclath,w,c
  7622   003028  0012               	return		;indir
  7623   00302A                     i2u643_49:
  7624   00302A                     i2l464:
  7625   00302A  0012               	return		;funcret
  7626   00302C                     __end_of_RB6_ISR:
  7627                           	callstack 0
  7628                           
  7629 ;; *************** function _RB5_ISR *****************
  7630 ;; Defined at:
  7631 ;;		line 79 in file "MCAL_Layer/Interrupt/mcal_external_interrupt.c"
  7632 ;; Parameters:    Size  Location     Type
  7633 ;;  RB5_source      1    wreg     unsigned char 
  7634 ;; Auto vars:     Size  Location     Type
  7635 ;;  RB5_source      1   53[COMRAM] unsigned char 
  7636 ;; Return value:  Size  Location     Type
  7637 ;;                  1    wreg      void 
  7638 ;; Registers used:
  7639 ;;		wreg, fsr0l, fsr0h, fsr1l, fsr1h, fsr2l, fsr2h, status,2, status,0, pcl, pclath, pclatu, tosl, tblptrl, tblptrh, tbl
      +ptru, prodl, prodh, cstack
  7640 ;; Tracked objects:
  7641 ;;		On entry : 0/0
  7642 ;;		On exit  : 0/0
  7643 ;;		Unchanged: 0/0
  7644 ;; Data sizes:     COMRAM   BANK0   BANK1   BANK2   BANK3   BANK4   BANK5   BANK6   BANK7   BANK8   BANK9  BANK10  BANK1
      +1  BANK12  BANK13  BANK14  BANK15
  7645 ;;      Params:         0       0       0       0       0       0       0       0       0       0       0       0       
      +0       0       0       0       0
  7646 ;;      Locals:         1       0       0       0       0       0       0       0       0       0       0       0       
      +0       0       0       0       0
  7647 ;;      Temps:          0       0       0       0       0       0       0       0       0       0       0       0       
      +0       0       0       0       0
  7648 ;;      Totals:         1       0       0       0       0       0       0       0       0       0       0       0       
      +0       0       0       0       0
  7649 ;;Total ram usage:        1 bytes
  7650 ;; Hardware stack levels used: 1
  7651 ;; Hardware stack levels required when called: 8
  7652 ;; This function calls:
  7653 ;;		NULL
  7654 ;;		_RB4_HIGH_APP_ISR
  7655 ;;		_RB5_LOW_APP_ISR
  7656 ;;		_RB6_HIGH_APP_ISR
  7657 ;; This function is called by:
  7658 ;;		_InterruptManager
  7659 ;; This function uses a non-reentrant model
  7660 ;;
  7661                           
  7662                           	psect	text45
  7663   00302C                     __ptext45:
  7664                           	callstack 0
  7665   00302C                     _RB5_ISR:
  7666                           	callstack 14
  7667                           
  7668                           ;incstack = 0
  7669                           ;RB5_ISR@RB5_source stored from wreg
  7670   00302C  6E36               	movwf	RB5_ISR@RB5_source^0,c
  7671   00302E                     
  7672                           ;MCAL_Layer/Interrupt/mcal_external_interrupt.c: 80:     (INTCONbits.RBIF = 0);
  7673   00302E  90F2               	bcf	242,0,c	;volatile
  7674   003030                     
  7675                           ;MCAL_Layer/Interrupt/mcal_external_interrupt.c: 81:     if(RB5_source == 0){
  7676   003030  5036               	movf	RB5_ISR@RB5_source^0,w,c
  7677   003032  A4D8               	btfss	status,2,c
  7678   003034  EF1E  F018         	goto	i2u632_41
  7679   003038  EF20  F018         	goto	i2u632_40
  7680   00303C                     i2u632_41:
  7681   00303C  EF37  F018         	goto	i2l6669
  7682   003040                     i2u632_40:
  7683   003040                     
  7684                           ;MCAL_Layer/Interrupt/mcal_external_interrupt.c: 82:         if(RB5_InterruptHandler_HIG
      +                          H){
  7685   003040  5059               	movf	_RB5_InterruptHandler_HIGH^0,w,c
  7686   003042  105A               	iorwf	(_RB5_InterruptHandler_HIGH+1)^0,w,c
  7687   003044  B4D8               	btfsc	status,2,c
  7688   003046  EF27  F018         	goto	i2u633_41
  7689   00304A  EF29  F018         	goto	i2u633_40
  7690   00304E                     i2u633_41:
  7691   00304E  EF54  F018         	goto	i2l456
  7692   003052                     i2u633_40:
  7693   003052                     
  7694                           ;MCAL_Layer/Interrupt/mcal_external_interrupt.c: 83:         RB5_InterruptHandler_HIGH()
      +                          ;
  7695   003052  D802               	call	i2u634_48
  7696   003054  EF35  F018         	goto	i2u634_49
  7697   003058                     i2u634_48:
  7698   003058  0005               	push	
  7699   00305A  6EFA               	movwf	pclath,c
  7700   00305C  5059               	movf	_RB5_InterruptHandler_HIGH^0,w,c
  7701   00305E  6EFD               	movwf	tosl,c
  7702   003060  505A               	movf	(_RB5_InterruptHandler_HIGH+1)^0,w,c
  7703   003062  6EFE               	movwf	tosh,c
  7704   003064  6AFF               	clrf	tosu,c
  7705   003066  50FA               	movf	pclath,w,c
  7706   003068  0012               	return		;indir
  7707   00306A                     i2u634_49:
  7708   00306A  EF54  F018         	goto	i2l456
  7709   00306E                     i2l6669:
  7710   00306E  0436               	decf	RB5_ISR@RB5_source^0,w,c
  7711   003070  A4D8               	btfss	status,2,c
  7712   003072  EF3D  F018         	goto	i2u635_41
  7713   003076  EF3F  F018         	goto	i2u635_40
  7714   00307A                     i2u635_41:
  7715   00307A  EF54  F018         	goto	i2l456
  7716   00307E                     i2u635_40:
  7717   00307E                     
  7718                           ;MCAL_Layer/Interrupt/mcal_external_interrupt.c: 87:        if(RB5_InterruptHandler_LOW)
      +                          {
  7719   00307E  5057               	movf	_RB5_InterruptHandler_LOW^0,w,c
  7720   003080  1058               	iorwf	(_RB5_InterruptHandler_LOW+1)^0,w,c
  7721   003082  B4D8               	btfsc	status,2,c
  7722   003084  EF46  F018         	goto	i2u636_41
  7723   003088  EF48  F018         	goto	i2u636_40
  7724   00308C                     i2u636_41:
  7725   00308C  EF54  F018         	goto	i2l456
  7726   003090                     i2u636_40:
  7727   003090                     
  7728                           ;MCAL_Layer/Interrupt/mcal_external_interrupt.c: 88:         RB5_InterruptHandler_LOW();
  7729   003090  D802               	call	i2u637_48
  7730   003092  EF54  F018         	goto	i2u637_49
  7731   003096                     i2u637_48:
  7732   003096  0005               	push	
  7733   003098  6EFA               	movwf	pclath,c
  7734   00309A  5057               	movf	_RB5_InterruptHandler_LOW^0,w,c
  7735   00309C  6EFD               	movwf	tosl,c
  7736   00309E  5058               	movf	(_RB5_InterruptHandler_LOW+1)^0,w,c
  7737   0030A0  6EFE               	movwf	tosh,c
  7738   0030A2  6AFF               	clrf	tosu,c
  7739   0030A4  50FA               	movf	pclath,w,c
  7740   0030A6  0012               	return		;indir
  7741   0030A8                     i2u637_49:
  7742   0030A8                     i2l456:
  7743   0030A8  0012               	return		;funcret
  7744   0030AA                     __end_of_RB5_ISR:
  7745                           	callstack 0
  7746                           
  7747 ;; *************** function _RB4_ISR *****************
  7748 ;; Defined at:
  7749 ;;		line 65 in file "MCAL_Layer/Interrupt/mcal_external_interrupt.c"
  7750 ;; Parameters:    Size  Location     Type
  7751 ;;  RB4_source      1    wreg     unsigned char 
  7752 ;; Auto vars:     Size  Location     Type
  7753 ;;  RB4_source      1   53[COMRAM] unsigned char 
  7754 ;; Return value:  Size  Location     Type
  7755 ;;                  1    wreg      void 
  7756 ;; Registers used:
  7757 ;;		wreg, fsr0l, fsr0h, fsr1l, fsr1h, fsr2l, fsr2h, status,2, status,0, pcl, pclath, pclatu, tosl, tblptrl, tblptrh, tbl
      +ptru, prodl, prodh, cstack
  7758 ;; Tracked objects:
  7759 ;;		On entry : 0/0
  7760 ;;		On exit  : 0/0
  7761 ;;		Unchanged: 0/0
  7762 ;; Data sizes:     COMRAM   BANK0   BANK1   BANK2   BANK3   BANK4   BANK5   BANK6   BANK7   BANK8   BANK9  BANK10  BANK1
      +1  BANK12  BANK13  BANK14  BANK15
  7763 ;;      Params:         0       0       0       0       0       0       0       0       0       0       0       0       
      +0       0       0       0       0
  7764 ;;      Locals:         1       0       0       0       0       0       0       0       0       0       0       0       
      +0       0       0       0       0
  7765 ;;      Temps:          0       0       0       0       0       0       0       0       0       0       0       0       
      +0       0       0       0       0
  7766 ;;      Totals:         1       0       0       0       0       0       0       0       0       0       0       0       
      +0       0       0       0       0
  7767 ;;Total ram usage:        1 bytes
  7768 ;; Hardware stack levels used: 1
  7769 ;; Hardware stack levels required when called: 8
  7770 ;; This function calls:
  7771 ;;		NULL
  7772 ;;		_RB4_HIGH_APP_ISR
  7773 ;;		_RB5_LOW_APP_ISR
  7774 ;;		_RB6_HIGH_APP_ISR
  7775 ;; This function is called by:
  7776 ;;		_InterruptManager
  7777 ;; This function uses a non-reentrant model
  7778 ;;
  7779                           
  7780                           	psect	text46
  7781   0030AA                     __ptext46:
  7782                           	callstack 0
  7783   0030AA                     _RB4_ISR:
  7784                           	callstack 14
  7785                           
  7786                           ;incstack = 0
  7787                           ;RB4_ISR@RB4_source stored from wreg
  7788   0030AA  6E36               	movwf	RB4_ISR@RB4_source^0,c
  7789   0030AC                     
  7790                           ;MCAL_Layer/Interrupt/mcal_external_interrupt.c: 66:     (INTCONbits.RBIF = 0);
  7791   0030AC  90F2               	bcf	242,0,c	;volatile
  7792   0030AE                     
  7793                           ;MCAL_Layer/Interrupt/mcal_external_interrupt.c: 67:     if(RB4_source == 0){
  7794   0030AE  5036               	movf	RB4_ISR@RB4_source^0,w,c
  7795   0030B0  A4D8               	btfss	status,2,c
  7796   0030B2  EF5D  F018         	goto	i2u626_41
  7797   0030B6  EF5F  F018         	goto	i2u626_40
  7798   0030BA                     i2u626_41:
  7799   0030BA  EF76  F018         	goto	i2l6655
  7800   0030BE                     i2u626_40:
  7801   0030BE                     
  7802                           ;MCAL_Layer/Interrupt/mcal_external_interrupt.c: 68:         if(RB4_InterruptHandler_HIG
      +                          H){
  7803   0030BE  505D               	movf	_RB4_InterruptHandler_HIGH^0,w,c
  7804   0030C0  105E               	iorwf	(_RB4_InterruptHandler_HIGH+1)^0,w,c
  7805   0030C2  B4D8               	btfsc	status,2,c
  7806   0030C4  EF66  F018         	goto	i2u627_41
  7807   0030C8  EF68  F018         	goto	i2u627_40
  7808   0030CC                     i2u627_41:
  7809   0030CC  EF93  F018         	goto	i2l448
  7810   0030D0                     i2u627_40:
  7811   0030D0                     
  7812                           ;MCAL_Layer/Interrupt/mcal_external_interrupt.c: 69:         RB4_InterruptHandler_HIGH()
      +                          ;
  7813   0030D0  D802               	call	i2u628_48
  7814   0030D2  EF74  F018         	goto	i2u628_49
  7815   0030D6                     i2u628_48:
  7816   0030D6  0005               	push	
  7817   0030D8  6EFA               	movwf	pclath,c
  7818   0030DA  505D               	movf	_RB4_InterruptHandler_HIGH^0,w,c
  7819   0030DC  6EFD               	movwf	tosl,c
  7820   0030DE  505E               	movf	(_RB4_InterruptHandler_HIGH+1)^0,w,c
  7821   0030E0  6EFE               	movwf	tosh,c
  7822   0030E2  6AFF               	clrf	tosu,c
  7823   0030E4  50FA               	movf	pclath,w,c
  7824   0030E6  0012               	return		;indir
  7825   0030E8                     i2u628_49:
  7826   0030E8  EF93  F018         	goto	i2l448
  7827   0030EC                     i2l6655:
  7828   0030EC  0436               	decf	RB4_ISR@RB4_source^0,w,c
  7829   0030EE  A4D8               	btfss	status,2,c
  7830   0030F0  EF7C  F018         	goto	i2u629_41
  7831   0030F4  EF7E  F018         	goto	i2u629_40
  7832   0030F8                     i2u629_41:
  7833   0030F8  EF93  F018         	goto	i2l448
  7834   0030FC                     i2u629_40:
  7835   0030FC                     
  7836                           ;MCAL_Layer/Interrupt/mcal_external_interrupt.c: 73:        if(RB4_InterruptHandler_LOW)
      +                          {
  7837   0030FC  505B               	movf	_RB4_InterruptHandler_LOW^0,w,c
  7838   0030FE  105C               	iorwf	(_RB4_InterruptHandler_LOW+1)^0,w,c
  7839   003100  B4D8               	btfsc	status,2,c
  7840   003102  EF85  F018         	goto	i2u630_41
  7841   003106  EF87  F018         	goto	i2u630_40
  7842   00310A                     i2u630_41:
  7843   00310A  EF93  F018         	goto	i2l448
  7844   00310E                     i2u630_40:
  7845   00310E                     
  7846                           ;MCAL_Layer/Interrupt/mcal_external_interrupt.c: 74:         RB4_InterruptHandler_LOW();
  7847   00310E  D802               	call	i2u631_48
  7848   003110  EF93  F018         	goto	i2u631_49
  7849   003114                     i2u631_48:
  7850   003114  0005               	push	
  7851   003116  6EFA               	movwf	pclath,c
  7852   003118  505B               	movf	_RB4_InterruptHandler_LOW^0,w,c
  7853   00311A  6EFD               	movwf	tosl,c
  7854   00311C  505C               	movf	(_RB4_InterruptHandler_LOW+1)^0,w,c
  7855   00311E  6EFE               	movwf	tosh,c
  7856   003120  6AFF               	clrf	tosu,c
  7857   003122  50FA               	movf	pclath,w,c
  7858   003124  0012               	return		;indir
  7859   003126                     i2u631_49:
  7860   003126                     i2l448:
  7861   003126  0012               	return		;funcret
  7862   003128                     __end_of_RB4_ISR:
  7863                           	callstack 0
  7864                           
  7865 ;; *************** function _RB4_HIGH_APP_ISR *****************
  7866 ;; Defined at:
  7867 ;;		line 77 in file "application.c"
  7868 ;; Parameters:    Size  Location     Type
  7869 ;;		None
  7870 ;; Auto vars:     Size  Location     Type
  7871 ;;		None
  7872 ;; Return value:  Size  Location     Type
  7873 ;;                  1    wreg      void 
  7874 ;; Registers used:
  7875 ;;		wreg, status,2, status,0, cstack
  7876 ;; Tracked objects:
  7877 ;;		On entry : 0/0
  7878 ;;		On exit  : 0/0
  7879 ;;		Unchanged: 0/0
  7880 ;; Data sizes:     COMRAM   BANK0   BANK1   BANK2   BANK3   BANK4   BANK5   BANK6   BANK7   BANK8   BANK9  BANK10  BANK1
      +1  BANK12  BANK13  BANK14  BANK15
  7881 ;;      Params:         0       0       0       0       0       0       0       0       0       0       0       0       
      +0       0       0       0       0
  7882 ;;      Locals:         0       0       0       0       0       0       0       0       0       0       0       0       
      +0       0       0       0       0
  7883 ;;      Temps:          0       0       0       0       0       0       0       0       0       0       0       0       
      +0       0       0       0       0
  7884 ;;      Totals:         0       0       0       0       0       0       0       0       0       0       0       0       
      +0       0       0       0       0
  7885 ;;Total ram usage:        0 bytes
  7886 ;; Hardware stack levels used: 1
  7887 ;; Hardware stack levels required when called: 2
  7888 ;; This function calls:
  7889 ;;		_store_eeprom
  7890 ;; This function is called by:
  7891 ;;		_RB4_ISR
  7892 ;;		_RB5_ISR
  7893 ;;		_RB6_ISR
  7894 ;;		_RB7_ISR
  7895 ;; This function uses a non-reentrant model
  7896 ;;
  7897                           
  7898                           	psect	text47
  7899   003C50                     __ptext47:
  7900                           	callstack 0
  7901   003C50                     _RB4_HIGH_APP_ISR:
  7902                           	callstack 19
  7903   003C50                     
  7904                           ;application.c: 78:     if(operation_mode == 0){
  7905   003C50  0100               	movlb	0	; () banked
  7906   003C52  51E1               	movf	_operation_mode& (0+255),w,b
  7907   003C54  A4D8               	btfss	status,2,c
  7908   003C56  EF2F  F01E         	goto	i2u418_41
  7909   003C5A  EF31  F01E         	goto	i2u418_40
  7910   003C5E                     i2u418_41:
  7911   003C5E  EF34  F01E         	goto	i2l774
  7912   003C62                     i2u418_40:
  7913   003C62                     
  7914                           ; BSR set to: 0
  7915                           ;application.c: 79:         can_D++;
  7916   003C62  2BFA               	incf	_can_D& (0+255),f,b
  7917   003C64                     
  7918                           ; BSR set to: 0
  7919                           ;application.c: 80:         store_eeprom();
  7920   003C64  ECF9  F01B         	call	_store_eeprom	;wreg free
  7921   003C68                     i2l774:
  7922   003C68  0012               	return		;funcret
  7923   003C6A                     __end_of_RB4_HIGH_APP_ISR:
  7924                           	callstack 0
  7925                           
  7926 ;; *************** function _RB6_HIGH_APP_ISR *****************
  7927 ;; Defined at:
  7928 ;;		line 95 in file "application.c"
  7929 ;; Parameters:    Size  Location     Type
  7930 ;;		None
  7931 ;; Auto vars:     Size  Location     Type
  7932 ;;		None
  7933 ;; Return value:  Size  Location     Type
  7934 ;;                  1    wreg      void 
  7935 ;; Registers used:
  7936 ;;		wreg, fsr0l, fsr0h, fsr2l, fsr2h, status,2, status,0, tblptrl, tblptrh, tblptru, prodl, prodh, cstack
  7937 ;; Tracked objects:
  7938 ;;		On entry : 0/0
  7939 ;;		On exit  : 0/0
  7940 ;;		Unchanged: 0/0
  7941 ;; Data sizes:     COMRAM   BANK0   BANK1   BANK2   BANK3   BANK4   BANK5   BANK6   BANK7   BANK8   BANK9  BANK10  BANK1
      +1  BANK12  BANK13  BANK14  BANK15
  7942 ;;      Params:         0       0       0       0       0       0       0       0       0       0       0       0       
      +0       0       0       0       0
  7943 ;;      Locals:         0       0       0       0       0       0       0       0       0       0       0       0       
      +0       0       0       0       0
  7944 ;;      Temps:          0       0       0       0       0       0       0       0       0       0       0       0       
      +0       0       0       0       0
  7945 ;;      Totals:         0       0       0       0       0       0       0       0       0       0       0       0       
      +0       0       0       0       0
  7946 ;;Total ram usage:        0 bytes
  7947 ;; Hardware stack levels used: 1
  7948 ;; Hardware stack levels required when called: 6
  7949 ;; This function calls:
  7950 ;;		i2_lcd_4bit_send_command
  7951 ;;		i2_winner
  7952 ;; This function is called by:
  7953 ;;		_RB4_ISR
  7954 ;;		_RB5_ISR
  7955 ;;		_RB6_ISR
  7956 ;;		_RB7_ISR
  7957 ;; This function uses a non-reentrant model
  7958 ;;
  7959                           
  7960                           	psect	text48
  7961   003C0C                     __ptext48:
  7962                           	callstack 0
  7963   003C0C                     _RB6_HIGH_APP_ISR:
  7964                           	callstack 15
  7965   003C0C                     
  7966                           ;application.c: 96:     if(operation_mode == 0){
  7967   003C0C  0100               	movlb	0	; () banked
  7968   003C0E  51E1               	movf	_operation_mode& (0+255),w,b
  7969   003C10  A4D8               	btfss	status,2,c
  7970   003C12  EF0D  F01E         	goto	i2u618_41
  7971   003C16  EF0F  F01E         	goto	i2u618_40
  7972   003C1A                     i2u618_41:
  7973   003C1A  EF19  F01E         	goto	i2l781
  7974   003C1E                     i2u618_40:
  7975   003C1E                     
  7976                           ; BSR set to: 0
  7977                           ;application.c: 97:         operation_mode = 1;
  7978   003C1E  0E01               	movlw	1
  7979   003C20  6FE1               	movwf	_operation_mode& (0+255),b
  7980   003C22                     
  7981                           ; BSR set to: 0
  7982                           ;application.c: 98:         lcd_4bit_send_command(&lcd, 0x01);
  7983   003C22  0EC9               	movlw	low _lcd
  7984   003C24  6E0E               	movwf	i2lcd_4bit_send_command@lcd^0,c
  7985   003C26  0E01               	movlw	1
  7986   003C28  6E0F               	movwf	i2lcd_4bit_send_command@command^0,c
  7987   003C2A  ECED  F019         	call	i2_lcd_4bit_send_command	;wreg free
  7988   003C2E                     
  7989                           ;application.c: 99:         winner();
  7990   003C2E  EC75  F00D         	call	i2_winner	;wreg free
  7991   003C32                     i2l781:
  7992   003C32  0012               	return		;funcret
  7993   003C34                     __end_of_RB6_HIGH_APP_ISR:
  7994                           	callstack 0
  7995                           
  7996 ;; *************** function i2_winner *****************
  7997 ;; Defined at:
  7998 ;;		line 171 in file "application.c"
  7999 ;; Parameters:    Size  Location     Type
  8000 ;;		None
  8001 ;; Auto vars:     Size  Location     Type
  8002 ;;		None
  8003 ;; Return value:  Size  Location     Type
  8004 ;;                  1    wreg      void 
  8005 ;; Registers used:
  8006 ;;		wreg, fsr0l, fsr0h, fsr2l, fsr2h, status,2, status,0, tblptrl, tblptrh, tblptru, prodl, prodh, cstack
  8007 ;; Tracked objects:
  8008 ;;		On entry : 0/0
  8009 ;;		On exit  : 0/0
  8010 ;;		Unchanged: 0/0
  8011 ;; Data sizes:     COMRAM   BANK0   BANK1   BANK2   BANK3   BANK4   BANK5   BANK6   BANK7   BANK8   BANK9  BANK10  BANK1
      +1  BANK12  BANK13  BANK14  BANK15
  8012 ;;      Params:         0       0       0       0       0       0       0       0       0       0       0       0       
      +0       0       0       0       0
  8013 ;;      Locals:         0       0       0       0       0       0       0       0       0       0       0       0       
      +0       0       0       0       0
  8014 ;;      Temps:          0       0       0       0       0       0       0       0       0       0       0       0       
      +0       0       0       0       0
  8015 ;;      Totals:         0       0       0       0       0       0       0       0       0       0       0       0       
      +0       0       0       0       0
  8016 ;;Total ram usage:        0 bytes
  8017 ;; Hardware stack levels used: 1
  8018 ;; Hardware stack levels required when called: 5
  8019 ;; This function calls:
  8020 ;;		i2_lcd_4bit_send_command
  8021 ;;		i2_lcd_4bit_send_string_pos
  8022 ;; This function is called by:
  8023 ;;		_RB6_HIGH_APP_ISR
  8024 ;; This function uses a non-reentrant model
  8025 ;;
  8026                           
  8027                           	psect	text49
  8028   001AEA                     __ptext49:
  8029                           	callstack 0
  8030   001AEA                     i2_winner:
  8031                           	callstack 15
  8032   001AEA                     
  8033                           ;application.c: 172:  if((can_A > can_B) && (can_A > can_C) && (can_A > can_D)){
  8034   001AEA  0100               	movlb	0	; () banked
  8035   001AEC  51FD               	movf	_can_A& (0+255),w,b
  8036   001AEE  5DFC               	subwf	_can_B& (0+255),w,b
  8037   001AF0  B0D8               	btfsc	status,0,c
  8038   001AF2  EF7D  F00D         	goto	i2u593_41
  8039   001AF6  EF7F  F00D         	goto	i2u593_40
  8040   001AFA                     i2u593_41:
  8041   001AFA  EFA1  F00D         	goto	i2l6327
  8042   001AFE                     i2u593_40:
  8043   001AFE                     
  8044                           ; BSR set to: 0
  8045   001AFE  51FD               	movf	_can_A& (0+255),w,b
  8046   001B00  5DFB               	subwf	_can_C& (0+255),w,b
  8047   001B02  B0D8               	btfsc	status,0,c
  8048   001B04  EF86  F00D         	goto	i2u594_41
  8049   001B08  EF88  F00D         	goto	i2u594_40
  8050   001B0C                     i2u594_41:
  8051   001B0C  EFA1  F00D         	goto	i2l6327
  8052   001B10                     i2u594_40:
  8053   001B10                     
  8054                           ; BSR set to: 0
  8055   001B10  51FD               	movf	_can_A& (0+255),w,b
  8056   001B12  5DFA               	subwf	_can_D& (0+255),w,b
  8057   001B14  B0D8               	btfsc	status,0,c
  8058   001B16  EF8F  F00D         	goto	i2u595_41
  8059   001B1A  EF91  F00D         	goto	i2u595_40
  8060   001B1E                     i2u595_41:
  8061   001B1E  EFA1  F00D         	goto	i2l6327
  8062   001B22                     i2u595_40:
  8063   001B22                     
  8064                           ; BSR set to: 0
  8065                           ;application.c: 174:         lcd_4bit_send_string_pos(&lcd, (uint8 *)"A is the winner", 
      +                          1, 1);
  8066   001B22  0EC9               	movlw	low _lcd
  8067   001B24  6E15               	movwf	i2lcd_4bit_send_string_pos@lcd^0,c
  8068   001B26  0E01               	movlw	low STR_12
  8069   001B28  6E16               	movwf	i2lcd_4bit_send_string_pos@str^0,c
  8070   001B2A  5016               	movf	i2lcd_4bit_send_string_pos@str^0,w,c
  8071   001B2C  A4D8               	btfss	status,2,c
  8072   001B2E  0E10               	movlw	high __smallconst
  8073   001B30  6E17               	movwf	(i2lcd_4bit_send_string_pos@str+1)^0,c
  8074   001B32  0E01               	movlw	1
  8075   001B34  6E18               	movwf	i2lcd_4bit_send_string_pos@row^0,c
  8076   001B36  0E01               	movlw	1
  8077   001B38  6E19               	movwf	i2lcd_4bit_send_string_pos@column^0,c
  8078   001B3A  ECED  F014         	call	i2_lcd_4bit_send_string_pos	;wreg free
  8079                           
  8080                           ;application.c: 175:     }
  8081   001B3E  EF05  F00E         	goto	i2l6345
  8082   001B42                     i2l6327:
  8083                           
  8084                           ; BSR set to: 0
  8085   001B42  51FC               	movf	_can_B& (0+255),w,b
  8086   001B44  5DFD               	subwf	_can_A& (0+255),w,b
  8087   001B46  B0D8               	btfsc	status,0,c
  8088   001B48  EFA8  F00D         	goto	i2u596_41
  8089   001B4C  EFAA  F00D         	goto	i2u596_40
  8090   001B50                     i2u596_41:
  8091   001B50  EFCC  F00D         	goto	i2l6335
  8092   001B54                     i2u596_40:
  8093   001B54                     
  8094                           ; BSR set to: 0
  8095   001B54  51FC               	movf	_can_B& (0+255),w,b
  8096   001B56  5DFB               	subwf	_can_C& (0+255),w,b
  8097   001B58  B0D8               	btfsc	status,0,c
  8098   001B5A  EFB1  F00D         	goto	i2u597_41
  8099   001B5E  EFB3  F00D         	goto	i2u597_40
  8100   001B62                     i2u597_41:
  8101   001B62  EFCC  F00D         	goto	i2l6335
  8102   001B66                     i2u597_40:
  8103   001B66                     
  8104                           ; BSR set to: 0
  8105   001B66  51FC               	movf	_can_B& (0+255),w,b
  8106   001B68  5DFA               	subwf	_can_D& (0+255),w,b
  8107   001B6A  B0D8               	btfsc	status,0,c
  8108   001B6C  EFBA  F00D         	goto	i2u598_41
  8109   001B70  EFBC  F00D         	goto	i2u598_40
  8110   001B74                     i2u598_41:
  8111   001B74  EFCC  F00D         	goto	i2l6335
  8112   001B78                     i2u598_40:
  8113   001B78                     
  8114                           ; BSR set to: 0
  8115                           ;application.c: 178:         lcd_4bit_send_string_pos(&lcd, (uint8 *)"B is the winner", 
      +                          1, 1);
  8116   001B78  0EC9               	movlw	low _lcd
  8117   001B7A  6E15               	movwf	i2lcd_4bit_send_string_pos@lcd^0,c
  8118   001B7C  0E11               	movlw	low STR_13
  8119   001B7E  6E16               	movwf	i2lcd_4bit_send_string_pos@str^0,c
  8120   001B80  5016               	movf	i2lcd_4bit_send_string_pos@str^0,w,c
  8121   001B82  A4D8               	btfss	status,2,c
  8122   001B84  0E10               	movlw	high __smallconst
  8123   001B86  6E17               	movwf	(i2lcd_4bit_send_string_pos@str+1)^0,c
  8124   001B88  0E01               	movlw	1
  8125   001B8A  6E18               	movwf	i2lcd_4bit_send_string_pos@row^0,c
  8126   001B8C  0E01               	movlw	1
  8127   001B8E  6E19               	movwf	i2lcd_4bit_send_string_pos@column^0,c
  8128   001B90  ECED  F014         	call	i2_lcd_4bit_send_string_pos	;wreg free
  8129                           
  8130                           ;application.c: 179:     }
  8131   001B94  EF05  F00E         	goto	i2l6345
  8132   001B98                     i2l6335:
  8133                           
  8134                           ; BSR set to: 0
  8135   001B98  51FB               	movf	_can_C& (0+255),w,b
  8136   001B9A  5DFD               	subwf	_can_A& (0+255),w,b
  8137   001B9C  B0D8               	btfsc	status,0,c
  8138   001B9E  EFD3  F00D         	goto	i2u599_41
  8139   001BA2  EFD5  F00D         	goto	i2u599_40
  8140   001BA6                     i2u599_41:
  8141   001BA6  EFF7  F00D         	goto	i2l6343
  8142   001BAA                     i2u599_40:
  8143   001BAA                     
  8144                           ; BSR set to: 0
  8145   001BAA  51FB               	movf	_can_C& (0+255),w,b
  8146   001BAC  5DFC               	subwf	_can_B& (0+255),w,b
  8147   001BAE  B0D8               	btfsc	status,0,c
  8148   001BB0  EFDC  F00D         	goto	i2u600_41
  8149   001BB4  EFDE  F00D         	goto	i2u600_40
  8150   001BB8                     i2u600_41:
  8151   001BB8  EFF7  F00D         	goto	i2l6343
  8152   001BBC                     i2u600_40:
  8153   001BBC                     
  8154                           ; BSR set to: 0
  8155   001BBC  51FB               	movf	_can_C& (0+255),w,b
  8156   001BBE  5DFA               	subwf	_can_D& (0+255),w,b
  8157   001BC0  B0D8               	btfsc	status,0,c
  8158   001BC2  EFE5  F00D         	goto	i2u601_41
  8159   001BC6  EFE7  F00D         	goto	i2u601_40
  8160   001BCA                     i2u601_41:
  8161   001BCA  EFF7  F00D         	goto	i2l6343
  8162   001BCE                     i2u601_40:
  8163   001BCE                     
  8164                           ; BSR set to: 0
  8165                           ;application.c: 182:         lcd_4bit_send_string_pos(&lcd, (uint8 *)"C is the winner", 
      +                          1, 1);
  8166   001BCE  0EC9               	movlw	low _lcd
  8167   001BD0  6E15               	movwf	i2lcd_4bit_send_string_pos@lcd^0,c
  8168   001BD2  0E21               	movlw	low STR_14
  8169   001BD4  6E16               	movwf	i2lcd_4bit_send_string_pos@str^0,c
  8170   001BD6  5016               	movf	i2lcd_4bit_send_string_pos@str^0,w,c
  8171   001BD8  A4D8               	btfss	status,2,c
  8172   001BDA  0E10               	movlw	high __smallconst
  8173   001BDC  6E17               	movwf	(i2lcd_4bit_send_string_pos@str+1)^0,c
  8174   001BDE  0E01               	movlw	1
  8175   001BE0  6E18               	movwf	i2lcd_4bit_send_string_pos@row^0,c
  8176   001BE2  0E01               	movlw	1
  8177   001BE4  6E19               	movwf	i2lcd_4bit_send_string_pos@column^0,c
  8178   001BE6  ECED  F014         	call	i2_lcd_4bit_send_string_pos	;wreg free
  8179                           
  8180                           ;application.c: 183:     }
  8181   001BEA  EF05  F00E         	goto	i2l6345
  8182   001BEE                     i2l6343:
  8183                           
  8184                           ; BSR set to: 0
  8185                           ;application.c: 186:         lcd_4bit_send_string_pos(&lcd, (uint8 *)"D is the winner", 
      +                          1, 1);
  8186   001BEE  0EC9               	movlw	low _lcd
  8187   001BF0  6E15               	movwf	i2lcd_4bit_send_string_pos@lcd^0,c
  8188   001BF2  0E31               	movlw	low STR_15
  8189   001BF4  6E16               	movwf	i2lcd_4bit_send_string_pos@str^0,c
  8190   001BF6  5016               	movf	i2lcd_4bit_send_string_pos@str^0,w,c
  8191   001BF8  A4D8               	btfss	status,2,c
  8192   001BFA  0E10               	movlw	high __smallconst
  8193   001BFC  6E17               	movwf	(i2lcd_4bit_send_string_pos@str+1)^0,c
  8194   001BFE  0E01               	movlw	1
  8195   001C00  6E18               	movwf	i2lcd_4bit_send_string_pos@row^0,c
  8196   001C02  0E01               	movlw	1
  8197   001C04  6E19               	movwf	i2lcd_4bit_send_string_pos@column^0,c
  8198   001C06  ECED  F014         	call	i2_lcd_4bit_send_string_pos	;wreg free
  8199   001C0A                     i2l6345:
  8200                           
  8201                           ;application.c: 188:     if(operation_mode == 0){
  8202   001C0A  0100               	movlb	0	; () banked
  8203   001C0C  51E1               	movf	_operation_mode& (0+255),w,b
  8204   001C0E  A4D8               	btfss	status,2,c
  8205   001C10  EF0C  F00E         	goto	i2u602_41
  8206   001C14  EF0E  F00E         	goto	i2u602_40
  8207   001C18                     i2u602_41:
  8208   001C18  EF15  F00E         	goto	i2l814
  8209   001C1C                     i2u602_40:
  8210   001C1C                     
  8211                           ; BSR set to: 0
  8212                           ;application.c: 189:         ret = lcd_4bit_send_command(&lcd, 0x01);
  8213   001C1C  0EC9               	movlw	low _lcd
  8214   001C1E  6E0E               	movwf	i2lcd_4bit_send_command@lcd^0,c
  8215   001C20  0E01               	movlw	1
  8216   001C22  6E0F               	movwf	i2lcd_4bit_send_command@command^0,c
  8217   001C24  ECED  F019         	call	i2_lcd_4bit_send_command	;wreg free
  8218   001C28  6E7C               	movwf	_ret^0,c
  8219   001C2A                     i2l814:
  8220   001C2A  0012               	return		;funcret
  8221   001C2C                     __end_ofi2_winner:
  8222                           	callstack 0
  8223                           
  8224 ;; *************** function _RB5_LOW_APP_ISR *****************
  8225 ;; Defined at:
  8226 ;;		line 84 in file "application.c"
  8227 ;; Parameters:    Size  Location     Type
  8228 ;;		None
  8229 ;; Auto vars:     Size  Location     Type
  8230 ;;		None
  8231 ;; Return value:  Size  Location     Type
  8232 ;;                  1    wreg      void 
  8233 ;; Registers used:
  8234 ;;		wreg, fsr0l, fsr0h, fsr1l, fsr1h, fsr2l, fsr2h, status,2, status,0, tblptrl, tblptrh, tblptru, prodl, prodh, cstack
  8235 ;; Tracked objects:
  8236 ;;		On entry : 0/0
  8237 ;;		On exit  : 0/0
  8238 ;;		Unchanged: 0/0
  8239 ;; Data sizes:     COMRAM   BANK0   BANK1   BANK2   BANK3   BANK4   BANK5   BANK6   BANK7   BANK8   BANK9  BANK10  BANK1
      +1  BANK12  BANK13  BANK14  BANK15
  8240 ;;      Params:         0       0       0       0       0       0       0       0       0       0       0       0       
      +0       0       0       0       0
  8241 ;;      Locals:         0       0       0       0       0       0       0       0       0       0       0       0       
      +0       0       0       0       0
  8242 ;;      Temps:          0       0       0       0       0       0       0       0       0       0       0       0       
      +0       0       0       0       0
  8243 ;;      Totals:         0       0       0       0       0       0       0       0       0       0       0       0       
      +0       0       0       0       0
  8244 ;;Total ram usage:        0 bytes
  8245 ;; Hardware stack levels used: 1
  8246 ;; Hardware stack levels required when called: 7
  8247 ;; This function calls:
  8248 ;;		_clear_eeprom
  8249 ;;		i2_display
  8250 ;;		i2_lcd_4bit_send_command
  8251 ;; This function is called by:
  8252 ;;		_RB4_ISR
  8253 ;;		_RB5_ISR
  8254 ;;		_RB6_ISR
  8255 ;;		_RB7_ISR
  8256 ;; This function uses a non-reentrant model
  8257 ;;
  8258                           
  8259                           	psect	text50
  8260   003AB0                     __ptext50:
  8261                           	callstack 0
  8262   003AB0                     _RB5_LOW_APP_ISR:
  8263                           	callstack 14
  8264   003AB0                     
  8265                           ;application.c: 85:     operation_mode = 0;
  8266   003AB0  0E00               	movlw	0
  8267   003AB2  0100               	movlb	0	; () banked
  8268   003AB4  6FE1               	movwf	_operation_mode& (0+255),b
  8269   003AB6                     
  8270                           ; BSR set to: 0
  8271                           ;application.c: 86:     lcd_4bit_send_command(&lcd, 0x01);
  8272   003AB6  0EC9               	movlw	low _lcd
  8273   003AB8  6E0E               	movwf	i2lcd_4bit_send_command@lcd^0,c
  8274   003ABA  0E01               	movlw	1
  8275   003ABC  6E0F               	movwf	i2lcd_4bit_send_command@command^0,c
  8276   003ABE  ECED  F019         	call	i2_lcd_4bit_send_command	;wreg free
  8277   003AC2                     
  8278                           ;application.c: 87:     can_A = 0;
  8279   003AC2  0E00               	movlw	0
  8280   003AC4  0100               	movlb	0	; () banked
  8281   003AC6  6FFD               	movwf	_can_A& (0+255),b
  8282   003AC8                     
  8283                           ; BSR set to: 0
  8284                           ;application.c: 88:     can_B = 0;
  8285   003AC8  0E00               	movlw	0
  8286   003ACA  6FFC               	movwf	_can_B& (0+255),b
  8287   003ACC                     
  8288                           ; BSR set to: 0
  8289                           ;application.c: 89:     can_C = 0;
  8290   003ACC  0E00               	movlw	0
  8291   003ACE  6FFB               	movwf	_can_C& (0+255),b
  8292   003AD0                     
  8293                           ; BSR set to: 0
  8294                           ;application.c: 90:     can_D = 0;
  8295   003AD0  0E00               	movlw	0
  8296   003AD2  6FFA               	movwf	_can_D& (0+255),b
  8297   003AD4                     
  8298                           ; BSR set to: 0
  8299                           ;application.c: 91:     clear_eeprom();
  8300   003AD4  ECD8  F01B         	call	_clear_eeprom	;wreg free
  8301   003AD8                     
  8302                           ;application.c: 92:     display();
  8303   003AD8  EC16  F00E         	call	i2_display	;wreg free
  8304   003ADC  0012               	return		;funcret
  8305   003ADE                     __end_of_RB5_LOW_APP_ISR:
  8306                           	callstack 0
  8307                           
  8308 ;; *************** function i2_display *****************
  8309 ;; Defined at:
  8310 ;;		line 129 in file "application.c"
  8311 ;; Parameters:    Size  Location     Type
  8312 ;;		None
  8313 ;; Auto vars:     Size  Location     Type
  8314 ;;		None
  8315 ;; Return value:  Size  Location     Type
  8316 ;;                  1    wreg      void 
  8317 ;; Registers used:
  8318 ;;		wreg, fsr0l, fsr0h, fsr1l, fsr1h, fsr2l, fsr2h, status,2, status,0, tblptrl, tblptrh, tblptru, prodl, prodh, cstack
  8319 ;; Tracked objects:
  8320 ;;		On entry : 0/0
  8321 ;;		On exit  : 0/0
  8322 ;;		Unchanged: 0/0
  8323 ;; Data sizes:     COMRAM   BANK0   BANK1   BANK2   BANK3   BANK4   BANK5   BANK6   BANK7   BANK8   BANK9  BANK10  BANK1
      +1  BANK12  BANK13  BANK14  BANK15
  8324 ;;      Params:         0       0       0       0       0       0       0       0       0       0       0       0       
      +0       0       0       0       0
  8325 ;;      Locals:         0       0       0       0       0       0       0       0       0       0       0       0       
      +0       0       0       0       0
  8326 ;;      Temps:          0       0       0       0       0       0       0       0       0       0       0       0       
      +0       0       0       0       0
  8327 ;;      Totals:         0       0       0       0       0       0       0       0       0       0       0       0       
      +0       0       0       0       0
  8328 ;;Total ram usage:        0 bytes
  8329 ;; Hardware stack levels used: 1
  8330 ;; Hardware stack levels required when called: 6
  8331 ;; This function calls:
  8332 ;;		i2_convert_uint16_to_string
  8333 ;;		i2_lcd_4bit_send_command
  8334 ;;		i2_lcd_4bit_send_string_pos
  8335 ;;		i2_read_eeprom
  8336 ;; This function is called by:
  8337 ;;		_RB5_LOW_APP_ISR
  8338 ;; This function uses a non-reentrant model
  8339 ;;
  8340                           
  8341                           	psect	text51
  8342   001C2C                     __ptext51:
  8343                           	callstack 0
  8344   001C2C                     i2_display:
  8345                           	callstack 14
  8346   001C2C                     
  8347                           ;application.c: 130:     read_eeprom();
  8348   001C2C  ECB7  F01B         	call	i2_read_eeprom	;wreg free
  8349   001C30                     
  8350                           ;application.c: 132:     ret = convert_uint16_to_string(can_A, can_A_str);
  8351   001C30  C0FD  F02B         	movff	_can_A,i2convert_uint16_to_string@value
  8352   001C34  6A2C               	clrf	(i2convert_uint16_to_string@value+1)^0,c
  8353   001C36  0EF4               	movlw	low _can_A_str
  8354   001C38  6E2D               	movwf	i2convert_uint16_to_string@str^0,c
  8355   001C3A  EC94  F015         	call	i2_convert_uint16_to_string	;wreg free
  8356   001C3E  6E7C               	movwf	_ret^0,c
  8357   001C40                     
  8358                           ;application.c: 133:     ret = convert_uint16_to_string(can_B, can_B_str);
  8359   001C40  C0FC  F02B         	movff	_can_B,i2convert_uint16_to_string@value
  8360   001C44  6A2C               	clrf	(i2convert_uint16_to_string@value+1)^0,c
  8361   001C46  0EEE               	movlw	low _can_B_str
  8362   001C48  6E2D               	movwf	i2convert_uint16_to_string@str^0,c
  8363   001C4A  EC94  F015         	call	i2_convert_uint16_to_string	;wreg free
  8364   001C4E  6E7C               	movwf	_ret^0,c
  8365   001C50                     
  8366                           ;application.c: 134:     ret = convert_uint16_to_string(can_C, can_C_str);
  8367   001C50  C0FB  F02B         	movff	_can_C,i2convert_uint16_to_string@value
  8368   001C54  6A2C               	clrf	(i2convert_uint16_to_string@value+1)^0,c
  8369   001C56  0EE8               	movlw	low _can_C_str
  8370   001C58  6E2D               	movwf	i2convert_uint16_to_string@str^0,c
  8371   001C5A  EC94  F015         	call	i2_convert_uint16_to_string	;wreg free
  8372   001C5E  6E7C               	movwf	_ret^0,c
  8373   001C60                     
  8374                           ;application.c: 135:     ret = convert_uint16_to_string(can_D, can_D_str);
  8375   001C60  C0FA  F02B         	movff	_can_D,i2convert_uint16_to_string@value
  8376   001C64  6A2C               	clrf	(i2convert_uint16_to_string@value+1)^0,c
  8377   001C66  0EE2               	movlw	low _can_D_str
  8378   001C68  6E2D               	movwf	i2convert_uint16_to_string@str^0,c
  8379   001C6A  EC94  F015         	call	i2_convert_uint16_to_string	;wreg free
  8380   001C6E  6E7C               	movwf	_ret^0,c
  8381   001C70                     
  8382                           ;application.c: 137:     ret = lcd_4bit_send_string_pos(&lcd, (uint8 *)"A:", 1, 1);
  8383   001C70  0EC9               	movlw	low _lcd
  8384   001C72  6E15               	movwf	i2lcd_4bit_send_string_pos@lcd^0,c
  8385   001C74  0E65               	movlw	low STR_8
  8386   001C76  6E16               	movwf	i2lcd_4bit_send_string_pos@str^0,c
  8387   001C78  5016               	movf	i2lcd_4bit_send_string_pos@str^0,w,c
  8388   001C7A  A4D8               	btfss	status,2,c
  8389   001C7C  0E10               	movlw	high __smallconst
  8390   001C7E  6E17               	movwf	(i2lcd_4bit_send_string_pos@str+1)^0,c
  8391   001C80  0E01               	movlw	1
  8392   001C82  6E18               	movwf	i2lcd_4bit_send_string_pos@row^0,c
  8393   001C84  0E01               	movlw	1
  8394   001C86  6E19               	movwf	i2lcd_4bit_send_string_pos@column^0,c
  8395   001C88  ECED  F014         	call	i2_lcd_4bit_send_string_pos	;wreg free
  8396   001C8C  6E7C               	movwf	_ret^0,c
  8397   001C8E                     
  8398                           ;application.c: 138:     ret = lcd_4bit_send_string_pos(&lcd, can_A_str, 1, 3);
  8399   001C8E  0EC9               	movlw	low _lcd
  8400   001C90  6E15               	movwf	i2lcd_4bit_send_string_pos@lcd^0,c
  8401   001C92  0EF4               	movlw	low _can_A_str
  8402   001C94  6E16               	movwf	i2lcd_4bit_send_string_pos@str^0,c
  8403   001C96  6A17               	clrf	(i2lcd_4bit_send_string_pos@str+1)^0,c
  8404   001C98  0E01               	movlw	1
  8405   001C9A  6E18               	movwf	i2lcd_4bit_send_string_pos@row^0,c
  8406   001C9C  0E03               	movlw	3
  8407   001C9E  6E19               	movwf	i2lcd_4bit_send_string_pos@column^0,c
  8408   001CA0  ECED  F014         	call	i2_lcd_4bit_send_string_pos	;wreg free
  8409   001CA4  6E7C               	movwf	_ret^0,c
  8410   001CA6                     
  8411                           ;application.c: 139:     ret = lcd_4bit_send_string_pos(&lcd, (uint8 *)"B:", 1, 12);
  8412   001CA6  0EC9               	movlw	low _lcd
  8413   001CA8  6E15               	movwf	i2lcd_4bit_send_string_pos@lcd^0,c
  8414   001CAA  0E68               	movlw	low STR_9
  8415   001CAC  6E16               	movwf	i2lcd_4bit_send_string_pos@str^0,c
  8416   001CAE  5016               	movf	i2lcd_4bit_send_string_pos@str^0,w,c
  8417   001CB0  A4D8               	btfss	status,2,c
  8418   001CB2  0E10               	movlw	high __smallconst
  8419   001CB4  6E17               	movwf	(i2lcd_4bit_send_string_pos@str+1)^0,c
  8420   001CB6  0E01               	movlw	1
  8421   001CB8  6E18               	movwf	i2lcd_4bit_send_string_pos@row^0,c
  8422   001CBA  0E0C               	movlw	12
  8423   001CBC  6E19               	movwf	i2lcd_4bit_send_string_pos@column^0,c
  8424   001CBE  ECED  F014         	call	i2_lcd_4bit_send_string_pos	;wreg free
  8425   001CC2  6E7C               	movwf	_ret^0,c
  8426   001CC4                     
  8427                           ;application.c: 140:     ret = lcd_4bit_send_string_pos(&lcd, can_B_str, 1, 14);
  8428   001CC4  0EC9               	movlw	low _lcd
  8429   001CC6  6E15               	movwf	i2lcd_4bit_send_string_pos@lcd^0,c
  8430   001CC8  0EEE               	movlw	low _can_B_str
  8431   001CCA  6E16               	movwf	i2lcd_4bit_send_string_pos@str^0,c
  8432   001CCC  6A17               	clrf	(i2lcd_4bit_send_string_pos@str+1)^0,c
  8433   001CCE  0E01               	movlw	1
  8434   001CD0  6E18               	movwf	i2lcd_4bit_send_string_pos@row^0,c
  8435   001CD2  0E0E               	movlw	14
  8436   001CD4  6E19               	movwf	i2lcd_4bit_send_string_pos@column^0,c
  8437   001CD6  ECED  F014         	call	i2_lcd_4bit_send_string_pos	;wreg free
  8438   001CDA  6E7C               	movwf	_ret^0,c
  8439   001CDC                     
  8440                           ;application.c: 141:     ret = lcd_4bit_send_string_pos(&lcd, (uint8 *)"C:", 2, 1);
  8441   001CDC  0EC9               	movlw	low _lcd
  8442   001CDE  6E15               	movwf	i2lcd_4bit_send_string_pos@lcd^0,c
  8443   001CE0  0E6B               	movlw	low STR_10
  8444   001CE2  6E16               	movwf	i2lcd_4bit_send_string_pos@str^0,c
  8445   001CE4  5016               	movf	i2lcd_4bit_send_string_pos@str^0,w,c
  8446   001CE6  A4D8               	btfss	status,2,c
  8447   001CE8  0E10               	movlw	high __smallconst
  8448   001CEA  6E17               	movwf	(i2lcd_4bit_send_string_pos@str+1)^0,c
  8449   001CEC  0E02               	movlw	2
  8450   001CEE  6E18               	movwf	i2lcd_4bit_send_string_pos@row^0,c
  8451   001CF0  0E01               	movlw	1
  8452   001CF2  6E19               	movwf	i2lcd_4bit_send_string_pos@column^0,c
  8453   001CF4  ECED  F014         	call	i2_lcd_4bit_send_string_pos	;wreg free
  8454   001CF8  6E7C               	movwf	_ret^0,c
  8455   001CFA                     
  8456                           ;application.c: 142:     ret = lcd_4bit_send_string_pos(&lcd, can_C_str, 2, 3);
  8457   001CFA  0EC9               	movlw	low _lcd
  8458   001CFC  6E15               	movwf	i2lcd_4bit_send_string_pos@lcd^0,c
  8459   001CFE  0EE8               	movlw	low _can_C_str
  8460   001D00  6E16               	movwf	i2lcd_4bit_send_string_pos@str^0,c
  8461   001D02  6A17               	clrf	(i2lcd_4bit_send_string_pos@str+1)^0,c
  8462   001D04  0E02               	movlw	2
  8463   001D06  6E18               	movwf	i2lcd_4bit_send_string_pos@row^0,c
  8464   001D08  0E03               	movlw	3
  8465   001D0A  6E19               	movwf	i2lcd_4bit_send_string_pos@column^0,c
  8466   001D0C  ECED  F014         	call	i2_lcd_4bit_send_string_pos	;wreg free
  8467   001D10  6E7C               	movwf	_ret^0,c
  8468   001D12                     
  8469                           ;application.c: 143:     ret = lcd_4bit_send_string_pos(&lcd, (uint8 *)"D:", 2, 12);
  8470   001D12  0EC9               	movlw	low _lcd
  8471   001D14  6E15               	movwf	i2lcd_4bit_send_string_pos@lcd^0,c
  8472   001D16  0E6E               	movlw	low STR_11
  8473   001D18  6E16               	movwf	i2lcd_4bit_send_string_pos@str^0,c
  8474   001D1A  5016               	movf	i2lcd_4bit_send_string_pos@str^0,w,c
  8475   001D1C  A4D8               	btfss	status,2,c
  8476   001D1E  0E10               	movlw	high __smallconst
  8477   001D20  6E17               	movwf	(i2lcd_4bit_send_string_pos@str+1)^0,c
  8478   001D22  0E02               	movlw	2
  8479   001D24  6E18               	movwf	i2lcd_4bit_send_string_pos@row^0,c
  8480   001D26  0E0C               	movlw	12
  8481   001D28  6E19               	movwf	i2lcd_4bit_send_string_pos@column^0,c
  8482   001D2A  ECED  F014         	call	i2_lcd_4bit_send_string_pos	;wreg free
  8483   001D2E  6E7C               	movwf	_ret^0,c
  8484   001D30                     
  8485                           ;application.c: 144:     ret = lcd_4bit_send_string_pos(&lcd, can_D_str, 2, 14);
  8486   001D30  0EC9               	movlw	low _lcd
  8487   001D32  6E15               	movwf	i2lcd_4bit_send_string_pos@lcd^0,c
  8488   001D34  0EE2               	movlw	low _can_D_str
  8489   001D36  6E16               	movwf	i2lcd_4bit_send_string_pos@str^0,c
  8490   001D38  6A17               	clrf	(i2lcd_4bit_send_string_pos@str+1)^0,c
  8491   001D3A  0E02               	movlw	2
  8492   001D3C  6E18               	movwf	i2lcd_4bit_send_string_pos@row^0,c
  8493   001D3E  0E0E               	movlw	14
  8494   001D40  6E19               	movwf	i2lcd_4bit_send_string_pos@column^0,c
  8495   001D42  ECED  F014         	call	i2_lcd_4bit_send_string_pos	;wreg free
  8496   001D46  6E7C               	movwf	_ret^0,c
  8497   001D48                     
  8498                           ;application.c: 145:     if(operation_mode){
  8499   001D48  0100               	movlb	0	; () banked
  8500   001D4A  51E1               	movf	_operation_mode& (0+255),w,b
  8501   001D4C  B4D8               	btfsc	status,2,c
  8502   001D4E  EFAB  F00E         	goto	i2u592_41
  8503   001D52  EFAD  F00E         	goto	i2u592_40
  8504   001D56                     i2u592_41:
  8505   001D56  EFB4  F00E         	goto	i2l795
  8506   001D5A                     i2u592_40:
  8507   001D5A                     
  8508                           ; BSR set to: 0
  8509                           ;application.c: 146:         ret = lcd_4bit_send_command(&lcd, 0x01);
  8510   001D5A  0EC9               	movlw	low _lcd
  8511   001D5C  6E0E               	movwf	i2lcd_4bit_send_command@lcd^0,c
  8512   001D5E  0E01               	movlw	1
  8513   001D60  6E0F               	movwf	i2lcd_4bit_send_command@command^0,c
  8514   001D62  ECED  F019         	call	i2_lcd_4bit_send_command	;wreg free
  8515   001D66  6E7C               	movwf	_ret^0,c
  8516   001D68                     i2l795:
  8517   001D68  0012               	return		;funcret
  8518   001D6A                     __end_ofi2_display:
  8519                           	callstack 0
  8520                           
  8521 ;; *************** function i2_read_eeprom *****************
  8522 ;; Defined at:
  8523 ;;		line 164 in file "application.c"
  8524 ;; Parameters:    Size  Location     Type
  8525 ;;		None
  8526 ;; Auto vars:     Size  Location     Type
  8527 ;;		None
  8528 ;; Return value:  Size  Location     Type
  8529 ;;                  1    wreg      void 
  8530 ;; Registers used:
  8531 ;;		wreg, fsr2l, fsr2h, status,2, status,0, cstack
  8532 ;; Tracked objects:
  8533 ;;		On entry : 0/0
  8534 ;;		On exit  : 0/0
  8535 ;;		Unchanged: 0/0
  8536 ;; Data sizes:     COMRAM   BANK0   BANK1   BANK2   BANK3   BANK4   BANK5   BANK6   BANK7   BANK8   BANK9  BANK10  BANK1
      +1  BANK12  BANK13  BANK14  BANK15
  8537 ;;      Params:         0       0       0       0       0       0       0       0       0       0       0       0       
      +0       0       0       0       0
  8538 ;;      Locals:         0       0       0       0       0       0       0       0       0       0       0       0       
      +0       0       0       0       0
  8539 ;;      Temps:          0       0       0       0       0       0       0       0       0       0       0       0       
      +0       0       0       0       0
  8540 ;;      Totals:         0       0       0       0       0       0       0       0       0       0       0       0       
      +0       0       0       0       0
  8541 ;;Total ram usage:        0 bytes
  8542 ;; Hardware stack levels used: 1
  8543 ;; Hardware stack levels required when called: 1
  8544 ;; This function calls:
  8545 ;;		i2_Data_EEPROM_ReadByte
  8546 ;; This function is called by:
  8547 ;;		i2_display
  8548 ;; This function uses a non-reentrant model
  8549 ;;
  8550                           
  8551                           	psect	text52
  8552   00376E                     __ptext52:
  8553                           	callstack 0
  8554   00376E                     i2_read_eeprom:
  8555                           	callstack 18
  8556   00376E                     
  8557                           ;application.c: 165:     Data_EEPROM_ReadByte(0x0000, &can_A);
  8558   00376E  0E00               	movlw	0
  8559   003770  6E02               	movwf	(i2Data_EEPROM_ReadByte@adr+1)^0,c
  8560   003772  0E00               	movlw	0
  8561   003774  6E01               	movwf	i2Data_EEPROM_ReadByte@adr^0,c
  8562   003776  0EFD               	movlw	low _can_A
  8563   003778  6E03               	movwf	i2Data_EEPROM_ReadByte@data^0,c
  8564   00377A  ECC2  F01C         	call	i2_Data_EEPROM_ReadByte	;wreg free
  8565                           
  8566                           ;application.c: 166:     Data_EEPROM_ReadByte(0x0008, &can_B);
  8567   00377E  0E00               	movlw	0
  8568   003780  6E02               	movwf	(i2Data_EEPROM_ReadByte@adr+1)^0,c
  8569   003782  0E08               	movlw	8
  8570   003784  6E01               	movwf	i2Data_EEPROM_ReadByte@adr^0,c
  8571   003786  0EFC               	movlw	low _can_B
  8572   003788  6E03               	movwf	i2Data_EEPROM_ReadByte@data^0,c
  8573   00378A  ECC2  F01C         	call	i2_Data_EEPROM_ReadByte	;wreg free
  8574                           
  8575                           ;application.c: 167:     Data_EEPROM_ReadByte(0x0010, &can_C);
  8576   00378E  0E00               	movlw	0
  8577   003790  6E02               	movwf	(i2Data_EEPROM_ReadByte@adr+1)^0,c
  8578   003792  0E10               	movlw	16
  8579   003794  6E01               	movwf	i2Data_EEPROM_ReadByte@adr^0,c
  8580   003796  0EFB               	movlw	low _can_C
  8581   003798  6E03               	movwf	i2Data_EEPROM_ReadByte@data^0,c
  8582   00379A  ECC2  F01C         	call	i2_Data_EEPROM_ReadByte	;wreg free
  8583                           
  8584                           ;application.c: 168:     Data_EEPROM_ReadByte(0x0018, &can_D);
  8585   00379E  0E00               	movlw	0
  8586   0037A0  6E02               	movwf	(i2Data_EEPROM_ReadByte@adr+1)^0,c
  8587   0037A2  0E18               	movlw	24
  8588   0037A4  6E01               	movwf	i2Data_EEPROM_ReadByte@adr^0,c
  8589   0037A6  0EFA               	movlw	low _can_D
  8590   0037A8  6E03               	movwf	i2Data_EEPROM_ReadByte@data^0,c
  8591   0037AA  ECC2  F01C         	call	i2_Data_EEPROM_ReadByte	;wreg free
  8592   0037AE  0012               	return		;funcret
  8593   0037B0                     __end_ofi2_read_eeprom:
  8594                           	callstack 0
  8595                           
  8596 ;; *************** function i2_Data_EEPROM_ReadByte *****************
  8597 ;; Defined at:
  8598 ;;		line 63 in file "MCAL_Layer/EEPROM/hal_eeprom.c"
  8599 ;; Parameters:    Size  Location     Type
  8600 ;;  adr             2    0[COMRAM] unsigned short 
  8601 ;;  data            1    2[COMRAM] PTR unsigned char 
  8602 ;;		 -> can_D(1), can_C(1), can_B(1), can_A(1), 
  8603 ;; Auto vars:     Size  Location     Type
  8604 ;;  ret             1    0        unsigned char 
  8605 ;; Return value:  Size  Location     Type
  8606 ;;                  1    wreg      unsigned char 
  8607 ;; Registers used:
  8608 ;;		wreg, fsr2l, fsr2h, status,2, status,0
  8609 ;; Tracked objects:
  8610 ;;		On entry : 0/0
  8611 ;;		On exit  : 0/0
  8612 ;;		Unchanged: 0/0
  8613 ;; Data sizes:     COMRAM   BANK0   BANK1   BANK2   BANK3   BANK4   BANK5   BANK6   BANK7   BANK8   BANK9  BANK10  BANK1
      +1  BANK12  BANK13  BANK14  BANK15
  8614 ;;      Params:         3       0       0       0       0       0       0       0       0       0       0       0       
      +0       0       0       0       0
  8615 ;;      Locals:         0       0       0       0       0       0       0       0       0       0       0       0       
      +0       0       0       0       0
  8616 ;;      Temps:          0       0       0       0       0       0       0       0       0       0       0       0       
      +0       0       0       0       0
  8617 ;;      Totals:         3       0       0       0       0       0       0       0       0       0       0       0       
      +0       0       0       0       0
  8618 ;;Total ram usage:        3 bytes
  8619 ;; Hardware stack levels used: 1
  8620 ;; This function calls:
  8621 ;;		Nothing
  8622 ;; This function is called by:
  8623 ;;		i2_read_eeprom
  8624 ;; This function uses a non-reentrant model
  8625 ;;
  8626                           
  8627                           	psect	text53
  8628   003984                     __ptext53:
  8629                           	callstack 0
  8630   003984                     i2_Data_EEPROM_ReadByte:
  8631                           	callstack 18
  8632   003984                     
  8633                           ;MCAL_Layer/EEPROM/hal_eeprom.c: 66:     if(data == ((void*)0)){
  8634   003984  5003               	movf	i2Data_EEPROM_ReadByte@data^0,w,c
  8635   003986  A4D8               	btfss	status,2,c
  8636   003988  EFC8  F01C         	goto	i2u351_41
  8637   00398C  EFCA  F01C         	goto	i2u351_40
  8638   003990                     i2u351_41:
  8639   003990  EFCC  F01C         	goto	i2l4189
  8640   003994                     i2u351_40:
  8641   003994                     
  8642                           ;MCAL_Layer/EEPROM/hal_eeprom.c: 68:     }
  8643   003994  EFDB  F01C         	goto	i2l267
  8644   003998                     i2l4189:
  8645                           
  8646                           ;MCAL_Layer/EEPROM/hal_eeprom.c: 71:         EEADRH = (uint8)((adr >> 8) & 0x03);
  8647   003998  5002               	movf	(i2Data_EEPROM_ReadByte@adr+1)^0,w,c
  8648   00399A  0B03               	andlw	3
  8649   00399C  6EAA               	movwf	170,c	;volatile
  8650   00399E                     
  8651                           ;MCAL_Layer/EEPROM/hal_eeprom.c: 72:         EEADR = (uint8)(adr & 0xFF);
  8652   00399E  C001  FFA9         	movff	i2Data_EEPROM_ReadByte@adr,4009	;volatile
  8653   0039A2                     
  8654                           ;MCAL_Layer/EEPROM/hal_eeprom.c: 75:         EECON1bits.EEPGD = 0;
  8655   0039A2  9EA6               	bcf	166,7,c	;volsfr
  8656   0039A4                     
  8657                           ;MCAL_Layer/EEPROM/hal_eeprom.c: 76:         EECON1bits.CFGS = 0;
  8658   0039A4  9CA6               	bcf	166,6,c	;volsfr
  8659   0039A6                     
  8660                           ;MCAL_Layer/EEPROM/hal_eeprom.c: 79:         EECON1bits.RD = 1;
  8661   0039A6  80A6               	bsf	166,0,c	;volsfr
  8662   0039A8                     
  8663                           ;MCAL_Layer/EEPROM/hal_eeprom.c: 81:         __nop();
  8664   0039A8  0000               	nop	
  8665   0039AA                     
  8666                           ;MCAL_Layer/EEPROM/hal_eeprom.c: 82:         __nop();
  8667   0039AA  0000               	nop	
  8668   0039AC                     
  8669                           ;MCAL_Layer/EEPROM/hal_eeprom.c: 85:         *data = EEDATA;
  8670   0039AC  5003               	movf	i2Data_EEPROM_ReadByte@data^0,w,c
  8671   0039AE  6ED9               	movwf	fsr2l,c
  8672   0039B0  6ADA               	clrf	fsr2h,c
  8673   0039B2  CFA8 FFDF          	movff	4008,indf2	;volatile
  8674   0039B6                     i2l267:
  8675   0039B6  0012               	return		;funcret
  8676   0039B8                     __end_ofi2_Data_EEPROM_ReadByte:
  8677                           	callstack 0
  8678                           
  8679 ;; *************** function i2_lcd_4bit_send_string_pos *****************
  8680 ;; Defined at:
  8681 ;;		line 154 in file "ECU_Layer/LCD/ecu_lcd.c"
  8682 ;; Parameters:    Size  Location     Type
  8683 ;;  lcd             1   20[COMRAM] PTR const struct .
  8684 ;;		 -> lcd(6), 
  8685 ;;  str             2   21[COMRAM] PTR unsigned char 
  8686 ;;		 -> STR_15(16), STR_14(16), STR_13(16), STR_12(16), 
  8687 ;;		 -> STR_11(3), STR_10(3), STR_9(3), STR_8(3), 
  8688 ;;		 -> can_D_str(6), can_C_str(6), can_B_str(6), can_A_str(6), 
  8689 ;;		 -> STR_7(16), STR_6(4), STR_5(8), STR_4(8), 
  8690 ;;  row             1   23[COMRAM] unsigned char 
  8691 ;;  column          1   24[COMRAM] unsigned char 
  8692 ;; Auto vars:     Size  Location     Type
  8693 ;;  ret             1   25[COMRAM] unsigned char 
  8694 ;; Return value:  Size  Location     Type
  8695 ;;                  1    wreg      unsigned char 
  8696 ;; Registers used:
  8697 ;;		wreg, fsr0l, fsr0h, fsr2l, fsr2h, status,2, status,0, tblptrl, tblptrh, tblptru, prodl, prodh, cstack
  8698 ;; Tracked objects:
  8699 ;;		On entry : 0/0
  8700 ;;		On exit  : 0/0
  8701 ;;		Unchanged: 0/0
  8702 ;; Data sizes:     COMRAM   BANK0   BANK1   BANK2   BANK3   BANK4   BANK5   BANK6   BANK7   BANK8   BANK9  BANK10  BANK1
      +1  BANK12  BANK13  BANK14  BANK15
  8703 ;;      Params:         5       0       0       0       0       0       0       0       0       0       0       0       
      +0       0       0       0       0
  8704 ;;      Locals:         1       0       0       0       0       0       0       0       0       0       0       0       
      +0       0       0       0       0
  8705 ;;      Temps:          0       0       0       0       0       0       0       0       0       0       0       0       
      +0       0       0       0       0
  8706 ;;      Totals:         6       0       0       0       0       0       0       0       0       0       0       0       
      +0       0       0       0       0
  8707 ;;Total ram usage:        6 bytes
  8708 ;; Hardware stack levels used: 1
  8709 ;; Hardware stack levels required when called: 4
  8710 ;; This function calls:
  8711 ;;		i2_lcd_4bit_send_char_data
  8712 ;;		i2_lcd_4bit_set_cursor
  8713 ;; This function is called by:
  8714 ;;		i2_display
  8715 ;;		i2_winner
  8716 ;; This function uses a non-reentrant model
  8717 ;;
  8718                           
  8719                           	psect	text54
  8720   0029DA                     __ptext54:
  8721                           	callstack 0
  8722   0029DA                     i2_lcd_4bit_send_string_pos:
  8723                           	callstack 15
  8724   0029DA                     
  8725                           ;ECU_Layer/LCD/ecu_lcd.c: 157:     if ((lcd == ((void*)0)) || (str == ((void*)0))){
  8726   0029DA  5015               	movf	i2lcd_4bit_send_string_pos@lcd^0,w,c
  8727   0029DC  B4D8               	btfsc	status,2,c
  8728   0029DE  EFF3  F014         	goto	i2u573_41
  8729   0029E2  EFF5  F014         	goto	i2u573_40
  8730   0029E6                     i2u573_41:
  8731   0029E6  EFFE  F014         	goto	i2l6081
  8732   0029EA                     i2u573_40:
  8733   0029EA  5016               	movf	i2lcd_4bit_send_string_pos@str^0,w,c
  8734   0029EC  1017               	iorwf	(i2lcd_4bit_send_string_pos@str+1)^0,w,c
  8735   0029EE  A4D8               	btfss	status,2,c
  8736   0029F0  EFFC  F014         	goto	i2u574_41
  8737   0029F4  EFFE  F014         	goto	i2u574_40
  8738   0029F8                     i2u574_41:
  8739   0029F8  EF02  F015         	goto	i2l6083
  8740   0029FC                     i2u574_40:
  8741   0029FC                     i2l6081:
  8742                           
  8743                           ;ECU_Layer/LCD/ecu_lcd.c: 158:         ret = (Std_ReturnType)0x00;
  8744   0029FC  0E00               	movlw	0
  8745   0029FE  6E1A               	movwf	i2lcd_4bit_send_string_pos@ret^0,c
  8746                           
  8747                           ;ECU_Layer/LCD/ecu_lcd.c: 159:     }
  8748   002A00  EF3F  F015         	goto	i2l87
  8749   002A04                     i2l6083:
  8750   002A04  C015  F011         	movff	i2lcd_4bit_send_string_pos@lcd,i2lcd_4bit_set_cursor@lcd
  8751   002A08  C018  F012         	movff	i2lcd_4bit_send_string_pos@row,i2lcd_4bit_set_cursor@row
  8752   002A0C  C019  F013         	movff	i2lcd_4bit_send_string_pos@column,i2lcd_4bit_set_cursor@column
  8753   002A10  EC7E  F016         	call	i2_lcd_4bit_set_cursor	;wreg free
  8754                           
  8755                           ;ECU_Layer/LCD/ecu_lcd.c: 162:         while(*str){
  8756   002A14  EF24  F015         	goto	i2l6089
  8757   002A18                     i2l6085:
  8758   002A18  C015  F00E         	movff	i2lcd_4bit_send_string_pos@lcd,i2lcd_4bit_send_char_data@lcd
  8759   002A1C  C016  FFF6         	movff	i2lcd_4bit_send_string_pos@str,tblptrl
  8760   002A20  C017  FFF7         	movff	i2lcd_4bit_send_string_pos@str+1,tblptrh
  8761   002A24  0E00               	movlw	low (__smallconst shr (0+16))
  8762   002A26  6EF8               	movwf	tblptru,c
  8763   002A28  0E0F               	movlw	(high __ramtop+-1)
  8764   002A2A  64F7               	cpfsgt	tblptrh,c
  8765   002A2C  D003               	bra	i2u575_47
  8766   002A2E  0008               	tblrd		*
  8767   002A30  50F5               	movf	tablat,w,c
  8768   002A32  D005               	bra	i2u575_40
  8769   002A34                     i2u575_47:
  8770   002A34  CFF6 FFE9          	movff	tblptrl,fsr0l
  8771   002A38  CFF7 FFEA          	movff	tblptrh,fsr0h
  8772   002A3C  50EF               	movf	indf0,w,c
  8773   002A3E                     i2u575_40:
  8774   002A3E  6E0F               	movwf	i2lcd_4bit_send_char_data@data^0,c
  8775   002A40  EC1E  F01A         	call	i2_lcd_4bit_send_char_data	;wreg free
  8776   002A44  4A16               	infsnz	i2lcd_4bit_send_string_pos@str^0,f,c
  8777   002A46  2A17               	incf	(i2lcd_4bit_send_string_pos@str+1)^0,f,c
  8778   002A48                     i2l6089:
  8779                           
  8780                           ;ECU_Layer/LCD/ecu_lcd.c: 162:         while(*str){
  8781   002A48  C016  FFF6         	movff	i2lcd_4bit_send_string_pos@str,tblptrl
  8782   002A4C  C017  FFF7         	movff	i2lcd_4bit_send_string_pos@str+1,tblptrh
  8783   002A50  0E00               	movlw	low (__smallconst shr (0+16))
  8784   002A52  6EF8               	movwf	tblptru,c
  8785   002A54  0E0F               	movlw	(high __ramtop+-1)
  8786   002A56  64F7               	cpfsgt	tblptrh,c
  8787   002A58  D003               	bra	i2u576_47
  8788   002A5A  0008               	tblrd		*
  8789   002A5C  50F5               	movf	tablat,w,c
  8790   002A5E  D005               	bra	i2u576_40
  8791   002A60                     i2u576_47:
  8792   002A60  CFF6 FFE9          	movff	tblptrl,fsr0l
  8793   002A64  CFF7 FFEA          	movff	tblptrh,fsr0h
  8794   002A68  50EF               	movf	indf0,w,c
  8795   002A6A                     i2u576_40:
  8796   002A6A  0900               	iorlw	0
  8797   002A6C  A4D8               	btfss	status,2,c
  8798   002A6E  EF3B  F015         	goto	i2u577_41
  8799   002A72  EF3D  F015         	goto	i2u577_40
  8800   002A76                     i2u577_41:
  8801   002A76  EF0C  F015         	goto	i2l6085
  8802   002A7A                     i2u577_40:
  8803   002A7A                     
  8804                           ;ECU_Layer/LCD/ecu_lcd.c: 165:         ret = (Std_ReturnType)0x01;
  8805   002A7A  0E01               	movlw	1
  8806   002A7C  6E1A               	movwf	i2lcd_4bit_send_string_pos@ret^0,c
  8807   002A7E                     i2l87:
  8808                           
  8809                           ;ECU_Layer/LCD/ecu_lcd.c: 168:     return ret;
  8810   002A7E  501A               	movf	i2lcd_4bit_send_string_pos@ret^0,w,c
  8811   002A80  0012               	return		;funcret
  8812   002A82                     __end_ofi2_lcd_4bit_send_string_pos:
  8813                           	callstack 0
  8814                           
  8815 ;; *************** function i2_lcd_4bit_set_cursor *****************
  8816 ;; Defined at:
  8817 ;;		line 437 in file "ECU_Layer/LCD/ecu_lcd.c"
  8818 ;; Parameters:    Size  Location     Type
  8819 ;;  lcd             1   16[COMRAM] PTR const struct .
  8820 ;;		 -> lcd(6), 
  8821 ;;  row             1   17[COMRAM] unsigned char 
  8822 ;;  column          1   18[COMRAM] unsigned char 
  8823 ;; Auto vars:     Size  Location     Type
  8824 ;;  ret             1   19[COMRAM] unsigned char 
  8825 ;; Return value:  Size  Location     Type
  8826 ;;                  1    wreg      unsigned char 
  8827 ;; Registers used:
  8828 ;;		wreg, fsr2l, fsr2h, status,2, status,0, prodl, prodh, cstack
  8829 ;; Tracked objects:
  8830 ;;		On entry : 0/0
  8831 ;;		On exit  : 0/0
  8832 ;;		Unchanged: 0/0
  8833 ;; Data sizes:     COMRAM   BANK0   BANK1   BANK2   BANK3   BANK4   BANK5   BANK6   BANK7   BANK8   BANK9  BANK10  BANK1
      +1  BANK12  BANK13  BANK14  BANK15
  8834 ;;      Params:         3       0       0       0       0       0       0       0       0       0       0       0       
      +0       0       0       0       0
  8835 ;;      Locals:         1       0       0       0       0       0       0       0       0       0       0       0       
      +0       0       0       0       0
  8836 ;;      Temps:          0       0       0       0       0       0       0       0       0       0       0       0       
      +0       0       0       0       0
  8837 ;;      Totals:         4       0       0       0       0       0       0       0       0       0       0       0       
      +0       0       0       0       0
  8838 ;;Total ram usage:        4 bytes
  8839 ;; Hardware stack levels used: 1
  8840 ;; Hardware stack levels required when called: 3
  8841 ;; This function calls:
  8842 ;;		i2_lcd_4bit_send_command
  8843 ;; This function is called by:
  8844 ;;		i2_lcd_4bit_send_string_pos
  8845 ;; This function uses a non-reentrant model
  8846 ;;
  8847                           
  8848                           	psect	text55
  8849   002CFC                     __ptext55:
  8850                           	callstack 0
  8851   002CFC                     i2_lcd_4bit_set_cursor:
  8852                           	callstack 15
  8853   002CFC                     
  8854                           ;ECU_Layer/LCD/ecu_lcd.c: 440:     if (lcd == ((void*)0)){
  8855   002CFC  5011               	movf	i2lcd_4bit_set_cursor@lcd^0,w,c
  8856   002CFE  A4D8               	btfss	status,2,c
  8857   002D00  EF84  F016         	goto	i2u569_41
  8858   002D04  EF86  F016         	goto	i2u569_40
  8859   002D08                     i2u569_41:
  8860   002D08  EF8A  F016         	goto	i2l6033
  8861   002D0C                     i2u569_40:
  8862   002D0C                     
  8863                           ;ECU_Layer/LCD/ecu_lcd.c: 441:         ret = (Std_ReturnType)0x00;
  8864   002D0C  0E00               	movlw	0
  8865   002D0E  6E14               	movwf	i2lcd_4bit_set_cursor@ret^0,c
  8866                           
  8867                           ;ECU_Layer/LCD/ecu_lcd.c: 442:     }
  8868   002D10  EFC6  F016         	goto	i2l167
  8869   002D14                     i2l6033:
  8870                           
  8871                           ;ECU_Layer/LCD/ecu_lcd.c: 444:         column--;
  8872   002D14  0613               	decf	i2lcd_4bit_set_cursor@column^0,f,c
  8873                           
  8874                           ;ECU_Layer/LCD/ecu_lcd.c: 445:         switch(row){
  8875   002D16  EFB1  F016         	goto	i2l6043
  8876   002D1A                     i2l6035:
  8877   002D1A  C011  F00E         	movff	i2lcd_4bit_set_cursor@lcd,i2lcd_4bit_send_command@lcd
  8878   002D1E  5013               	movf	i2lcd_4bit_set_cursor@column^0,w,c
  8879   002D20  0F80               	addlw	128
  8880   002D22  6E0F               	movwf	i2lcd_4bit_send_command@command^0,c
  8881   002D24  ECED  F019         	call	i2_lcd_4bit_send_command	;wreg free
  8882   002D28  EFC4  F016         	goto	i2l6045
  8883   002D2C                     i2l6037:
  8884   002D2C  C011  F00E         	movff	i2lcd_4bit_set_cursor@lcd,i2lcd_4bit_send_command@lcd
  8885   002D30  5013               	movf	i2lcd_4bit_set_cursor@column^0,w,c
  8886   002D32  0FC0               	addlw	192
  8887   002D34  6E0F               	movwf	i2lcd_4bit_send_command@command^0,c
  8888   002D36  ECED  F019         	call	i2_lcd_4bit_send_command	;wreg free
  8889   002D3A  EFC4  F016         	goto	i2l6045
  8890   002D3E                     i2l6039:
  8891   002D3E  C011  F00E         	movff	i2lcd_4bit_set_cursor@lcd,i2lcd_4bit_send_command@lcd
  8892   002D42  5013               	movf	i2lcd_4bit_set_cursor@column^0,w,c
  8893   002D44  0F94               	addlw	148
  8894   002D46  6E0F               	movwf	i2lcd_4bit_send_command@command^0,c
  8895   002D48  ECED  F019         	call	i2_lcd_4bit_send_command	;wreg free
  8896   002D4C  EFC4  F016         	goto	i2l6045
  8897   002D50                     i2l6041:
  8898   002D50  C011  F00E         	movff	i2lcd_4bit_set_cursor@lcd,i2lcd_4bit_send_command@lcd
  8899   002D54  5013               	movf	i2lcd_4bit_set_cursor@column^0,w,c
  8900   002D56  0FD4               	addlw	212
  8901   002D58  6E0F               	movwf	i2lcd_4bit_send_command@command^0,c
  8902   002D5A  ECED  F019         	call	i2_lcd_4bit_send_command	;wreg free
  8903   002D5E  EFC4  F016         	goto	i2l6045
  8904   002D62                     i2l6043:
  8905   002D62  5012               	movf	i2lcd_4bit_set_cursor@row^0,w,c
  8906                           
  8907                           ; Switch size 1, requested type "simple"
  8908                           ; Number of cases is 4, Range of values is 1 to 4
  8909                           ; switch strategies available:
  8910                           ; Name         Instructions Cycles
  8911                           ; simple_byte           13     7 (average)
  8912                           ;	Chosen strategy is simple_byte
  8913   002D64  0A01               	xorlw	1	; case 1
  8914   002D66  B4D8               	btfsc	status,2,c
  8915   002D68  EF8D  F016         	goto	i2l6035
  8916   002D6C  0A03               	xorlw	3	; case 2
  8917   002D6E  B4D8               	btfsc	status,2,c
  8918   002D70  EF96  F016         	goto	i2l6037
  8919   002D74  0A01               	xorlw	1	; case 3
  8920   002D76  B4D8               	btfsc	status,2,c
  8921   002D78  EF9F  F016         	goto	i2l6039
  8922   002D7C  0A07               	xorlw	7	; case 4
  8923   002D7E  B4D8               	btfsc	status,2,c
  8924   002D80  EFA8  F016         	goto	i2l6041
  8925   002D84  EFC4  F016         	goto	i2l6045
  8926   002D88                     i2l6045:
  8927                           
  8928                           ;ECU_Layer/LCD/ecu_lcd.c: 452:         ret = (Std_ReturnType)0x01;
  8929   002D88  0E01               	movlw	1
  8930   002D8A  6E14               	movwf	i2lcd_4bit_set_cursor@ret^0,c
  8931   002D8C                     i2l167:
  8932                           
  8933                           ;ECU_Layer/LCD/ecu_lcd.c: 455:     return ret;
  8934   002D8C  5014               	movf	i2lcd_4bit_set_cursor@ret^0,w,c
  8935   002D8E  0012               	return		;funcret
  8936   002D90                     __end_ofi2_lcd_4bit_set_cursor:
  8937                           	callstack 0
  8938                           
  8939 ;; *************** function i2_lcd_4bit_send_command *****************
  8940 ;; Defined at:
  8941 ;;		line 59 in file "ECU_Layer/LCD/ecu_lcd.c"
  8942 ;; Parameters:    Size  Location     Type
  8943 ;;  lcd             1   13[COMRAM] PTR const struct .
  8944 ;;		 -> lcd(6), 
  8945 ;;  command         1   14[COMRAM] unsigned char 
  8946 ;; Auto vars:     Size  Location     Type
  8947 ;;  ret             1   15[COMRAM] unsigned char 
  8948 ;; Return value:  Size  Location     Type
  8949 ;;                  1    wreg      unsigned char 
  8950 ;; Registers used:
  8951 ;;		wreg, fsr2l, fsr2h, status,2, status,0, prodl, prodh, cstack
  8952 ;; Tracked objects:
  8953 ;;		On entry : 0/0
  8954 ;;		On exit  : 0/0
  8955 ;;		Unchanged: 0/0
  8956 ;; Data sizes:     COMRAM   BANK0   BANK1   BANK2   BANK3   BANK4   BANK5   BANK6   BANK7   BANK8   BANK9  BANK10  BANK1
      +1  BANK12  BANK13  BANK14  BANK15
  8957 ;;      Params:         2       0       0       0       0       0       0       0       0       0       0       0       
      +0       0       0       0       0
  8958 ;;      Locals:         1       0       0       0       0       0       0       0       0       0       0       0       
      +0       0       0       0       0
  8959 ;;      Temps:          0       0       0       0       0       0       0       0       0       0       0       0       
      +0       0       0       0       0
  8960 ;;      Totals:         3       0       0       0       0       0       0       0       0       0       0       0       
      +0       0       0       0       0
  8961 ;;Total ram usage:        3 bytes
  8962 ;; Hardware stack levels used: 1
  8963 ;; Hardware stack levels required when called: 2
  8964 ;; This function calls:
  8965 ;;		i2_gpio_pin_write_logic
  8966 ;;		i2_lcd_4bit_enable_signal
  8967 ;;		i2_lcd_send_4bits
  8968 ;; This function is called by:
  8969 ;;		_RB5_LOW_APP_ISR
  8970 ;;		_RB6_HIGH_APP_ISR
  8971 ;;		i2_lcd_4bit_set_cursor
  8972 ;;		i2_display
  8973 ;;		i2_winner
  8974 ;; This function uses a non-reentrant model
  8975 ;;
  8976                           
  8977                           	psect	text56
  8978   0033DA                     __ptext56:
  8979                           	callstack 0
  8980   0033DA                     i2_lcd_4bit_send_command:
  8981                           	callstack 15
  8982   0033DA                     
  8983                           ;ECU_Layer/LCD/ecu_lcd.c: 62:     if (lcd == ((void*)0)){
  8984   0033DA  500E               	movf	i2lcd_4bit_send_command@lcd^0,w,c
  8985   0033DC  A4D8               	btfss	status,2,c
  8986   0033DE  EFF3  F019         	goto	i2u560_41
  8987   0033E2  EFF5  F019         	goto	i2u560_40
  8988   0033E6                     i2u560_41:
  8989   0033E6  EFF9  F019         	goto	i2l5957
  8990   0033EA                     i2u560_40:
  8991   0033EA                     
  8992                           ;ECU_Layer/LCD/ecu_lcd.c: 63:         ret = (Std_ReturnType)0x00;
  8993   0033EA  0E00               	movlw	0
  8994   0033EC  6E10               	movwf	i2lcd_4bit_send_command@ret^0,c
  8995                           
  8996                           ;ECU_Layer/LCD/ecu_lcd.c: 64:     }
  8997   0033EE  EF1C  F01A         	goto	i2l5961
  8998   0033F2                     i2l5957:
  8999                           
  9000                           ;ECU_Layer/LCD/ecu_lcd.c: 66:         ret = gpio_pin_write_logic(&(lcd->lcd_rs), GPIO_LO
      +                          W);
  9001   0033F2  C00E  F001         	movff	i2lcd_4bit_send_command@lcd,i2gpio_pin_write_logic@pin_config
  9002   0033F6  6A02               	clrf	(i2gpio_pin_write_logic@pin_config+1)^0,c
  9003   0033F8  0E00               	movlw	0
  9004   0033FA  6E03               	movwf	i2gpio_pin_write_logic@logic^0,c
  9005   0033FC  EC04  F011         	call	i2_gpio_pin_write_logic	;wreg free
  9006   003400  6E10               	movwf	i2lcd_4bit_send_command@ret^0,c
  9007                           
  9008                           ;ECU_Layer/LCD/ecu_lcd.c: 67:         ret = lcd_send_4bits(lcd, (command >> 4));
  9009   003402  C00E  F00A         	movff	i2lcd_4bit_send_command@lcd,i2lcd_send_4bits@lcd
  9010   003406  380F               	swapf	i2lcd_4bit_send_command@command^0,w,c
  9011   003408  0B0F               	andlw	15
  9012   00340A  6E0B               	movwf	i2lcd_send_4bits@data^0,c
  9013   00340C  ECC8  F016         	call	i2_lcd_send_4bits	;wreg free
  9014   003410  6E10               	movwf	i2lcd_4bit_send_command@ret^0,c
  9015                           
  9016                           ;ECU_Layer/LCD/ecu_lcd.c: 68:         ret = lcd_4bit_enable_signal(lcd);
  9017   003412  C00E  F00A         	movff	i2lcd_4bit_send_command@lcd,i2lcd_4bit_enable_signal@lcd
  9018   003416  EC02  F01B         	call	i2_lcd_4bit_enable_signal	;wreg free
  9019   00341A  6E10               	movwf	i2lcd_4bit_send_command@ret^0,c
  9020                           
  9021                           ;ECU_Layer/LCD/ecu_lcd.c: 69:         ret = lcd_send_4bits(lcd, command);
  9022   00341C  C00E  F00A         	movff	i2lcd_4bit_send_command@lcd,i2lcd_send_4bits@lcd
  9023   003420  C00F  F00B         	movff	i2lcd_4bit_send_command@command,i2lcd_send_4bits@data
  9024   003424  ECC8  F016         	call	i2_lcd_send_4bits	;wreg free
  9025   003428  6E10               	movwf	i2lcd_4bit_send_command@ret^0,c
  9026                           
  9027                           ;ECU_Layer/LCD/ecu_lcd.c: 70:         ret = lcd_4bit_enable_signal(lcd);
  9028   00342A  C00E  F00A         	movff	i2lcd_4bit_send_command@lcd,i2lcd_4bit_enable_signal@lcd
  9029   00342E  EC02  F01B         	call	i2_lcd_4bit_enable_signal	;wreg free
  9030   003432  6E10               	movwf	i2lcd_4bit_send_command@ret^0,c
  9031   003434                     
  9032                           ;ECU_Layer/LCD/ecu_lcd.c: 71:         ret = (Std_ReturnType)0x01;
  9033   003434  0E01               	movlw	1
  9034   003436  6E10               	movwf	i2lcd_4bit_send_command@ret^0,c
  9035   003438                     i2l5961:
  9036                           
  9037                           ;ECU_Layer/LCD/ecu_lcd.c: 74:     return ret;
  9038   003438  5010               	movf	i2lcd_4bit_send_command@ret^0,w,c
  9039   00343A  0012               	return		;funcret
  9040   00343C                     __end_ofi2_lcd_4bit_send_command:
  9041                           	callstack 0
  9042                           
  9043 ;; *************** function i2_lcd_4bit_send_char_data *****************
  9044 ;; Defined at:
  9045 ;;		line 83 in file "ECU_Layer/LCD/ecu_lcd.c"
  9046 ;; Parameters:    Size  Location     Type
  9047 ;;  lcd             1   13[COMRAM] PTR const struct .
  9048 ;;		 -> lcd(6), 
  9049 ;;  data            1   14[COMRAM] unsigned char 
  9050 ;; Auto vars:     Size  Location     Type
  9051 ;;  ret             1   15[COMRAM] unsigned char 
  9052 ;; Return value:  Size  Location     Type
  9053 ;;                  1    wreg      unsigned char 
  9054 ;; Registers used:
  9055 ;;		wreg, fsr2l, fsr2h, status,2, status,0, prodl, prodh, cstack
  9056 ;; Tracked objects:
  9057 ;;		On entry : 0/0
  9058 ;;		On exit  : 0/0
  9059 ;;		Unchanged: 0/0
  9060 ;; Data sizes:     COMRAM   BANK0   BANK1   BANK2   BANK3   BANK4   BANK5   BANK6   BANK7   BANK8   BANK9  BANK10  BANK1
      +1  BANK12  BANK13  BANK14  BANK15
  9061 ;;      Params:         2       0       0       0       0       0       0       0       0       0       0       0       
      +0       0       0       0       0
  9062 ;;      Locals:         1       0       0       0       0       0       0       0       0       0       0       0       
      +0       0       0       0       0
  9063 ;;      Temps:          0       0       0       0       0       0       0       0       0       0       0       0       
      +0       0       0       0       0
  9064 ;;      Totals:         3       0       0       0       0       0       0       0       0       0       0       0       
      +0       0       0       0       0
  9065 ;;Total ram usage:        3 bytes
  9066 ;; Hardware stack levels used: 1
  9067 ;; Hardware stack levels required when called: 2
  9068 ;; This function calls:
  9069 ;;		i2_gpio_pin_write_logic
  9070 ;;		i2_lcd_4bit_enable_signal
  9071 ;;		i2_lcd_send_4bits
  9072 ;; This function is called by:
  9073 ;;		i2_lcd_4bit_send_string_pos
  9074 ;; This function uses a non-reentrant model
  9075 ;;
  9076                           
  9077                           	psect	text57
  9078   00343C                     __ptext57:
  9079                           	callstack 0
  9080   00343C                     i2_lcd_4bit_send_char_data:
  9081                           	callstack 16
  9082   00343C                     
  9083                           ;ECU_Layer/LCD/ecu_lcd.c: 86:     if (lcd == ((void*)0)){
  9084   00343C  500E               	movf	i2lcd_4bit_send_char_data@lcd^0,w,c
  9085   00343E  A4D8               	btfss	status,2,c
  9086   003440  EF24  F01A         	goto	i2u568_41
  9087   003444  EF26  F01A         	goto	i2u568_40
  9088   003448                     i2u568_41:
  9089   003448  EF2A  F01A         	goto	i2l6021
  9090   00344C                     i2u568_40:
  9091   00344C                     
  9092                           ;ECU_Layer/LCD/ecu_lcd.c: 87:         ret = (Std_ReturnType)0x00;
  9093   00344C  0E00               	movlw	0
  9094   00344E  6E10               	movwf	i2lcd_4bit_send_char_data@ret^0,c
  9095                           
  9096                           ;ECU_Layer/LCD/ecu_lcd.c: 88:     }
  9097   003450  EF4D  F01A         	goto	i2l6025
  9098   003454                     i2l6021:
  9099                           
  9100                           ;ECU_Layer/LCD/ecu_lcd.c: 90:         ret = gpio_pin_write_logic(&(lcd->lcd_rs), GPIO_HI
      +                          GH);
  9101   003454  C00E  F001         	movff	i2lcd_4bit_send_char_data@lcd,i2gpio_pin_write_logic@pin_config
  9102   003458  6A02               	clrf	(i2gpio_pin_write_logic@pin_config+1)^0,c
  9103   00345A  0E01               	movlw	1
  9104   00345C  6E03               	movwf	i2gpio_pin_write_logic@logic^0,c
  9105   00345E  EC04  F011         	call	i2_gpio_pin_write_logic	;wreg free
  9106   003462  6E10               	movwf	i2lcd_4bit_send_char_data@ret^0,c
  9107                           
  9108                           ;ECU_Layer/LCD/ecu_lcd.c: 91:         ret = lcd_send_4bits(lcd, (data >> 4));
  9109   003464  C00E  F00A         	movff	i2lcd_4bit_send_char_data@lcd,i2lcd_send_4bits@lcd
  9110   003468  380F               	swapf	i2lcd_4bit_send_char_data@data^0,w,c
  9111   00346A  0B0F               	andlw	15
  9112   00346C  6E0B               	movwf	i2lcd_send_4bits@data^0,c
  9113   00346E  ECC8  F016         	call	i2_lcd_send_4bits	;wreg free
  9114   003472  6E10               	movwf	i2lcd_4bit_send_char_data@ret^0,c
  9115                           
  9116                           ;ECU_Layer/LCD/ecu_lcd.c: 92:         ret = lcd_4bit_enable_signal(lcd);
  9117   003474  C00E  F00A         	movff	i2lcd_4bit_send_char_data@lcd,i2lcd_4bit_enable_signal@lcd
  9118   003478  EC02  F01B         	call	i2_lcd_4bit_enable_signal	;wreg free
  9119   00347C  6E10               	movwf	i2lcd_4bit_send_char_data@ret^0,c
  9120                           
  9121                           ;ECU_Layer/LCD/ecu_lcd.c: 93:         ret = lcd_send_4bits(lcd, data);
  9122   00347E  C00E  F00A         	movff	i2lcd_4bit_send_char_data@lcd,i2lcd_send_4bits@lcd
  9123   003482  C00F  F00B         	movff	i2lcd_4bit_send_char_data@data,i2lcd_send_4bits@data
  9124   003486  ECC8  F016         	call	i2_lcd_send_4bits	;wreg free
  9125   00348A  6E10               	movwf	i2lcd_4bit_send_char_data@ret^0,c
  9126                           
  9127                           ;ECU_Layer/LCD/ecu_lcd.c: 94:         ret = lcd_4bit_enable_signal(lcd);
  9128   00348C  C00E  F00A         	movff	i2lcd_4bit_send_char_data@lcd,i2lcd_4bit_enable_signal@lcd
  9129   003490  EC02  F01B         	call	i2_lcd_4bit_enable_signal	;wreg free
  9130   003494  6E10               	movwf	i2lcd_4bit_send_char_data@ret^0,c
  9131   003496                     
  9132                           ;ECU_Layer/LCD/ecu_lcd.c: 95:         ret = (Std_ReturnType)0x01;
  9133   003496  0E01               	movlw	1
  9134   003498  6E10               	movwf	i2lcd_4bit_send_char_data@ret^0,c
  9135   00349A                     i2l6025:
  9136                           
  9137                           ;ECU_Layer/LCD/ecu_lcd.c: 98:     return ret;
  9138   00349A  5010               	movf	i2lcd_4bit_send_char_data@ret^0,w,c
  9139   00349C  0012               	return		;funcret
  9140   00349E                     __end_ofi2_lcd_4bit_send_char_data:
  9141                           	callstack 0
  9142                           
  9143 ;; *************** function i2_lcd_send_4bits *****************
  9144 ;; Defined at:
  9145 ;;		line 388 in file "ECU_Layer/LCD/ecu_lcd.c"
  9146 ;; Parameters:    Size  Location     Type
  9147 ;;  lcd             1    9[COMRAM] PTR const struct .
  9148 ;;		 -> lcd(6), 
  9149 ;;  data            1   10[COMRAM] unsigned char 
  9150 ;; Auto vars:     Size  Location     Type
  9151 ;;  ret             1   12[COMRAM] unsigned char 
  9152 ;; Return value:  Size  Location     Type
  9153 ;;                  1    wreg      unsigned char 
  9154 ;; Registers used:
  9155 ;;		wreg, fsr2l, fsr2h, status,2, status,0, prodl, prodh, cstack
  9156 ;; Tracked objects:
  9157 ;;		On entry : 0/0
  9158 ;;		On exit  : 0/0
  9159 ;;		Unchanged: 0/0
  9160 ;; Data sizes:     COMRAM   BANK0   BANK1   BANK2   BANK3   BANK4   BANK5   BANK6   BANK7   BANK8   BANK9  BANK10  BANK1
      +1  BANK12  BANK13  BANK14  BANK15
  9161 ;;      Params:         2       0       0       0       0       0       0       0       0       0       0       0       
      +0       0       0       0       0
  9162 ;;      Locals:         1       0       0       0       0       0       0       0       0       0       0       0       
      +0       0       0       0       0
  9163 ;;      Temps:          1       0       0       0       0       0       0       0       0       0       0       0       
      +0       0       0       0       0
  9164 ;;      Totals:         4       0       0       0       0       0       0       0       0       0       0       0       
      +0       0       0       0       0
  9165 ;;Total ram usage:        4 bytes
  9166 ;; Hardware stack levels used: 1
  9167 ;; Hardware stack levels required when called: 1
  9168 ;; This function calls:
  9169 ;;		i2_gpio_pin_write_logic
  9170 ;; This function is called by:
  9171 ;;		i2_lcd_4bit_send_command
  9172 ;;		i2_lcd_4bit_send_char_data
  9173 ;; This function uses a non-reentrant model
  9174 ;;
  9175                           
  9176                           	psect	text58
  9177   002D90                     __ptext58:
  9178                           	callstack 0
  9179   002D90                     i2_lcd_send_4bits:
  9180                           	callstack 15
  9181   002D90                     
  9182                           ;ECU_Layer/LCD/ecu_lcd.c: 391:     if (lcd == ((void*)0)){
  9183   002D90  500A               	movf	i2lcd_send_4bits@lcd^0,w,c
  9184   002D92  A4D8               	btfss	status,2,c
  9185   002D94  EFCE  F016         	goto	i2u554_41
  9186   002D98  EFD0  F016         	goto	i2u554_40
  9187   002D9C                     i2u554_41:
  9188   002D9C  EFD4  F016         	goto	i2l5901
  9189   002DA0                     i2u554_40:
  9190   002DA0                     
  9191                           ;ECU_Layer/LCD/ecu_lcd.c: 392:         ret = (Std_ReturnType)0x00;
  9192   002DA0  0E00               	movlw	0
  9193   002DA2  6E0D               	movwf	i2lcd_send_4bits@ret^0,c
  9194                           
  9195                           ;ECU_Layer/LCD/ecu_lcd.c: 393:     }
  9196   002DA4  EF0F  F017         	goto	i2l5905
  9197   002DA8                     i2l5901:
  9198                           
  9199                           ;ECU_Layer/LCD/ecu_lcd.c: 395:         ret = gpio_pin_write_logic(&(lcd->lcd_data[0]), (
      +                          data >> 0) & (uint8)0x01);
  9200   002DA8  C00A  F00C         	movff	i2lcd_send_4bits@lcd,??i2_lcd_send_4bits
  9201   002DAC  0E02               	movlw	2
  9202   002DAE  260C               	addwf	??i2_lcd_send_4bits^0,f,c
  9203   002DB0  C00C  F001         	movff	??i2_lcd_send_4bits,i2gpio_pin_write_logic@pin_config
  9204   002DB4  6A02               	clrf	(i2gpio_pin_write_logic@pin_config+1)^0,c
  9205   002DB6  500B               	movf	i2lcd_send_4bits@data^0,w,c
  9206   002DB8  0B01               	andlw	1
  9207   002DBA  6E03               	movwf	i2gpio_pin_write_logic@logic^0,c
  9208   002DBC  EC04  F011         	call	i2_gpio_pin_write_logic	;wreg free
  9209   002DC0  6E0D               	movwf	i2lcd_send_4bits@ret^0,c
  9210                           
  9211                           ;ECU_Layer/LCD/ecu_lcd.c: 396:         ret = gpio_pin_write_logic(&(lcd->lcd_data[1]), (
      +                          data >> 1) & (uint8)0x01);
  9212   002DC2  C00A  F00C         	movff	i2lcd_send_4bits@lcd,??i2_lcd_send_4bits
  9213   002DC6  0E03               	movlw	3
  9214   002DC8  260C               	addwf	??i2_lcd_send_4bits^0,f,c
  9215   002DCA  C00C  F001         	movff	??i2_lcd_send_4bits,i2gpio_pin_write_logic@pin_config
  9216   002DCE  6A02               	clrf	(i2gpio_pin_write_logic@pin_config+1)^0,c
  9217   002DD0  90D8               	bcf	status,0,c
  9218   002DD2  300B               	rrcf	i2lcd_send_4bits@data^0,w,c
  9219   002DD4  0B01               	andlw	1
  9220   002DD6  6E03               	movwf	i2gpio_pin_write_logic@logic^0,c
  9221   002DD8  EC04  F011         	call	i2_gpio_pin_write_logic	;wreg free
  9222   002DDC  6E0D               	movwf	i2lcd_send_4bits@ret^0,c
  9223                           
  9224                           ;ECU_Layer/LCD/ecu_lcd.c: 397:         ret = gpio_pin_write_logic(&(lcd->lcd_data[2]), (
      +                          data >> 2) & (uint8)0x01);
  9225   002DDE  C00A  F00C         	movff	i2lcd_send_4bits@lcd,??i2_lcd_send_4bits
  9226   002DE2  0E04               	movlw	4
  9227   002DE4  260C               	addwf	??i2_lcd_send_4bits^0,f,c
  9228   002DE6  C00C  F001         	movff	??i2_lcd_send_4bits,i2gpio_pin_write_logic@pin_config
  9229   002DEA  6A02               	clrf	(i2gpio_pin_write_logic@pin_config+1)^0,c
  9230   002DEC  400B               	rrncf	i2lcd_send_4bits@data^0,w,c
  9231   002DEE  42E8               	rrncf	wreg,f,c
  9232   002DF0  0B3F               	andlw	63
  9233   002DF2  0B01               	andlw	1
  9234   002DF4  6E03               	movwf	i2gpio_pin_write_logic@logic^0,c
  9235   002DF6  EC04  F011         	call	i2_gpio_pin_write_logic	;wreg free
  9236   002DFA  6E0D               	movwf	i2lcd_send_4bits@ret^0,c
  9237                           
  9238                           ;ECU_Layer/LCD/ecu_lcd.c: 398:         ret = gpio_pin_write_logic(&(lcd->lcd_data[3]), (
      +                          data >> 3) & (uint8)0x01);
  9239   002DFC  C00A  F00C         	movff	i2lcd_send_4bits@lcd,??i2_lcd_send_4bits
  9240   002E00  0E05               	movlw	5
  9241   002E02  260C               	addwf	??i2_lcd_send_4bits^0,f,c
  9242   002E04  C00C  F001         	movff	??i2_lcd_send_4bits,i2gpio_pin_write_logic@pin_config
  9243   002E08  6A02               	clrf	(i2gpio_pin_write_logic@pin_config+1)^0,c
  9244   002E0A  380B               	swapf	i2lcd_send_4bits@data^0,w,c
  9245   002E0C  46E8               	rlncf	wreg,f,c
  9246   002E0E  0B1F               	andlw	31
  9247   002E10  0B01               	andlw	1
  9248   002E12  6E03               	movwf	i2gpio_pin_write_logic@logic^0,c
  9249   002E14  EC04  F011         	call	i2_gpio_pin_write_logic	;wreg free
  9250   002E18  6E0D               	movwf	i2lcd_send_4bits@ret^0,c
  9251   002E1A                     
  9252                           ;ECU_Layer/LCD/ecu_lcd.c: 399:         ret = (Std_ReturnType)0x01;
  9253   002E1A  0E01               	movlw	1
  9254   002E1C  6E0D               	movwf	i2lcd_send_4bits@ret^0,c
  9255   002E1E                     i2l5905:
  9256                           
  9257                           ;ECU_Layer/LCD/ecu_lcd.c: 402:     return ret;
  9258   002E1E  500D               	movf	i2lcd_send_4bits@ret^0,w,c
  9259   002E20  0012               	return		;funcret
  9260   002E22                     __end_ofi2_lcd_send_4bits:
  9261                           	callstack 0
  9262                           
  9263 ;; *************** function i2_lcd_4bit_enable_signal *****************
  9264 ;; Defined at:
  9265 ;;		line 405 in file "ECU_Layer/LCD/ecu_lcd.c"
  9266 ;; Parameters:    Size  Location     Type
  9267 ;;  lcd             1    9[COMRAM] PTR const struct .
  9268 ;;		 -> lcd(6), 
  9269 ;; Auto vars:     Size  Location     Type
  9270 ;;  ret             1   11[COMRAM] unsigned char 
  9271 ;; Return value:  Size  Location     Type
  9272 ;;                  1    wreg      unsigned char 
  9273 ;; Registers used:
  9274 ;;		wreg, fsr2l, fsr2h, status,2, status,0, prodl, prodh, cstack
  9275 ;; Tracked objects:
  9276 ;;		On entry : 0/0
  9277 ;;		On exit  : 0/0
  9278 ;;		Unchanged: 0/0
  9279 ;; Data sizes:     COMRAM   BANK0   BANK1   BANK2   BANK3   BANK4   BANK5   BANK6   BANK7   BANK8   BANK9  BANK10  BANK1
      +1  BANK12  BANK13  BANK14  BANK15
  9280 ;;      Params:         1       0       0       0       0       0       0       0       0       0       0       0       
      +0       0       0       0       0
  9281 ;;      Locals:         1       0       0       0       0       0       0       0       0       0       0       0       
      +0       0       0       0       0
  9282 ;;      Temps:          1       0       0       0       0       0       0       0       0       0       0       0       
      +0       0       0       0       0
  9283 ;;      Totals:         3       0       0       0       0       0       0       0       0       0       0       0       
      +0       0       0       0       0
  9284 ;;Total ram usage:        3 bytes
  9285 ;; Hardware stack levels used: 1
  9286 ;; Hardware stack levels required when called: 1
  9287 ;; This function calls:
  9288 ;;		i2_gpio_pin_write_logic
  9289 ;; This function is called by:
  9290 ;;		i2_lcd_4bit_send_command
  9291 ;;		i2_lcd_4bit_send_char_data
  9292 ;; This function uses a non-reentrant model
  9293 ;;
  9294                           
  9295                           	psect	text59
  9296   003604                     __ptext59:
  9297                           	callstack 0
  9298   003604                     i2_lcd_4bit_enable_signal:
  9299                           	callstack 15
  9300   003604                     
  9301                           ;ECU_Layer/LCD/ecu_lcd.c: 408:     if (lcd == ((void*)0)){
  9302   003604  500A               	movf	i2lcd_4bit_enable_signal@lcd^0,w,c
  9303   003606  A4D8               	btfss	status,2,c
  9304   003608  EF08  F01B         	goto	i2u555_41
  9305   00360C  EF0A  F01B         	goto	i2u555_40
  9306   003610                     i2u555_41:
  9307   003610  EF0E  F01B         	goto	i2l5913
  9308   003614                     i2u555_40:
  9309   003614                     
  9310                           ;ECU_Layer/LCD/ecu_lcd.c: 409:         ret = (Std_ReturnType)0x00;
  9311   003614  0E00               	movlw	0
  9312   003616  6E0C               	movwf	i2lcd_4bit_enable_signal@ret^0,c
  9313                           
  9314                           ;ECU_Layer/LCD/ecu_lcd.c: 410:     }
  9315   003618  EF29  F01B         	goto	i2l5919
  9316   00361C                     i2l5913:
  9317   00361C  C00A  F00B         	movff	i2lcd_4bit_enable_signal@lcd,??i2_lcd_4bit_enable_signal
  9318   003620  0E01               	movlw	1
  9319   003622  260B               	addwf	??i2_lcd_4bit_enable_signal^0,f,c
  9320   003624  C00B  F001         	movff	??i2_lcd_4bit_enable_signal,i2gpio_pin_write_logic@pin_config
  9321   003628  6A02               	clrf	(i2gpio_pin_write_logic@pin_config+1)^0,c
  9322   00362A  0E01               	movlw	1
  9323   00362C  6E03               	movwf	i2gpio_pin_write_logic@logic^0,c
  9324   00362E  EC04  F011         	call	i2_gpio_pin_write_logic	;wreg free
  9325   003632                     
  9326                           ;ECU_Layer/LCD/ecu_lcd.c: 413:         _delay((unsigned long)((5)*(4000000UL/4000000.0))
      +                          );
  9327   003632  D000               	nop2		;2 cycle nop
  9328   003634  D000               	nop2		;2 cycle nop
  9329   003636  0000               	nop	
  9330   003638  C00A  F00B         	movff	i2lcd_4bit_enable_signal@lcd,??i2_lcd_4bit_enable_signal
  9331   00363C  0E01               	movlw	1
  9332   00363E  260B               	addwf	??i2_lcd_4bit_enable_signal^0,f,c
  9333   003640  C00B  F001         	movff	??i2_lcd_4bit_enable_signal,i2gpio_pin_write_logic@pin_config
  9334   003644  6A02               	clrf	(i2gpio_pin_write_logic@pin_config+1)^0,c
  9335   003646  0E00               	movlw	0
  9336   003648  6E03               	movwf	i2gpio_pin_write_logic@logic^0,c
  9337   00364A  EC04  F011         	call	i2_gpio_pin_write_logic	;wreg free
  9338   00364E                     
  9339                           ;ECU_Layer/LCD/ecu_lcd.c: 415:         ret = (Std_ReturnType)0x01;
  9340   00364E  0E01               	movlw	1
  9341   003650  6E0C               	movwf	i2lcd_4bit_enable_signal@ret^0,c
  9342   003652                     i2l5919:
  9343                           
  9344                           ;ECU_Layer/LCD/ecu_lcd.c: 418:     return ret;
  9345   003652  500C               	movf	i2lcd_4bit_enable_signal@ret^0,w,c
  9346   003654  0012               	return		;funcret
  9347   003656                     __end_ofi2_lcd_4bit_enable_signal:
  9348                           	callstack 0
  9349                           
  9350 ;; *************** function i2_gpio_pin_write_logic *****************
  9351 ;; Defined at:
  9352 ;;		line 81 in file "MCAL_Layer/GPIO/hal_gpio.c"
  9353 ;; Parameters:    Size  Location     Type
  9354 ;;  pin_config      2    0[COMRAM] PTR const struct .
  9355 ;;		 -> int2_obj(6), int1_obj(6), int0_obj(6), lcd$lcd_data(4), 
  9356 ;;		 -> lcd(6), 
  9357 ;;  logic           1    2[COMRAM] enum E2986
  9358 ;; Auto vars:     Size  Location     Type
  9359 ;;  ret             1    8[COMRAM] unsigned char 
  9360 ;; Return value:  Size  Location     Type
  9361 ;;                  1    wreg      unsigned char 
  9362 ;; Registers used:
  9363 ;;		wreg, fsr2l, fsr2h, status,2, status,0, prodl, prodh
  9364 ;; Tracked objects:
  9365 ;;		On entry : 0/0
  9366 ;;		On exit  : 0/0
  9367 ;;		Unchanged: 0/0
  9368 ;; Data sizes:     COMRAM   BANK0   BANK1   BANK2   BANK3   BANK4   BANK5   BANK6   BANK7   BANK8   BANK9  BANK10  BANK1
      +1  BANK12  BANK13  BANK14  BANK15
  9369 ;;      Params:         3       0       0       0       0       0       0       0       0       0       0       0       
      +0       0       0       0       0
  9370 ;;      Locals:         1       0       0       0       0       0       0       0       0       0       0       0       
      +0       0       0       0       0
  9371 ;;      Temps:          5       0       0       0       0       0       0       0       0       0       0       0       
      +0       0       0       0       0
  9372 ;;      Totals:         9       0       0       0       0       0       0       0       0       0       0       0       
      +0       0       0       0       0
  9373 ;;Total ram usage:        9 bytes
  9374 ;; Hardware stack levels used: 1
  9375 ;; This function calls:
  9376 ;;		Nothing
  9377 ;; This function is called by:
  9378 ;;		i2_lcd_4bit_send_command
  9379 ;;		i2_lcd_4bit_send_char_data
  9380 ;;		i2_lcd_send_4bits
  9381 ;;		i2_lcd_4bit_enable_signal
  9382 ;; This function uses a non-reentrant model
  9383 ;;
  9384                           
  9385                           	psect	text60
  9386   002208                     __ptext60:
  9387                           	callstack 0
  9388   002208                     i2_gpio_pin_write_logic:
  9389                           	callstack 15
  9390   002208                     
  9391                           ;MCAL_Layer/GPIO/hal_gpio.c: 84:     if ((pin_config == ((void*)0)) || (pin_config->pin 
      +                          > 8 - 1)){
  9392   002208  5001               	movf	i2gpio_pin_write_logic@pin_config^0,w,c
  9393   00220A  1002               	iorwf	(i2gpio_pin_write_logic@pin_config+1)^0,w,c
  9394   00220C  B4D8               	btfsc	status,2,c
  9395   00220E  EF0B  F011         	goto	i2u550_41
  9396   002212  EF0D  F011         	goto	i2u550_40
  9397   002216                     i2u550_41:
  9398   002216  EF1E  F011         	goto	i2l5873
  9399   00221A                     i2u550_40:
  9400   00221A  C001  FFD9         	movff	i2gpio_pin_write_logic@pin_config,fsr2l
  9401   00221E  C002  FFDA         	movff	i2gpio_pin_write_logic@pin_config+1,fsr2h
  9402   002222  30DF               	rrcf	223,w,c
  9403   002224  32E8               	rrcf	wreg,f,c
  9404   002226  32E8               	rrcf	wreg,f,c
  9405   002228  0B07               	andlw	7
  9406   00222A  6E04               	movwf	??i2_gpio_pin_write_logic^0,c
  9407   00222C  0E07               	movlw	7
  9408   00222E  6404               	cpfsgt	??i2_gpio_pin_write_logic^0,c
  9409   002230  EF1C  F011         	goto	i2u551_41
  9410   002234  EF1E  F011         	goto	i2u551_40
  9411   002238                     i2u551_41:
  9412   002238  EF7B  F011         	goto	i2l5887
  9413   00223C                     i2u551_40:
  9414   00223C                     i2l5873:
  9415                           
  9416                           ;MCAL_Layer/GPIO/hal_gpio.c: 85:         ret = (Std_ReturnType)0x00;
  9417   00223C  0E00               	movlw	0
  9418   00223E  6E09               	movwf	i2gpio_pin_write_logic@ret^0,c
  9419                           
  9420                           ;MCAL_Layer/GPIO/hal_gpio.c: 86:     }
  9421   002240  EF90  F011         	goto	i2l5889
  9422   002244                     i2l5875:
  9423                           
  9424                           ;MCAL_Layer/GPIO/hal_gpio.c: 90:                 (*(lat_registers[pin_config->port]) &= 
      +                          ~((uint8)1 << pin_config->pin));
  9425   002244  C001  FFD9         	movff	i2gpio_pin_write_logic@pin_config,fsr2l
  9426   002248  C002  FFDA         	movff	i2gpio_pin_write_logic@pin_config+1,fsr2h
  9427   00224C  30DF               	rrcf	223,w,c
  9428   00224E  32E8               	rrcf	wreg,f,c
  9429   002250  32E8               	rrcf	wreg,f,c
  9430   002252  0B07               	andlw	7
  9431   002254  6E04               	movwf	??i2_gpio_pin_write_logic^0,c
  9432   002256  0E01               	movlw	1
  9433   002258  6E05               	movwf	(??i2_gpio_pin_write_logic+1)^0,c
  9434   00225A  2A04               	incf	??i2_gpio_pin_write_logic^0,f,c
  9435   00225C  EF32  F011         	goto	i2u552_44
  9436   002260                     i2u552_45:
  9437   002260  90D8               	bcf	status,0,c
  9438   002262  3605               	rlcf	(??i2_gpio_pin_write_logic+1)^0,f,c
  9439   002264                     i2u552_44:
  9440   002264  2E04               	decfsz	??i2_gpio_pin_write_logic^0,f,c
  9441   002266  EF30  F011         	goto	i2u552_45
  9442   00226A  5005               	movf	(??i2_gpio_pin_write_logic+1)^0,w,c
  9443   00226C  0AFF               	xorlw	255
  9444   00226E  6E06               	movwf	(??i2_gpio_pin_write_logic+2)^0,c
  9445   002270  C001  FFD9         	movff	i2gpio_pin_write_logic@pin_config,fsr2l
  9446   002274  C002  FFDA         	movff	i2gpio_pin_write_logic@pin_config+1,fsr2h
  9447   002278  50DF               	movf	223,w,c
  9448   00227A  0B07               	andlw	7
  9449   00227C  0D02               	mullw	2
  9450   00227E  50F3               	movf	243,w,c
  9451   002280  0FB5               	addlw	low _lat_registers
  9452   002282  6ED9               	movwf	fsr2l,c
  9453   002284  6ADA               	clrf	fsr2h,c
  9454   002286  CFDE F007          	movff	postinc2,??i2_gpio_pin_write_logic+3
  9455   00228A  CFDD F008          	movff	postdec2,??i2_gpio_pin_write_logic+4
  9456   00228E  C007  FFD9         	movff	??i2_gpio_pin_write_logic+3,fsr2l
  9457   002292  C008  FFDA         	movff	??i2_gpio_pin_write_logic+4,fsr2h
  9458   002296  5006               	movf	(??i2_gpio_pin_write_logic+2)^0,w,c
  9459   002298  16DF               	andwf	indf2,f,c
  9460   00229A                     i2l5877:
  9461                           
  9462                           ;MCAL_Layer/GPIO/hal_gpio.c: 91:                 ret = (Std_ReturnType)0x01;
  9463   00229A  0E01               	movlw	1
  9464   00229C  6E09               	movwf	i2gpio_pin_write_logic@ret^0,c
  9465                           
  9466                           ;MCAL_Layer/GPIO/hal_gpio.c: 92:                 break;
  9467   00229E  EF90  F011         	goto	i2l5889
  9468   0022A2                     i2l5879:
  9469                           
  9470                           ;MCAL_Layer/GPIO/hal_gpio.c: 94:                 (*(lat_registers[pin_config->port]) |= 
      +                          ((uint8)1 << pin_config->pin));
  9471   0022A2  C001  FFD9         	movff	i2gpio_pin_write_logic@pin_config,fsr2l
  9472   0022A6  C002  FFDA         	movff	i2gpio_pin_write_logic@pin_config+1,fsr2h
  9473   0022AA  30DF               	rrcf	223,w,c
  9474   0022AC  32E8               	rrcf	wreg,f,c
  9475   0022AE  32E8               	rrcf	wreg,f,c
  9476   0022B0  0B07               	andlw	7
  9477   0022B2  6E04               	movwf	??i2_gpio_pin_write_logic^0,c
  9478   0022B4  0E01               	movlw	1
  9479   0022B6  6E05               	movwf	(??i2_gpio_pin_write_logic+1)^0,c
  9480   0022B8  2A04               	incf	??i2_gpio_pin_write_logic^0,f,c
  9481   0022BA  EF61  F011         	goto	i2u553_44
  9482   0022BE                     i2u553_45:
  9483   0022BE  90D8               	bcf	status,0,c
  9484   0022C0  3605               	rlcf	(??i2_gpio_pin_write_logic+1)^0,f,c
  9485   0022C2                     i2u553_44:
  9486   0022C2  2E04               	decfsz	??i2_gpio_pin_write_logic^0,f,c
  9487   0022C4  EF5F  F011         	goto	i2u553_45
  9488   0022C8  C001  FFD9         	movff	i2gpio_pin_write_logic@pin_config,fsr2l
  9489   0022CC  C002  FFDA         	movff	i2gpio_pin_write_logic@pin_config+1,fsr2h
  9490   0022D0  50DF               	movf	223,w,c
  9491   0022D2  0B07               	andlw	7
  9492   0022D4  0D02               	mullw	2
  9493   0022D6  50F3               	movf	243,w,c
  9494   0022D8  0FB5               	addlw	low _lat_registers
  9495   0022DA  6ED9               	movwf	fsr2l,c
  9496   0022DC  6ADA               	clrf	fsr2h,c
  9497   0022DE  CFDE F006          	movff	postinc2,??i2_gpio_pin_write_logic+2
  9498   0022E2  CFDD F007          	movff	postdec2,??i2_gpio_pin_write_logic+3
  9499   0022E6  C006  FFD9         	movff	??i2_gpio_pin_write_logic+2,fsr2l
  9500   0022EA  C007  FFDA         	movff	??i2_gpio_pin_write_logic+3,fsr2h
  9501   0022EE  5005               	movf	(??i2_gpio_pin_write_logic+1)^0,w,c
  9502   0022F0  12DF               	iorwf	indf2,f,c
  9503   0022F2  EF4D  F011         	goto	i2l5877
  9504   0022F6                     i2l5887:
  9505   0022F6  5003               	movf	i2gpio_pin_write_logic@logic^0,w,c
  9506   0022F8  6E04               	movwf	??i2_gpio_pin_write_logic^0,c
  9507   0022FA  6A05               	clrf	(??i2_gpio_pin_write_logic+1)^0,c
  9508                           
  9509                           ; Switch on 2 bytes has been partitioned into a top level switch of size 1, and 1 sub-sw
      +                          itches
  9510                           ; Switch size 1, requested type "simple"
  9511                           ; Number of cases is 1, Range of values is 0 to 0
  9512                           ; switch strategies available:
  9513                           ; Name         Instructions Cycles
  9514                           ; simple_byte            4     3 (average)
  9515                           ;	Chosen strategy is simple_byte
  9516   0022FC  5005               	movf	(??i2_gpio_pin_write_logic+1)^0,w,c
  9517   0022FE  0A00               	xorlw	0	; case 0
  9518   002300  B4D8               	btfsc	status,2,c
  9519   002302  EF85  F011         	goto	i2l7307
  9520   002306  EF1E  F011         	goto	i2l5873
  9521   00230A                     i2l7307:
  9522                           
  9523                           ; Switch size 1, requested type "simple"
  9524                           ; Number of cases is 2, Range of values is 0 to 1
  9525                           ; switch strategies available:
  9526                           ; Name         Instructions Cycles
  9527                           ; simple_byte            7     4 (average)
  9528                           ;	Chosen strategy is simple_byte
  9529   00230A  5004               	movf	??i2_gpio_pin_write_logic^0,w,c
  9530   00230C  0A00               	xorlw	0	; case 0
  9531   00230E  B4D8               	btfsc	status,2,c
  9532   002310  EF22  F011         	goto	i2l5875
  9533   002314  0A01               	xorlw	1	; case 1
  9534   002316  B4D8               	btfsc	status,2,c
  9535   002318  EF51  F011         	goto	i2l5879
  9536   00231C  EF1E  F011         	goto	i2l5873
  9537   002320                     i2l5889:
  9538                           
  9539                           ;MCAL_Layer/GPIO/hal_gpio.c: 103:     return ret;
  9540   002320  5009               	movf	i2gpio_pin_write_logic@ret^0,w,c
  9541   002322  0012               	return		;funcret
  9542   002324                     __end_ofi2_gpio_pin_write_logic:
  9543                           	callstack 0
  9544                           
  9545 ;; *************** function i2_convert_uint16_to_string *****************
  9546 ;; Defined at:
  9547 ;;		line 504 in file "ECU_Layer/LCD/ecu_lcd.c"
  9548 ;; Parameters:    Size  Location     Type
  9549 ;;  value           2   42[COMRAM] unsigned short 
  9550 ;;  str             1   44[COMRAM] PTR unsigned char 
  9551 ;;		 -> can_D_str(6), can_C_str(6), can_B_str(6), can_A_str(6), 
  9552 ;; Auto vars:     Size  Location     Type
  9553 ;;  temp_str        6   45[COMRAM] unsigned char [6]
  9554 ;;  data_counter    1   52[COMRAM] unsigned char 
  9555 ;;  ret             1   51[COMRAM] unsigned char 
  9556 ;; Return value:  Size  Location     Type
  9557 ;;                  1    wreg      unsigned char 
  9558 ;; Registers used:
  9559 ;;		wreg, fsr1l, fsr1h, fsr2l, fsr2h, status,2, status,0, tblptrl, tblptrh, tblptru, cstack
  9560 ;; Tracked objects:
  9561 ;;		On entry : 0/0
  9562 ;;		On exit  : 0/0
  9563 ;;		Unchanged: 0/0
  9564 ;; Data sizes:     COMRAM   BANK0   BANK1   BANK2   BANK3   BANK4   BANK5   BANK6   BANK7   BANK8   BANK9  BANK10  BANK1
      +1  BANK12  BANK13  BANK14  BANK15
  9565 ;;      Params:         3       0       0       0       0       0       0       0       0       0       0       0       
      +0       0       0       0       0
  9566 ;;      Locals:         8       0       0       0       0       0       0       0       0       0       0       0       
      +0       0       0       0       0
  9567 ;;      Temps:          0       0       0       0       0       0       0       0       0       0       0       0       
      +0       0       0       0       0
  9568 ;;      Totals:        11       0       0       0       0       0       0       0       0       0       0       0       
      +0       0       0       0       0
  9569 ;;Total ram usage:       11 bytes
  9570 ;; Hardware stack levels used: 1
  9571 ;; Hardware stack levels required when called: 5
  9572 ;; This function calls:
  9573 ;;		i2_memset
  9574 ;;		i2_sprintf
  9575 ;; This function is called by:
  9576 ;;		i2_display
  9577 ;; This function uses a non-reentrant model
  9578 ;;
  9579                           
  9580                           	psect	text61
  9581   002B28                     __ptext61:
  9582                           	callstack 0
  9583   002B28                     i2_convert_uint16_to_string:
  9584                           	callstack 14
  9585   002B28                     
  9586                           ;ECU_Layer/LCD/ecu_lcd.c: 507:     if (str == ((void*)0)){
  9587   002B28  502D               	movf	i2convert_uint16_to_string@str^0,w,c
  9588   002B2A  A4D8               	btfss	status,2,c
  9589   002B2C  EF9A  F015         	goto	i2u367_41
  9590   002B30  EF9C  F015         	goto	i2u367_40
  9591   002B34                     i2u367_41:
  9592   002B34  EFA0  F015         	goto	i2l4355
  9593   002B38                     i2u367_40:
  9594   002B38                     
  9595                           ;ECU_Layer/LCD/ecu_lcd.c: 508:         ret = (Std_ReturnType)0x00;
  9596   002B38  0E00               	movlw	0
  9597   002B3A  6E34               	movwf	i2convert_uint16_to_string@ret^0,c
  9598                           
  9599                           ;ECU_Layer/LCD/ecu_lcd.c: 509:     }
  9600   002B3C  EFE2  F015         	goto	i2l196
  9601   002B40                     i2l4355:
  9602                           
  9603                           ;ECU_Layer/LCD/ecu_lcd.c: 511:         uint8 temp_str[6] = {0};
  9604   002B40  EE20  F045         	lfsr	2,convert_uint16_to_string@F3236
  9605   002B44  EE10  F02E         	lfsr	1,i2convert_uint16_to_string@temp_str
  9606   002B48  0E05               	movlw	5
  9607   002B4A                     i2u368_41:
  9608   002B4A  CFDB FFE3          	movff	plusw2,plusw1
  9609   002B4E  06E8               	decf	wreg,f,c
  9610   002B50  E2FC               	bc	i2u368_41
  9611   002B52                     
  9612                           ;ECU_Layer/LCD/ecu_lcd.c: 512:         uint8 data_counter = 0;
  9613   002B52  0E00               	movlw	0
  9614   002B54  6E35               	movwf	i2convert_uint16_to_string@data_counter^0,c
  9615   002B56                     
  9616                           ;ECU_Layer/LCD/ecu_lcd.c: 514:         memset(str, ' ', 5);
  9617   002B56  C02D  F001         	movff	i2convert_uint16_to_string@str,i2memset@dest
  9618   002B5A  0E00               	movlw	0
  9619   002B5C  6E03               	movwf	(i2memset@c+1)^0,c
  9620   002B5E  0E20               	movlw	32
  9621   002B60  6E02               	movwf	i2memset@c^0,c
  9622   002B62  0E00               	movlw	0
  9623   002B64  6E05               	movwf	(i2memset@n+1)^0,c
  9624   002B66  0E05               	movlw	5
  9625   002B68  6E04               	movwf	i2memset@n^0,c
  9626   002B6A  EC29  F01D         	call	i2_memset	;wreg free
  9627   002B6E                     
  9628                           ;ECU_Layer/LCD/ecu_lcd.c: 515:         str[5] = '\0';
  9629   002B6E  502D               	movf	i2convert_uint16_to_string@str^0,w,c
  9630   002B70  6ED9               	movwf	fsr2l,c
  9631   002B72  6ADA               	clrf	fsr2h,c
  9632   002B74  0E05               	movlw	5
  9633   002B76  26D9               	addwf	fsr2l,f,c
  9634   002B78  6ADF               	clrf	indf2,c
  9635   002B7A                     
  9636                           ;ECU_Layer/LCD/ecu_lcd.c: 516:         sprintf((char *)temp_str, "%i", value);
  9637   002B7A  0E2E               	movlw	low i2convert_uint16_to_string@temp_str
  9638   002B7C  6E1A               	movwf	i2sprintf@s^0,c
  9639   002B7E  0E71               	movlw	low STR_1
  9640   002B80  6E1B               	movwf	i2sprintf@fmt^0,c
  9641   002B82  C02B  F01C         	movff	i2convert_uint16_to_string@value,?i2_sprintf+2
  9642   002B86  C02C  F01D         	movff	i2convert_uint16_to_string@value+1,?i2_sprintf+3
  9643   002B8A  ECDC  F01C         	call	i2_sprintf	;wreg free
  9644                           
  9645                           ;ECU_Layer/LCD/ecu_lcd.c: 517:         while(temp_str[data_counter] != '\0'){
  9646   002B8E  EFD4  F015         	goto	i2l4369
  9647   002B92                     i2l4365:
  9648                           
  9649                           ;ECU_Layer/LCD/ecu_lcd.c: 518:             str[data_counter] = temp_str[data_counter];
  9650   002B92  5035               	movf	i2convert_uint16_to_string@data_counter^0,w,c
  9651   002B94  0F2E               	addlw	low i2convert_uint16_to_string@temp_str
  9652   002B96  6ED9               	movwf	fsr2l,c
  9653   002B98  6ADA               	clrf	fsr2h,c
  9654   002B9A  502D               	movf	i2convert_uint16_to_string@str^0,w,c
  9655   002B9C  2435               	addwf	i2convert_uint16_to_string@data_counter^0,w,c
  9656   002B9E  6EE1               	movwf	fsr1l,c
  9657   002BA0  6AE2               	clrf	fsr1h,c
  9658   002BA2  CFDF FFE7          	movff	indf2,indf1
  9659   002BA6                     
  9660                           ;ECU_Layer/LCD/ecu_lcd.c: 519:             data_counter++;
  9661   002BA6  2A35               	incf	i2convert_uint16_to_string@data_counter^0,f,c
  9662   002BA8                     i2l4369:
  9663                           
  9664                           ;ECU_Layer/LCD/ecu_lcd.c: 517:         while(temp_str[data_counter] != '\0'){
  9665   002BA8  5035               	movf	i2convert_uint16_to_string@data_counter^0,w,c
  9666   002BAA  0F2E               	addlw	low i2convert_uint16_to_string@temp_str
  9667   002BAC  6ED9               	movwf	fsr2l,c
  9668   002BAE  6ADA               	clrf	fsr2h,c
  9669   002BB0  50DF               	movf	indf2,w,c
  9670   002BB2  A4D8               	btfss	status,2,c
  9671   002BB4  EFDE  F015         	goto	i2u369_41
  9672   002BB8  EFE0  F015         	goto	i2u369_40
  9673   002BBC                     i2u369_41:
  9674   002BBC  EFC9  F015         	goto	i2l4365
  9675   002BC0                     i2u369_40:
  9676   002BC0                     
  9677                           ;ECU_Layer/LCD/ecu_lcd.c: 521:         ret = (Std_ReturnType)0x01;
  9678   002BC0  0E01               	movlw	1
  9679   002BC2  6E34               	movwf	i2convert_uint16_to_string@ret^0,c
  9680   002BC4                     i2l196:
  9681                           
  9682                           ;ECU_Layer/LCD/ecu_lcd.c: 524:     return ret;
  9683   002BC4  5034               	movf	i2convert_uint16_to_string@ret^0,w,c
  9684   002BC6  0012               	return		;funcret
  9685   002BC8                     __end_ofi2_convert_uint16_to_string:
  9686                           	callstack 0
  9687                           
  9688 ;; *************** function i2_sprintf *****************
  9689 ;; Defined at:
  9690 ;;		line 9 in file "C:\Program Files\Microchip\xc8\v2.46\pic\sources\c99\common\nf_sprintf.c"
  9691 ;; Parameters:    Size  Location     Type
  9692 ;;  s               1   25[COMRAM] PTR unsigned char 
  9693 ;;		 -> i2convert_uint16_to_string@temp_str(6), convert_uint16_to_string@temp_str(6), 
  9694 ;;  fmt             1   26[COMRAM] PTR const unsigned char 
  9695 ;;		 -> STR_3(3), STR_2(3), STR_1(3), 
  9696 ;; Auto vars:     Size  Location     Type
  9697 ;;  f              12   30[COMRAM] struct _IO_FILE
  9698 ;;  ret             2    0        int 
  9699 ;;  ap              1   29[COMRAM] PTR void [1]
  9700 ;;		 -> ?i2_sprintf(2), ?_sprintf(2), 
  9701 ;; Return value:  Size  Location     Type
  9702 ;;                  2   25[COMRAM] int 
  9703 ;; Registers used:
  9704 ;;		wreg, fsr1l, fsr1h, fsr2l, fsr2h, status,2, status,0, tblptrl, tblptrh, tblptru, cstack
  9705 ;; Tracked objects:
  9706 ;;		On entry : 0/0
  9707 ;;		On exit  : 0/0
  9708 ;;		Unchanged: 0/0
  9709 ;; Data sizes:     COMRAM   BANK0   BANK1   BANK2   BANK3   BANK4   BANK5   BANK6   BANK7   BANK8   BANK9  BANK10  BANK1
      +1  BANK12  BANK13  BANK14  BANK15
  9710 ;;      Params:         4       0       0       0       0       0       0       0       0       0       0       0       
      +0       0       0       0       0
  9711 ;;      Locals:        13       0       0       0       0       0       0       0       0       0       0       0       
      +0       0       0       0       0
  9712 ;;      Temps:          0       0       0       0       0       0       0       0       0       0       0       0       
      +0       0       0       0       0
  9713 ;;      Totals:        17       0       0       0       0       0       0       0       0       0       0       0       
      +0       0       0       0       0
  9714 ;;Total ram usage:       17 bytes
  9715 ;; Hardware stack levels used: 1
  9716 ;; Hardware stack levels required when called: 4
  9717 ;; This function calls:
  9718 ;;		i2_vfprintf
  9719 ;; This function is called by:
  9720 ;;		i2_convert_uint16_to_string
  9721 ;; This function uses a non-reentrant model
  9722 ;;
  9723                           
  9724                           	psect	text62
  9725   0039B8                     __ptext62:
  9726                           	callstack 0
  9727   0039B8                     i2_sprintf:
  9728                           	callstack 14
  9729   0039B8  0E1C               	movlw	low (?i2_sprintf+2)
  9730   0039BA  6E1E               	movwf	i2sprintf@ap^0,c
  9731   0039BC  C01A  F01F         	movff	i2sprintf@s,i2sprintf@f
  9732   0039C0  0E00               	movlw	0
  9733   0039C2  6E23               	movwf	(i2sprintf@f+4)^0,c
  9734   0039C4  0E00               	movlw	0
  9735   0039C6  6E22               	movwf	(i2sprintf@f+3)^0,c
  9736   0039C8  0E00               	movlw	0
  9737   0039CA  6E2A               	movwf	(i2sprintf@f+11)^0,c
  9738   0039CC  0E00               	movlw	0
  9739   0039CE  6E29               	movwf	(i2sprintf@f+10)^0,c
  9740   0039D0  0E1F               	movlw	low i2sprintf@f
  9741   0039D2  6E16               	movwf	i2vfprintf@fp^0,c
  9742   0039D4  C01B  F017         	movff	i2sprintf@fmt,i2vfprintf@fmt
  9743   0039D8  0E1E               	movlw	low i2sprintf@ap
  9744   0039DA  6E18               	movwf	i2vfprintf@ap^0,c
  9745   0039DC  EC1A  F01C         	call	i2_vfprintf	;wreg free
  9746   0039E0  501A               	movf	i2sprintf@s^0,w,c
  9747   0039E2  2422               	addwf	(i2sprintf@f+3)^0,w,c
  9748   0039E4  6ED9               	movwf	fsr2l,c
  9749   0039E6  6ADA               	clrf	fsr2h,c
  9750   0039E8  6ADF               	clrf	indf2,c
  9751   0039EA  0012               	return		;funcret
  9752   0039EC                     __end_ofi2_sprintf:
  9753                           	callstack 0
  9754                           
  9755 ;; *************** function i2_vfprintf *****************
  9756 ;; Defined at:
  9757 ;;		line 1817 in file "C:\Program Files\Microchip\xc8\v2.46\pic\sources\c99\common\doprnt.c"
  9758 ;; Parameters:    Size  Location     Type
  9759 ;;  fp              1   21[COMRAM] PTR struct _IO_FILE
  9760 ;;		 -> i2sprintf@f(12), sprintf@f(12), 
  9761 ;;  fmt             1   22[COMRAM] PTR const unsigned char 
  9762 ;;		 -> STR_3(3), STR_2(3), STR_1(3), 
  9763 ;;  ap              1   23[COMRAM] PTR PTR void 
  9764 ;;		 -> i2sprintf@ap(1), sprintf@ap(1), 
  9765 ;; Auto vars:     Size  Location     Type
  9766 ;;  cfmt            1   24[COMRAM] PTR unsigned char 
  9767 ;;		 -> STR_3(3), STR_2(3), STR_1(3), 
  9768 ;; Return value:  Size  Location     Type
  9769 ;;                  2   21[COMRAM] int 
  9770 ;; Registers used:
  9771 ;;		wreg, fsr1l, fsr1h, fsr2l, fsr2h, status,2, status,0, tblptrl, tblptrh, tblptru, cstack
  9772 ;; Tracked objects:
  9773 ;;		On entry : 0/0
  9774 ;;		On exit  : 0/0
  9775 ;;		Unchanged: 0/0
  9776 ;; Data sizes:     COMRAM   BANK0   BANK1   BANK2   BANK3   BANK4   BANK5   BANK6   BANK7   BANK8   BANK9  BANK10  BANK1
      +1  BANK12  BANK13  BANK14  BANK15
  9777 ;;      Params:         3       0       0       0       0       0       0       0       0       0       0       0       
      +0       0       0       0       0
  9778 ;;      Locals:         1       0       0       0       0       0       0       0       0       0       0       0       
      +0       0       0       0       0
  9779 ;;      Temps:          0       0       0       0       0       0       0       0       0       0       0       0       
      +0       0       0       0       0
  9780 ;;      Totals:         4       0       0       0       0       0       0       0       0       0       0       0       
      +0       0       0       0       0
  9781 ;;Total ram usage:        4 bytes
  9782 ;; Hardware stack levels used: 1
  9783 ;; Hardware stack levels required when called: 3
  9784 ;; This function calls:
  9785 ;;		i2_vfpfcnvrt
  9786 ;; This function is called by:
  9787 ;;		i2_sprintf
  9788 ;; This function uses a non-reentrant model
  9789 ;;
  9790                           
  9791                           	psect	text63
  9792   003834                     __ptext63:
  9793                           	callstack 0
  9794   003834                     i2_vfprintf:
  9795                           	callstack 14
  9796   003834                     
  9797                           ;C:\Program Files\Microchip\xc8\v2.46\pic\sources\c99\common\doprnt.c: 1817: int vfprint
      +                          f(FILE *fp, const char *fmt, va_list ap);C:\Program Files\Microchip\xc8\v2.46\pic\source
      +                          s\c99\common\doprnt.c: 1818: {;C:\Program Files\Microchip\xc8\v2.46\pic\sources\c99\comm
      +                          on\doprnt.c: 1820:     char *cfmt;;C:\Program Files\Microchip\xc8\v2.46\pic\sources\c99\
      +                          common\doprnt.c: 1822:     cfmt = (char *)fmt;
  9798   003834  C017  F019         	movff	i2vfprintf@fmt,i2vfprintf@cfmt
  9799                           
  9800                           ;C:\Program Files\Microchip\xc8\v2.46\pic\sources\c99\common\doprnt.c: 1826:     while (
      +                          *cfmt) {
  9801   003838  EF26  F01C         	goto	i2l4045
  9802   00383C                     i2l4043:
  9803                           
  9804                           ;C:\Program Files\Microchip\xc8\v2.46\pic\sources\c99\common\doprnt.c: 1830:    vfpfcnvr
      +                          t(fp, &cfmt, ap);
  9805   00383C  C016  F00B         	movff	i2vfprintf@fp,i2vfpfcnvrt@fp
  9806   003840  0E19               	movlw	low i2vfprintf@cfmt
  9807   003842  6E0C               	movwf	i2vfpfcnvrt@fmt^0,c
  9808   003844  C018  F00D         	movff	i2vfprintf@ap,i2vfpfcnvrt@ap
  9809   003848  ECA1  F00A         	call	i2_vfpfcnvrt	;wreg free
  9810   00384C                     i2l4045:
  9811                           
  9812                           ;C:\Program Files\Microchip\xc8\v2.46\pic\sources\c99\common\doprnt.c: 1826:     while (
      +                          *cfmt) {
  9813   00384C  C019  FFF6         	movff	i2vfprintf@cfmt,tblptrl
  9814   003850                     	if	1	;There is more than 1 active tblptr byte
  9815   003850  0E10               	movlw	high __smallconst
  9816   003852  6EF7               	movwf	tblptrh,c
  9817   003854                     	endif
  9818   003854                     	if	1	;Program memory is < 0x10000, tblptru is always zero
  9819   003854  6AF8               	clrf	tblptru,c
  9820   003856                     	endif
  9821   003856                     	if	0	;tblptru may be non-zero
  9822   003856                     	endif
  9823   003856  0008               	tblrd		*
  9824   003858  50F5               	movf	tablat,w,c
  9825   00385A  0900               	iorlw	0
  9826   00385C  A4D8               	btfss	status,2,c
  9827   00385E  EF33  F01C         	goto	i2u331_41
  9828   003862  EF35  F01C         	goto	i2u331_40
  9829   003866                     i2u331_41:
  9830   003866  EF1E  F01C         	goto	i2l4043
  9831   00386A                     i2u331_40:
  9832   00386A                     
  9833                           ;C:\Program Files\Microchip\xc8\v2.46\pic\sources\c99\common\doprnt.c: 1835:  return 0;
  9834   00386A  0E00               	movlw	0
  9835   00386C  6E17               	movwf	(?i2_vfprintf+1)^0,c
  9836   00386E  0E00               	movlw	0
  9837   003870  6E16               	movwf	?i2_vfprintf^0,c
  9838   003872  0012               	return		;funcret
  9839   003874                     __end_ofi2_vfprintf:
  9840                           	callstack 0
  9841                           
  9842 ;; *************** function i2_vfpfcnvrt *****************
  9843 ;; Defined at:
  9844 ;;		line 1177 in file "C:\Program Files\Microchip\xc8\v2.46\pic\sources\c99\common\doprnt.c"
  9845 ;; Parameters:    Size  Location     Type
  9846 ;;  fp              1   10[COMRAM] PTR struct _IO_FILE
  9847 ;;		 -> i2sprintf@f(12), sprintf@f(12), 
  9848 ;;  fmt             1   11[COMRAM] PTR PTR unsigned char 
  9849 ;;		 -> i2vfprintf@cfmt(1), vfprintf@cfmt(1), 
  9850 ;;  ap              1   12[COMRAM] PTR PTR void 
  9851 ;;		 -> i2sprintf@ap(1), sprintf@ap(1), 
  9852 ;; Auto vars:     Size  Location     Type
  9853 ;;  convarg         4   16[COMRAM] struct .
  9854 ;;  c               1   20[COMRAM] unsigned char 
  9855 ;;  cp              1   15[COMRAM] PTR unsigned char 
  9856 ;;		 -> STR_3(3), STR_2(3), STR_1(3), 
  9857 ;;  done            1   14[COMRAM] _Bool 
  9858 ;; Return value:  Size  Location     Type
  9859 ;;                  1    wreg      void 
  9860 ;; Registers used:
  9861 ;;		wreg, fsr1l, fsr1h, fsr2l, fsr2h, status,2, status,0, tblptrl, tblptrh, tblptru, cstack
  9862 ;; Tracked objects:
  9863 ;;		On entry : 0/0
  9864 ;;		On exit  : 0/0
  9865 ;;		Unchanged: 0/0
  9866 ;; Data sizes:     COMRAM   BANK0   BANK1   BANK2   BANK3   BANK4   BANK5   BANK6   BANK7   BANK8   BANK9  BANK10  BANK1
      +1  BANK12  BANK13  BANK14  BANK15
  9867 ;;      Params:         3       0       0       0       0       0       0       0       0       0       0       0       
      +0       0       0       0       0
  9868 ;;      Locals:         7       0       0       0       0       0       0       0       0       0       0       0       
      +0       0       0       0       0
  9869 ;;      Temps:          1       0       0       0       0       0       0       0       0       0       0       0       
      +0       0       0       0       0
  9870 ;;      Totals:        11       0       0       0       0       0       0       0       0       0       0       0       
      +0       0       0       0       0
  9871 ;;Total ram usage:       11 bytes
  9872 ;; Hardware stack levels used: 1
  9873 ;; Hardware stack levels required when called: 2
  9874 ;; This function calls:
  9875 ;;		i2___awdiv
  9876 ;;		i2___awmod
  9877 ;;		i2_abs
  9878 ;;		i2_fputc
  9879 ;; This function is called by:
  9880 ;;		i2_vfprintf
  9881 ;; This function uses a non-reentrant model
  9882 ;;
  9883                           
  9884                           	psect	text64
  9885   001542                     __ptext64:
  9886                           	callstack 0
  9887   001542                     i2_vfpfcnvrt:
  9888                           	callstack 14
  9889   001542                     
  9890                           ;C:\Program Files\Microchip\xc8\v2.46\pic\sources\c99\common\doprnt.c: 1177: vfpfcnvrt(F
      +                          ILE *fp, char *fmt[], va_list ap);C:\Program Files\Microchip\xc8\v2.46\pic\sources\c99\c
      +                          ommon\doprnt.c: 1178: {;C:\Program Files\Microchip\xc8\v2.46\pic\sources\c99\common\dopr
      +                          nt.c: 1179:     char c, *cp;;C:\Program Files\Microchip\xc8\v2.46\pic\sources\c99\common
      +                          \doprnt.c: 1180:     _Bool done;;C:\Program Files\Microchip\xc8\v2.46\pic\sources\c99\co
      +                          mmon\doprnt.c: 1188:  } convarg;;C:\Program Files\Microchip\xc8\v2.46\pic\sources\c99\co
      +                          mmon\doprnt.c: 1201:     if ((*fmt)[0] == '%') {
  9891   001542  500C               	movf	i2vfpfcnvrt@fmt^0,w,c
  9892   001544  6ED9               	movwf	fsr2l,c
  9893   001546  6ADA               	clrf	fsr2h,c
  9894   001548  CFDF FFF6          	movff	indf2,tblptrl
  9895   00154C                     	if	1	;There is more than 1 active tblptr byte
  9896   00154C  0E10               	movlw	high __smallconst
  9897   00154E  6EF7               	movwf	tblptrh,c
  9898   001550                     	endif
  9899   001550                     	if	1	;Program memory is < 0x10000, tblptru is always zero
  9900   001550  6AF8               	clrf	tblptru,c
  9901   001552                     	endif
  9902   001552                     	if	0	;tblptru may be non-zero
  9903   001552                     	endif
  9904   001552  0008               	tblrd		*
  9905   001554  50F5               	movf	tablat,w,c
  9906   001556  0A25               	xorlw	37
  9907   001558  A4D8               	btfss	status,2,c
  9908   00155A  EFB1  F00A         	goto	i2u299_41
  9909   00155E  EFB3  F00A         	goto	i2u299_40
  9910   001562                     i2u299_41:
  9911   001562  EF74  F00B         	goto	i2l3895
  9912   001566                     i2u299_40:
  9913   001566                     
  9914                           ;C:\Program Files\Microchip\xc8\v2.46\pic\sources\c99\common\doprnt.c: 1202:         ++*
      +                          fmt;
  9915   001566  500C               	movf	i2vfpfcnvrt@fmt^0,w,c
  9916   001568  6ED9               	movwf	fsr2l,c
  9917   00156A  6ADA               	clrf	fsr2h,c
  9918   00156C  2ADF               	incf	indf2,f,c
  9919   00156E                     
  9920                           ;C:\Program Files\Microchip\xc8\v2.46\pic\sources\c99\common\doprnt.c: 1204:         fla
      +                          gs = width = 0;
  9921   00156E  0E00               	movlw	0
  9922   001570  6E4C               	movwf	(_width+1)^0,c
  9923   001572  0E00               	movlw	0
  9924   001574  6E4B               	movwf	_width^0,c
  9925   001576  C04B  F065         	movff	_width,_flags
  9926   00157A                     
  9927                           ;C:\Program Files\Microchip\xc8\v2.46\pic\sources\c99\common\doprnt.c: 1205:         pre
      +                          c = -1;
  9928   00157A  684D               	setf	_prec^0,c
  9929   00157C  684E               	setf	(_prec+1)^0,c
  9930   00157E                     
  9931                           ;C:\Program Files\Microchip\xc8\v2.46\pic\sources\c99\common\doprnt.c: 1291:   cp = *fmt
      +                          ;
  9932   00157E  500C               	movf	i2vfpfcnvrt@fmt^0,w,c
  9933   001580  6ED9               	movwf	fsr2l,c
  9934   001582  6ADA               	clrf	fsr2h,c
  9935   001584  50DF               	movf	indf2,w,c
  9936   001586  6E10               	movwf	i2vfpfcnvrt@cp^0,c
  9937   001588                     
  9938                           ;C:\Program Files\Microchip\xc8\v2.46\pic\sources\c99\common\doprnt.c: 1361:   if (*cp =
      +                          = 'd' || *cp == 'i') {
  9939   001588  C010  FFF6         	movff	i2vfpfcnvrt@cp,tblptrl
  9940   00158C                     	if	1	;There is more than 1 active tblptr byte
  9941   00158C  0E10               	movlw	high __smallconst
  9942   00158E  6EF7               	movwf	tblptrh,c
  9943   001590                     	endif
  9944   001590                     	if	1	;Program memory is < 0x10000, tblptru is always zero
  9945   001590  6AF8               	clrf	tblptru,c
  9946   001592                     	endif
  9947   001592                     	if	0	;tblptru may be non-zero
  9948   001592                     	endif
  9949   001592  0008               	tblrd		*
  9950   001594  50F5               	movf	tablat,w,c
  9951   001596  0A64               	xorlw	100
  9952   001598  B4D8               	btfsc	status,2,c
  9953   00159A  EFD1  F00A         	goto	i2u300_41
  9954   00159E  EFD3  F00A         	goto	i2u300_40
  9955   0015A2                     i2u300_41:
  9956   0015A2  EFE2  F00A         	goto	i2l3865
  9957   0015A6                     i2u300_40:
  9958   0015A6  C010  FFF6         	movff	i2vfpfcnvrt@cp,tblptrl
  9959   0015AA                     	if	1	;There is more than 1 active tblptr byte
  9960   0015AA  0E10               	movlw	high __smallconst
  9961   0015AC  6EF7               	movwf	tblptrh,c
  9962   0015AE                     	endif
  9963   0015AE                     	if	1	;Program memory is < 0x10000, tblptru is always zero
  9964   0015AE  6AF8               	clrf	tblptru,c
  9965   0015B0                     	endif
  9966   0015B0                     	if	0	;tblptru may be non-zero
  9967   0015B0                     	endif
  9968   0015B0  0008               	tblrd		*
  9969   0015B2  50F5               	movf	tablat,w,c
  9970   0015B4  0A69               	xorlw	105
  9971   0015B6  A4D8               	btfss	status,2,c
  9972   0015B8  EFE0  F00A         	goto	i2u301_41
  9973   0015BC  EFE2  F00A         	goto	i2u301_40
  9974   0015C0                     i2u301_41:
  9975   0015C0  EF6E  F00B         	goto	i2l3891
  9976   0015C4                     i2u301_40:
  9977   0015C4                     i2l3865:
  9978                           
  9979                           ;C:\Program Files\Microchip\xc8\v2.46\pic\sources\c99\common\doprnt.c: 1404:    convarg.
      +                          sint = (vfpf_sint_t)(int)(*(int *)__va_arg(*(int **)ap, (int)0));
  9980   0015C4  500D               	movf	i2vfpfcnvrt@ap^0,w,c
  9981   0015C6  6ED9               	movwf	fsr2l,c
  9982   0015C8  6ADA               	clrf	fsr2h,c
  9983   0015CA  0E02               	movlw	2
  9984   0015CC  26DF               	addwf	indf2,f,c
  9985   0015CE  5CDF               	subwf	indf2,w,c
  9986   0015D0  6ED9               	movwf	fsr2l,c
  9987   0015D2  6ADA               	clrf	fsr2h,c
  9988   0015D4  CFDE F011          	movff	postinc2,i2vfpfcnvrt@convarg
  9989   0015D8  CFDE F012          	movff	postinc2,i2vfpfcnvrt@convarg+1
  9990   0015DC                     
  9991                           ;C:\Program Files\Microchip\xc8\v2.46\pic\sources\c99\common\doprnt.c: 1406:    *fmt = c
      +                          p+1;
  9992   0015DC  500C               	movf	i2vfpfcnvrt@fmt^0,w,c
  9993   0015DE  6ED9               	movwf	fsr2l,c
  9994   0015E0  6ADA               	clrf	fsr2h,c
  9995   0015E2  2810               	incf	i2vfpfcnvrt@cp^0,w,c
  9996   0015E4  6EDF               	movwf	indf2,c
  9997   0015E6                     
  9998                           ;C:\Program Files\Microchip\xc8\v2.46\pic\sources\c99\common\doprnt.c: 1408:    c = size
      +                          of(dbuf);
  9999   0015E6  0E20               	movlw	32
 10000   0015E8  6E15               	movwf	i2vfpfcnvrt@c^0,c
 10001                           
 10002                           ;C:\Program Files\Microchip\xc8\v2.46\pic\sources\c99\common\doprnt.c: 1409:    done = c
      +                          onvarg.sint < 0;
 10003   0015EA  BE12               	btfsc	(i2vfpfcnvrt@convarg+1)^0,7,c
 10004   0015EC  EFFA  F00A         	goto	i2u302_41
 10005   0015F0  EFFD  F00A         	goto	i2u302_40
 10006   0015F4                     i2u302_41:
 10007   0015F4  0E01               	movlw	1
 10008   0015F6  EFFE  F00A         	goto	i2u303_40
 10009   0015FA                     i2u302_40:
 10010   0015FA  0E00               	movlw	0
 10011   0015FC                     i2u303_40:
 10012   0015FC  6E0F               	movwf	i2vfpfcnvrt@done^0,c
 10013   0015FE                     i2l3871:
 10014                           
 10015                           ;C:\Program Files\Microchip\xc8\v2.46\pic\sources\c99\common\doprnt.c: 1411:     dbuf[--
      +                          c] = abs(convarg.sint % 10) + '0';
 10016   0015FE  0615               	decf	i2vfpfcnvrt@c^0,f,c
 10017   001600  0E00               	movlw	low _dbuf
 10018   001602  2415               	addwf	i2vfpfcnvrt@c^0,w,c
 10019   001604  6ED9               	movwf	fsr2l,c
 10020   001606  6ADA               	clrf	fsr2h,c
 10021   001608  0E01               	movlw	high _dbuf
 10022   00160A  22DA               	addwfc	fsr2h,f,c
 10023   00160C  C011  F001         	movff	i2vfpfcnvrt@convarg,i2___awmod@dividend
 10024   001610  C012  F002         	movff	i2vfpfcnvrt@convarg+1,i2___awmod@dividend+1
 10025   001614  0E00               	movlw	0
 10026   001616  6E04               	movwf	(i2___awmod@divisor+1)^0,c
 10027   001618  0E0A               	movlw	10
 10028   00161A  6E03               	movwf	i2___awmod@divisor^0,c
 10029   00161C  ECEA  F013         	call	i2___awmod	;wreg free
 10030   001620  C001  F007         	movff	?i2___awmod,i2abs@a
 10031   001624  C002  F008         	movff	?i2___awmod+1,i2abs@a+1
 10032   001628  ECF6  F01C         	call	i2_abs	;wreg free
 10033   00162C  5007               	movf	?i2_abs^0,w,c
 10034   00162E  0F30               	addlw	48
 10035   001630  6EDF               	movwf	indf2,c
 10036   001632                     
 10037                           ;C:\Program Files\Microchip\xc8\v2.46\pic\sources\c99\common\doprnt.c: 1412:     convarg
      +                          .sint /= 10;
 10038   001632  C011  F001         	movff	i2vfpfcnvrt@convarg,i2___awdiv@dividend
 10039   001636  C012  F002         	movff	i2vfpfcnvrt@convarg+1,i2___awdiv@dividend+1
 10040   00163A  0E00               	movlw	0
 10041   00163C  6E04               	movwf	(i2___awdiv@divisor+1)^0,c
 10042   00163E  0E0A               	movlw	10
 10043   001640  6E03               	movwf	i2___awdiv@divisor^0,c
 10044   001642  EC7E  F012         	call	i2___awdiv	;wreg free
 10045   001646  C001  F011         	movff	?i2___awdiv,i2vfpfcnvrt@convarg
 10046   00164A  C002  F012         	movff	?i2___awdiv+1,i2vfpfcnvrt@convarg+1
 10047   00164E                     
 10048                           ;C:\Program Files\Microchip\xc8\v2.46\pic\sources\c99\common\doprnt.c: 1416:    } while 
      +                          (convarg.sint != 0 && c != 0);
 10049   00164E  5011               	movf	i2vfpfcnvrt@convarg^0,w,c
 10050   001650  1012               	iorwf	(i2vfpfcnvrt@convarg+1)^0,w,c
 10051   001652  B4D8               	btfsc	status,2,c
 10052   001654  EF2E  F00B         	goto	i2u304_41
 10053   001658  EF30  F00B         	goto	i2u304_40
 10054   00165C                     i2u304_41:
 10055   00165C  EF38  F00B         	goto	i2l3879
 10056   001660                     i2u304_40:
 10057   001660  5015               	movf	i2vfpfcnvrt@c^0,w,c
 10058   001662  A4D8               	btfss	status,2,c
 10059   001664  EF36  F00B         	goto	i2u305_41
 10060   001668  EF38  F00B         	goto	i2u305_40
 10061   00166C                     i2u305_41:
 10062   00166C  EFFF  F00A         	goto	i2l3871
 10063   001670                     i2u305_40:
 10064   001670                     i2l3879:
 10065                           
 10066                           ;C:\Program Files\Microchip\xc8\v2.46\pic\sources\c99\common\doprnt.c: 1417:    if (c !=
      +                           0 && done) {
 10067   001670  5015               	movf	i2vfpfcnvrt@c^0,w,c
 10068   001672  B4D8               	btfsc	status,2,c
 10069   001674  EF3E  F00B         	goto	i2u306_41
 10070   001678  EF40  F00B         	goto	i2u306_40
 10071   00167C                     i2u306_41:
 10072   00167C  EF63  F00B         	goto	i2l3889
 10073   001680                     i2u306_40:
 10074   001680  500F               	movf	i2vfpfcnvrt@done^0,w,c
 10075   001682  B4D8               	btfsc	status,2,c
 10076   001684  EF46  F00B         	goto	i2u307_41
 10077   001688  EF48  F00B         	goto	i2u307_40
 10078   00168C                     i2u307_41:
 10079   00168C  EF63  F00B         	goto	i2l3889
 10080   001690                     i2u307_40:
 10081   001690                     
 10082                           ;C:\Program Files\Microchip\xc8\v2.46\pic\sources\c99\common\doprnt.c: 1418:     dbuf[--
      +                          c] = '-';
 10083   001690  0615               	decf	i2vfpfcnvrt@c^0,f,c
 10084   001692  0E00               	movlw	low _dbuf
 10085   001694  2415               	addwf	i2vfpfcnvrt@c^0,w,c
 10086   001696  6ED9               	movwf	fsr2l,c
 10087   001698  6ADA               	clrf	fsr2h,c
 10088   00169A  0E01               	movlw	high _dbuf
 10089   00169C  22DA               	addwfc	fsr2h,f,c
 10090   00169E  0E2D               	movlw	45
 10091   0016A0  6EDF               	movwf	indf2,c
 10092   0016A2  EF63  F00B         	goto	i2l3889
 10093   0016A6                     i2l3885:
 10094                           
 10095                           ;C:\Program Files\Microchip\xc8\v2.46\pic\sources\c99\common\doprnt.c: 1424:     fputc(d
      +                          buf[c++], fp);
 10096   0016A6  0E00               	movlw	low _dbuf
 10097   0016A8  2415               	addwf	i2vfpfcnvrt@c^0,w,c
 10098   0016AA  6ED9               	movwf	fsr2l,c
 10099   0016AC  6ADA               	clrf	fsr2h,c
 10100   0016AE  0E01               	movlw	high _dbuf
 10101   0016B0  22DA               	addwfc	fsr2h,f,c
 10102   0016B2  50DF               	movf	indf2,w,c
 10103   0016B4  6E0E               	movwf	??i2_vfpfcnvrt^0,c
 10104   0016B6  500E               	movf	??i2_vfpfcnvrt^0,w,c
 10105   0016B8  6E01               	movwf	i2fputc@c^0,c
 10106   0016BA  6A02               	clrf	(i2fputc@c+1)^0,c
 10107   0016BC  C00B  F003         	movff	i2vfpfcnvrt@fp,i2fputc@fp
 10108   0016C0  EC98  F014         	call	i2_fputc	;wreg free
 10109   0016C4  2A15               	incf	i2vfpfcnvrt@c^0,f,c
 10110   0016C6                     i2l3889:
 10111                           
 10112                           ;C:\Program Files\Microchip\xc8\v2.46\pic\sources\c99\common\doprnt.c: 1423:    while (c
      +                           != sizeof(dbuf)) {
 10113   0016C6  0E20               	movlw	32
 10114   0016C8  1815               	xorwf	i2vfpfcnvrt@c^0,w,c
 10115   0016CA  A4D8               	btfss	status,2,c
 10116   0016CC  EF6A  F00B         	goto	i2u308_41
 10117   0016D0  EF6C  F00B         	goto	i2u308_40
 10118   0016D4                     i2u308_41:
 10119   0016D4  EF53  F00B         	goto	i2l3885
 10120   0016D8                     i2u308_40:
 10121   0016D8  EF86  F00B         	goto	i2l1539
 10122   0016DC                     i2l3891:
 10123                           
 10124                           ;C:\Program Files\Microchip\xc8\v2.46\pic\sources\c99\common\doprnt.c: 1806:         ++*
      +                          fmt;
 10125   0016DC  500C               	movf	i2vfpfcnvrt@fmt^0,w,c
 10126   0016DE  6ED9               	movwf	fsr2l,c
 10127   0016E0  6ADA               	clrf	fsr2h,c
 10128   0016E2  2ADF               	incf	indf2,f,c
 10129   0016E4  EF86  F00B         	goto	i2l1539
 10130   0016E8                     i2l3895:
 10131                           
 10132                           ;C:\Program Files\Microchip\xc8\v2.46\pic\sources\c99\common\doprnt.c: 1811:     fputc((
      +                          int)(*fmt)[0], fp);
 10133   0016E8  500C               	movf	i2vfpfcnvrt@fmt^0,w,c
 10134   0016EA  6ED9               	movwf	fsr2l,c
 10135   0016EC  6ADA               	clrf	fsr2h,c
 10136   0016EE  CFDF FFF6          	movff	indf2,tblptrl
 10137   0016F2                     	if	1	;There is more than 1 active tblptr byte
 10138   0016F2  0E10               	movlw	high __smallconst
 10139   0016F4  6EF7               	movwf	tblptrh,c
 10140   0016F6                     	endif
 10141   0016F6                     	if	1	;Program memory is < 0x10000, tblptru is always zero
 10142   0016F6  6AF8               	clrf	tblptru,c
 10143   0016F8                     	endif
 10144   0016F8                     	if	0	;tblptru may be non-zero
 10145   0016F8                     	endif
 10146   0016F8  0008               	tblrd		*
 10147   0016FA  50F5               	movf	tablat,w,c
 10148   0016FC  6E01               	movwf	i2fputc@c^0,c
 10149   0016FE  6A02               	clrf	(i2fputc@c+1)^0,c
 10150   001700  C00B  F003         	movff	i2vfpfcnvrt@fp,i2fputc@fp
 10151   001704  EC98  F014         	call	i2_fputc	;wreg free
 10152   001708  EF6E  F00B         	goto	i2l3891
 10153   00170C                     i2l1539:
 10154   00170C  0012               	return		;funcret
 10155   00170E                     __end_ofi2_vfpfcnvrt:
 10156                           	callstack 0
 10157                           
 10158 ;; *************** function i2_fputc *****************
 10159 ;; Defined at:
 10160 ;;		line 8 in file "C:\Program Files\Microchip\xc8\v2.46\pic\sources\c99\common\nf_fputc.c"
 10161 ;; Parameters:    Size  Location     Type
 10162 ;;  c               2    0[COMRAM] int 
 10163 ;;  fp              1    2[COMRAM] PTR struct _IO_FILE
 10164 ;;		 -> i2sprintf@f(12), sprintf@f(12), 
 10165 ;; Auto vars:     Size  Location     Type
 10166 ;;		None
 10167 ;; Return value:  Size  Location     Type
 10168 ;;                  2    0[COMRAM] int 
 10169 ;; Registers used:
 10170 ;;		wreg, fsr1l, fsr1h, fsr2l, fsr2h, status,2, status,0, cstack
 10171 ;; Tracked objects:
 10172 ;;		On entry : 0/0
 10173 ;;		On exit  : 0/0
 10174 ;;		Unchanged: 0/0
 10175 ;; Data sizes:     COMRAM   BANK0   BANK1   BANK2   BANK3   BANK4   BANK5   BANK6   BANK7   BANK8   BANK9  BANK10  BANK1
      +1  BANK12  BANK13  BANK14  BANK15
 10176 ;;      Params:         3       0       0       0       0       0       0       0       0       0       0       0       
      +0       0       0       0       0
 10177 ;;      Locals:         0       0       0       0       0       0       0       0       0       0       0       0       
      +0       0       0       0       0
 10178 ;;      Temps:          5       0       0       0       0       0       0       0       0       0       0       0       
      +0       0       0       0       0
 10179 ;;      Totals:         8       0       0       0       0       0       0       0       0       0       0       0       
      +0       0       0       0       0
 10180 ;;Total ram usage:        8 bytes
 10181 ;; Hardware stack levels used: 1
 10182 ;; Hardware stack levels required when called: 1
 10183 ;; This function calls:
 10184 ;;		i2_putch
 10185 ;; This function is called by:
 10186 ;;		i2_vfpfcnvrt
 10187 ;; This function uses a non-reentrant model
 10188 ;;
 10189                           
 10190                           	psect	text65
 10191   002930                     __ptext65:
 10192                           	callstack 0
 10193   002930                     i2_fputc:
 10194                           	callstack 14
 10195   002930  5003               	movf	i2fputc@fp^0,w,c
 10196   002932  B4D8               	btfsc	status,2,c
 10197   002934  EF9E  F014         	goto	i2u293_41
 10198   002938  EFA0  F014         	goto	i2u293_40
 10199   00293C                     i2u293_41:
 10200   00293C  EFA8  F014         	goto	i2l3815
 10201   002940                     i2u293_40:
 10202   002940  5003               	movf	i2fputc@fp^0,w,c
 10203   002942  A4D8               	btfss	status,2,c
 10204   002944  EFA6  F014         	goto	i2u294_41
 10205   002948  EFA8  F014         	goto	i2u294_40
 10206   00294C                     i2u294_41:
 10207   00294C  EFAD  F014         	goto	i2l3817
 10208   002950                     i2u294_40:
 10209   002950                     i2l3815:
 10210   002950  5001               	movf	i2fputc@c^0,w,c
 10211   002952  EC68  F01E         	call	i2_putch
 10212   002956  EFEC  F014         	goto	i2l1564
 10213   00295A                     i2l3817:
 10214   00295A  5003               	movf	i2fputc@fp^0,w,c
 10215   00295C  6ED9               	movwf	fsr2l,c
 10216   00295E  6ADA               	clrf	fsr2h,c
 10217   002960  0E0A               	movlw	10
 10218   002962  26D9               	addwf	fsr2l,f,c
 10219   002964  50DE               	movf	postinc2,w,c
 10220   002966  10DE               	iorwf	postinc2,w,c
 10221   002968  B4D8               	btfsc	status,2,c
 10222   00296A  EFB9  F014         	goto	i2u295_41
 10223   00296E  EFBB  F014         	goto	i2u295_40
 10224   002972                     i2u295_41:
 10225   002972  EFD4  F014         	goto	i2l3821
 10226   002976                     i2u295_40:
 10227   002976  5003               	movf	i2fputc@fp^0,w,c
 10228   002978  6ED9               	movwf	fsr2l,c
 10229   00297A  6ADA               	clrf	fsr2h,c
 10230   00297C  0E0A               	movlw	10
 10231   00297E  26D9               	addwf	fsr2l,f,c
 10232   002980  5003               	movf	i2fputc@fp^0,w,c
 10233   002982  6EE1               	movwf	fsr1l,c
 10234   002984  6AE2               	clrf	fsr1h,c
 10235   002986  0E03               	movlw	3
 10236   002988  26E1               	addwf	fsr1l,f,c
 10237   00298A  50DE               	movf	postinc2,w,c
 10238   00298C  5CE6               	subwf	postinc1,w,c
 10239   00298E  50E6               	movf	postinc1,w,c
 10240   002990  0A80               	xorlw	128
 10241   002992  6E08               	movwf	(??i2_fputc+4)^0,c
 10242   002994  50DE               	movf	postinc2,w,c
 10243   002996  0A80               	xorlw	128
 10244   002998  5808               	subwfb	(??i2_fputc+4)^0,w,c
 10245   00299A  B0D8               	btfsc	status,0,c
 10246   00299C  EFD2  F014         	goto	i2u296_41
 10247   0029A0  EFD4  F014         	goto	i2u296_40
 10248   0029A4                     i2u296_41:
 10249   0029A4  EFEC  F014         	goto	i2l1564
 10250   0029A8                     i2u296_40:
 10251   0029A8                     i2l3821:
 10252   0029A8  5003               	movf	i2fputc@fp^0,w,c
 10253   0029AA  6ED9               	movwf	fsr2l,c
 10254   0029AC  6ADA               	clrf	fsr2h,c
 10255   0029AE  0E03               	movlw	3
 10256   0029B0  26D9               	addwf	fsr2l,f,c
 10257   0029B2  50DF               	movf	indf2,w,c
 10258   0029B4  6E04               	movwf	??i2_fputc^0,c
 10259   0029B6  5003               	movf	i2fputc@fp^0,w,c
 10260   0029B8  6ED9               	movwf	fsr2l,c
 10261   0029BA  6ADA               	clrf	fsr2h,c
 10262   0029BC  50DF               	movf	indf2,w,c
 10263   0029BE  2404               	addwf	??i2_fputc^0,w,c
 10264   0029C0  6ED9               	movwf	fsr2l,c
 10265   0029C2  6ADA               	clrf	fsr2h,c
 10266   0029C4  C001  FFDF         	movff	i2fputc@c,indf2
 10267   0029C8  5003               	movf	i2fputc@fp^0,w,c
 10268   0029CA  6ED9               	movwf	fsr2l,c
 10269   0029CC  6ADA               	clrf	fsr2h,c
 10270   0029CE  0E03               	movlw	3
 10271   0029D0  26D9               	addwf	fsr2l,f,c
 10272   0029D2  2ADE               	incf	postinc2,f,c
 10273   0029D4  0E00               	movlw	0
 10274   0029D6  22DD               	addwfc	postdec2,f,c
 10275   0029D8                     i2l1564:
 10276   0029D8  0012               	return		;funcret
 10277   0029DA                     __end_ofi2_fputc:
 10278                           	callstack 0
 10279                           
 10280 ;; *************** function i2_putch *****************
 10281 ;; Defined at:
 10282 ;;		line 7 in file "C:\Program Files\Microchip\xc8\v2.46\pic\sources\c99\common\putch.c"
 10283 ;; Parameters:    Size  Location     Type
 10284 ;;  c               1    wreg     unsigned char 
 10285 ;; Auto vars:     Size  Location     Type
 10286 ;;  c               1  (no storage) unsigned char 
 10287 ;; Return value:  Size  Location     Type
 10288 ;;                  1    wreg      void 
 10289 ;; Registers used:
 10290 ;;		wreg
 10291 ;; Tracked objects:
 10292 ;;		On entry : 0/0
 10293 ;;		On exit  : 0/0
 10294 ;;		Unchanged: 0/0
 10295 ;; Data sizes:     COMRAM   BANK0   BANK1   BANK2   BANK3   BANK4   BANK5   BANK6   BANK7   BANK8   BANK9  BANK10  BANK1
      +1  BANK12  BANK13  BANK14  BANK15
 10296 ;;      Params:         0       0       0       0       0       0       0       0       0       0       0       0       
      +0       0       0       0       0
 10297 ;;      Locals:         0       0       0       0       0       0       0       0       0       0       0       0       
      +0       0       0       0       0
 10298 ;;      Temps:          0       0       0       0       0       0       0       0       0       0       0       0       
      +0       0       0       0       0
 10299 ;;      Totals:         0       0       0       0       0       0       0       0       0       0       0       0       
      +0       0       0       0       0
 10300 ;;Total ram usage:        0 bytes
 10301 ;; Hardware stack levels used: 1
 10302 ;; This function calls:
 10303 ;;		Nothing
 10304 ;; This function is called by:
 10305 ;;		i2_fputc
 10306 ;; This function uses a non-reentrant model
 10307 ;;
 10308                           
 10309                           	psect	text66
 10310   003CD0                     __ptext66:
 10311                           	callstack 0
 10312   003CD0                     i2_putch:
 10313                           	callstack 14
 10314   003CD0  0012               	return		;funcret
 10315   003CD2                     __end_ofi2_putch:
 10316                           	callstack 0
 10317                           
 10318 ;; *************** function i2_abs *****************
 10319 ;; Defined at:
 10320 ;;		line 1 in file "C:\Program Files\Microchip\xc8\v2.46\pic\sources\c99\common\abs.c"
 10321 ;; Parameters:    Size  Location     Type
 10322 ;;  a               2    6[COMRAM] int 
 10323 ;; Auto vars:     Size  Location     Type
 10324 ;;		None
 10325 ;; Return value:  Size  Location     Type
 10326 ;;                  2    6[COMRAM] int 
 10327 ;; Registers used:
 10328 ;;		wreg, status,2, status,0
 10329 ;; Tracked objects:
 10330 ;;		On entry : 0/0
 10331 ;;		On exit  : 0/0
 10332 ;;		Unchanged: 0/0
 10333 ;; Data sizes:     COMRAM   BANK0   BANK1   BANK2   BANK3   BANK4   BANK5   BANK6   BANK7   BANK8   BANK9  BANK10  BANK1
      +1  BANK12  BANK13  BANK14  BANK15
 10334 ;;      Params:         2       0       0       0       0       0       0       0       0       0       0       0       
      +0       0       0       0       0
 10335 ;;      Locals:         0       0       0       0       0       0       0       0       0       0       0       0       
      +0       0       0       0       0
 10336 ;;      Temps:          2       0       0       0       0       0       0       0       0       0       0       0       
      +0       0       0       0       0
 10337 ;;      Totals:         4       0       0       0       0       0       0       0       0       0       0       0       
      +0       0       0       0       0
 10338 ;;Total ram usage:        4 bytes
 10339 ;; Hardware stack levels used: 1
 10340 ;; This function calls:
 10341 ;;		Nothing
 10342 ;; This function is called by:
 10343 ;;		i2_vfpfcnvrt
 10344 ;; This function uses a non-reentrant model
 10345 ;;
 10346                           
 10347                           	psect	text67
 10348   0039EC                     __ptext67:
 10349                           	callstack 0
 10350   0039EC                     i2_abs:
 10351                           	callstack 15
 10352   0039EC  BE08               	btfsc	(i2abs@a+1)^0,7,c
 10353   0039EE  EFFB  F01C         	goto	i2u292_41
 10354   0039F2  EFFD  F01C         	goto	i2u292_40
 10355   0039F6                     i2u292_41:
 10356   0039F6  EF03  F01D         	goto	i2l1549
 10357   0039FA                     i2u292_40:
 10358   0039FA  C007  F007         	movff	i2abs@a,?i2_abs
 10359   0039FE  C008  F008         	movff	i2abs@a+1,?i2_abs+1
 10360   003A02  EF0F  F01D         	goto	i2l1552
 10361   003A06                     i2l1549:
 10362   003A06  C007  F009         	movff	i2abs@a,??i2_abs
 10363   003A0A  C008  F00A         	movff	i2abs@a+1,??i2_abs+1
 10364   003A0E  1E09               	comf	??i2_abs^0,f,c
 10365   003A10  1E0A               	comf	(??i2_abs+1)^0,f,c
 10366   003A12  4A09               	infsnz	??i2_abs^0,f,c
 10367   003A14  2A0A               	incf	(??i2_abs+1)^0,f,c
 10368   003A16  C009  F007         	movff	??i2_abs,?i2_abs
 10369   003A1A  C00A  F008         	movff	??i2_abs+1,?i2_abs+1
 10370   003A1E                     i2l1552:
 10371   003A1E  0012               	return		;funcret
 10372   003A20                     __end_ofi2_abs:
 10373                           	callstack 0
 10374                           
 10375 ;; *************** function i2___awmod *****************
 10376 ;; Defined at:
 10377 ;;		line 7 in file "C:\Program Files\Microchip\xc8\v2.46\pic\sources\c99\common\awmod.c"
 10378 ;; Parameters:    Size  Location     Type
 10379 ;;  dividend        2    0[COMRAM] int 
 10380 ;;  divisor         2    2[COMRAM] int 
 10381 ;; Auto vars:     Size  Location     Type
 10382 ;;  sign            1    5[COMRAM] unsigned char 
 10383 ;;  counter         1    4[COMRAM] unsigned char 
 10384 ;; Return value:  Size  Location     Type
 10385 ;;                  2    0[COMRAM] int 
 10386 ;; Registers used:
 10387 ;;		wreg, status,2, status,0
 10388 ;; Tracked objects:
 10389 ;;		On entry : 0/0
 10390 ;;		On exit  : 0/0
 10391 ;;		Unchanged: 0/0
 10392 ;; Data sizes:     COMRAM   BANK0   BANK1   BANK2   BANK3   BANK4   BANK5   BANK6   BANK7   BANK8   BANK9  BANK10  BANK1
      +1  BANK12  BANK13  BANK14  BANK15
 10393 ;;      Params:         4       0       0       0       0       0       0       0       0       0       0       0       
      +0       0       0       0       0
 10394 ;;      Locals:         2       0       0       0       0       0       0       0       0       0       0       0       
      +0       0       0       0       0
 10395 ;;      Temps:          0       0       0       0       0       0       0       0       0       0       0       0       
      +0       0       0       0       0
 10396 ;;      Totals:         6       0       0       0       0       0       0       0       0       0       0       0       
      +0       0       0       0       0
 10397 ;;Total ram usage:        6 bytes
 10398 ;; Hardware stack levels used: 1
 10399 ;; This function calls:
 10400 ;;		Nothing
 10401 ;; This function is called by:
 10402 ;;		i2_vfpfcnvrt
 10403 ;; This function uses a non-reentrant model
 10404 ;;
 10405                           
 10406                           	psect	text68
 10407   0027D4                     __ptext68:
 10408                           	callstack 0
 10409   0027D4                     i2___awmod:
 10410                           	callstack 15
 10411   0027D4  0E00               	movlw	0
 10412   0027D6  6E06               	movwf	i2___awmod@sign^0,c
 10413   0027D8  BE02               	btfsc	(i2___awmod@dividend+1)^0,7,c
 10414   0027DA  EFF3  F013         	goto	i2u286_40
 10415   0027DE  EFF1  F013         	goto	i2u286_41
 10416   0027E2                     i2u286_41:
 10417   0027E2  EFF9  F013         	goto	i2l3779
 10418   0027E6                     i2u286_40:
 10419   0027E6  6C01               	negf	i2___awmod@dividend^0,c
 10420   0027E8  1E02               	comf	(i2___awmod@dividend+1)^0,f,c
 10421   0027EA  B0D8               	btfsc	status,0,c
 10422   0027EC  2A02               	incf	(i2___awmod@dividend+1)^0,f,c
 10423   0027EE  0E01               	movlw	1
 10424   0027F0  6E06               	movwf	i2___awmod@sign^0,c
 10425   0027F2                     i2l3779:
 10426   0027F2  BE04               	btfsc	(i2___awmod@divisor+1)^0,7,c
 10427   0027F4  EF00  F014         	goto	i2u287_40
 10428   0027F8  EFFE  F013         	goto	i2u287_41
 10429   0027FC                     i2u287_41:
 10430   0027FC  EF04  F014         	goto	i2l3783
 10431   002800                     i2u287_40:
 10432   002800  6C03               	negf	i2___awmod@divisor^0,c
 10433   002802  1E04               	comf	(i2___awmod@divisor+1)^0,f,c
 10434   002804  B0D8               	btfsc	status,0,c
 10435   002806  2A04               	incf	(i2___awmod@divisor+1)^0,f,c
 10436   002808                     i2l3783:
 10437   002808  5003               	movf	i2___awmod@divisor^0,w,c
 10438   00280A  1004               	iorwf	(i2___awmod@divisor+1)^0,w,c
 10439   00280C  B4D8               	btfsc	status,2,c
 10440   00280E  EF0B  F014         	goto	i2u288_41
 10441   002812  EF0D  F014         	goto	i2u288_40
 10442   002816                     i2u288_41:
 10443   002816  EF31  F014         	goto	i2l3799
 10444   00281A                     i2u288_40:
 10445   00281A  0E01               	movlw	1
 10446   00281C  6E05               	movwf	i2___awmod@counter^0,c
 10447   00281E  EF15  F014         	goto	i2l3789
 10448   002822                     i2l3787:
 10449   002822  90D8               	bcf	status,0,c
 10450   002824  3603               	rlcf	i2___awmod@divisor^0,f,c
 10451   002826  3604               	rlcf	(i2___awmod@divisor+1)^0,f,c
 10452   002828  2A05               	incf	i2___awmod@counter^0,f,c
 10453   00282A                     i2l3789:
 10454   00282A  AE04               	btfss	(i2___awmod@divisor+1)^0,7,c
 10455   00282C  EF1A  F014         	goto	i2u289_41
 10456   002830  EF1C  F014         	goto	i2u289_40
 10457   002834                     i2u289_41:
 10458   002834  EF11  F014         	goto	i2l3787
 10459   002838                     i2u289_40:
 10460   002838                     i2l3791:
 10461   002838  5003               	movf	i2___awmod@divisor^0,w,c
 10462   00283A  5C01               	subwf	i2___awmod@dividend^0,w,c
 10463   00283C  5004               	movf	(i2___awmod@divisor+1)^0,w,c
 10464   00283E  5802               	subwfb	(i2___awmod@dividend+1)^0,w,c
 10465   002840  A0D8               	btfss	status,0,c
 10466   002842  EF25  F014         	goto	i2u290_41
 10467   002846  EF27  F014         	goto	i2u290_40
 10468   00284A                     i2u290_41:
 10469   00284A  EF2B  F014         	goto	i2l3795
 10470   00284E                     i2u290_40:
 10471   00284E  5003               	movf	i2___awmod@divisor^0,w,c
 10472   002850  5E01               	subwf	i2___awmod@dividend^0,f,c
 10473   002852  5004               	movf	(i2___awmod@divisor+1)^0,w,c
 10474   002854  5A02               	subwfb	(i2___awmod@dividend+1)^0,f,c
 10475   002856                     i2l3795:
 10476   002856  90D8               	bcf	status,0,c
 10477   002858  3204               	rrcf	(i2___awmod@divisor+1)^0,f,c
 10478   00285A  3203               	rrcf	i2___awmod@divisor^0,f,c
 10479   00285C  2E05               	decfsz	i2___awmod@counter^0,f,c
 10480   00285E  EF1C  F014         	goto	i2l3791
 10481   002862                     i2l3799:
 10482   002862  5006               	movf	i2___awmod@sign^0,w,c
 10483   002864  B4D8               	btfsc	status,2,c
 10484   002866  EF37  F014         	goto	i2u291_41
 10485   00286A  EF39  F014         	goto	i2u291_40
 10486   00286E                     i2u291_41:
 10487   00286E  EF3D  F014         	goto	i2l3803
 10488   002872                     i2u291_40:
 10489   002872  6C01               	negf	i2___awmod@dividend^0,c
 10490   002874  1E02               	comf	(i2___awmod@dividend+1)^0,f,c
 10491   002876  B0D8               	btfsc	status,0,c
 10492   002878  2A02               	incf	(i2___awmod@dividend+1)^0,f,c
 10493   00287A                     i2l3803:
 10494   00287A  C001  F001         	movff	i2___awmod@dividend,?i2___awmod
 10495   00287E  C002  F002         	movff	i2___awmod@dividend+1,?i2___awmod+1
 10496   002882  0012               	return		;funcret
 10497   002884                     __end_ofi2___awmod:
 10498                           	callstack 0
 10499                           
 10500 ;; *************** function i2___awdiv *****************
 10501 ;; Defined at:
 10502 ;;		line 7 in file "C:\Program Files\Microchip\xc8\v2.46\pic\sources\c99\common\awdiv.c"
 10503 ;; Parameters:    Size  Location     Type
 10504 ;;  dividend        2    0[COMRAM] int 
 10505 ;;  divisor         2    2[COMRAM] int 
 10506 ;; Auto vars:     Size  Location     Type
 10507 ;;  quotient        2    6[COMRAM] int 
 10508 ;;  sign            1    5[COMRAM] unsigned char 
 10509 ;;  counter         1    4[COMRAM] unsigned char 
 10510 ;; Return value:  Size  Location     Type
 10511 ;;                  2    0[COMRAM] int 
 10512 ;; Registers used:
 10513 ;;		wreg, status,2, status,0
 10514 ;; Tracked objects:
 10515 ;;		On entry : 0/0
 10516 ;;		On exit  : 0/0
 10517 ;;		Unchanged: 0/0
 10518 ;; Data sizes:     COMRAM   BANK0   BANK1   BANK2   BANK3   BANK4   BANK5   BANK6   BANK7   BANK8   BANK9  BANK10  BANK1
      +1  BANK12  BANK13  BANK14  BANK15
 10519 ;;      Params:         4       0       0       0       0       0       0       0       0       0       0       0       
      +0       0       0       0       0
 10520 ;;      Locals:         4       0       0       0       0       0       0       0       0       0       0       0       
      +0       0       0       0       0
 10521 ;;      Temps:          0       0       0       0       0       0       0       0       0       0       0       0       
      +0       0       0       0       0
 10522 ;;      Totals:         8       0       0       0       0       0       0       0       0       0       0       0       
      +0       0       0       0       0
 10523 ;;Total ram usage:        8 bytes
 10524 ;; Hardware stack levels used: 1
 10525 ;; This function calls:
 10526 ;;		Nothing
 10527 ;; This function is called by:
 10528 ;;		i2_vfpfcnvrt
 10529 ;; This function uses a non-reentrant model
 10530 ;;
 10531                           
 10532                           	psect	text69
 10533   0024FC                     __ptext69:
 10534                           	callstack 0
 10535   0024FC                     i2___awdiv:
 10536                           	callstack 15
 10537   0024FC  0E00               	movlw	0
 10538   0024FE  6E06               	movwf	i2___awdiv@sign^0,c
 10539   002500  BE04               	btfsc	(i2___awdiv@divisor+1)^0,7,c
 10540   002502  EF87  F012         	goto	i2u280_40
 10541   002506  EF85  F012         	goto	i2u280_41
 10542   00250A                     i2u280_41:
 10543   00250A  EF8D  F012         	goto	i2l3735
 10544   00250E                     i2u280_40:
 10545   00250E  6C03               	negf	i2___awdiv@divisor^0,c
 10546   002510  1E04               	comf	(i2___awdiv@divisor+1)^0,f,c
 10547   002512  B0D8               	btfsc	status,0,c
 10548   002514  2A04               	incf	(i2___awdiv@divisor+1)^0,f,c
 10549   002516  0E01               	movlw	1
 10550   002518  6E06               	movwf	i2___awdiv@sign^0,c
 10551   00251A                     i2l3735:
 10552   00251A  BE02               	btfsc	(i2___awdiv@dividend+1)^0,7,c
 10553   00251C  EF94  F012         	goto	i2u281_40
 10554   002520  EF92  F012         	goto	i2u281_41
 10555   002524                     i2u281_41:
 10556   002524  EF9A  F012         	goto	i2l3741
 10557   002528                     i2u281_40:
 10558   002528  6C01               	negf	i2___awdiv@dividend^0,c
 10559   00252A  1E02               	comf	(i2___awdiv@dividend+1)^0,f,c
 10560   00252C  B0D8               	btfsc	status,0,c
 10561   00252E  2A02               	incf	(i2___awdiv@dividend+1)^0,f,c
 10562   002530  0E01               	movlw	1
 10563   002532  1A06               	xorwf	i2___awdiv@sign^0,f,c
 10564   002534                     i2l3741:
 10565   002534  0E00               	movlw	0
 10566   002536  6E08               	movwf	(i2___awdiv@quotient+1)^0,c
 10567   002538  0E00               	movlw	0
 10568   00253A  6E07               	movwf	i2___awdiv@quotient^0,c
 10569   00253C  5003               	movf	i2___awdiv@divisor^0,w,c
 10570   00253E  1004               	iorwf	(i2___awdiv@divisor+1)^0,w,c
 10571   002540  B4D8               	btfsc	status,2,c
 10572   002542  EFA5  F012         	goto	i2u282_41
 10573   002546  EFA7  F012         	goto	i2u282_40
 10574   00254A                     i2u282_41:
 10575   00254A  EFCF  F012         	goto	i2l3763
 10576   00254E                     i2u282_40:
 10577   00254E  0E01               	movlw	1
 10578   002550  6E05               	movwf	i2___awdiv@counter^0,c
 10579   002552  EFAF  F012         	goto	i2l3749
 10580   002556                     i2l3747:
 10581   002556  90D8               	bcf	status,0,c
 10582   002558  3603               	rlcf	i2___awdiv@divisor^0,f,c
 10583   00255A  3604               	rlcf	(i2___awdiv@divisor+1)^0,f,c
 10584   00255C  2A05               	incf	i2___awdiv@counter^0,f,c
 10585   00255E                     i2l3749:
 10586   00255E  AE04               	btfss	(i2___awdiv@divisor+1)^0,7,c
 10587   002560  EFB4  F012         	goto	i2u283_41
 10588   002564  EFB6  F012         	goto	i2u283_40
 10589   002568                     i2u283_41:
 10590   002568  EFAB  F012         	goto	i2l3747
 10591   00256C                     i2u283_40:
 10592   00256C                     i2l3751:
 10593   00256C  90D8               	bcf	status,0,c
 10594   00256E  3607               	rlcf	i2___awdiv@quotient^0,f,c
 10595   002570  3608               	rlcf	(i2___awdiv@quotient+1)^0,f,c
 10596   002572  5003               	movf	i2___awdiv@divisor^0,w,c
 10597   002574  5C01               	subwf	i2___awdiv@dividend^0,w,c
 10598   002576  5004               	movf	(i2___awdiv@divisor+1)^0,w,c
 10599   002578  5802               	subwfb	(i2___awdiv@dividend+1)^0,w,c
 10600   00257A  A0D8               	btfss	status,0,c
 10601   00257C  EFC2  F012         	goto	i2u284_41
 10602   002580  EFC4  F012         	goto	i2u284_40
 10603   002584                     i2u284_41:
 10604   002584  EFC9  F012         	goto	i2l3759
 10605   002588                     i2u284_40:
 10606   002588  5003               	movf	i2___awdiv@divisor^0,w,c
 10607   00258A  5E01               	subwf	i2___awdiv@dividend^0,f,c
 10608   00258C  5004               	movf	(i2___awdiv@divisor+1)^0,w,c
 10609   00258E  5A02               	subwfb	(i2___awdiv@dividend+1)^0,f,c
 10610   002590  8007               	bsf	i2___awdiv@quotient^0,0,c
 10611   002592                     i2l3759:
 10612   002592  90D8               	bcf	status,0,c
 10613   002594  3204               	rrcf	(i2___awdiv@divisor+1)^0,f,c
 10614   002596  3203               	rrcf	i2___awdiv@divisor^0,f,c
 10615   002598  2E05               	decfsz	i2___awdiv@counter^0,f,c
 10616   00259A  EFB6  F012         	goto	i2l3751
 10617   00259E                     i2l3763:
 10618   00259E  5006               	movf	i2___awdiv@sign^0,w,c
 10619   0025A0  B4D8               	btfsc	status,2,c
 10620   0025A2  EFD5  F012         	goto	i2u285_41
 10621   0025A6  EFD7  F012         	goto	i2u285_40
 10622   0025AA                     i2u285_41:
 10623   0025AA  EFDB  F012         	goto	i2l3767
 10624   0025AE                     i2u285_40:
 10625   0025AE  6C07               	negf	i2___awdiv@quotient^0,c
 10626   0025B0  1E08               	comf	(i2___awdiv@quotient+1)^0,f,c
 10627   0025B2  B0D8               	btfsc	status,0,c
 10628   0025B4  2A08               	incf	(i2___awdiv@quotient+1)^0,f,c
 10629   0025B6                     i2l3767:
 10630   0025B6  C007  F001         	movff	i2___awdiv@quotient,?i2___awdiv
 10631   0025BA  C008  F002         	movff	i2___awdiv@quotient+1,?i2___awdiv+1
 10632   0025BE  0012               	return		;funcret
 10633   0025C0                     __end_ofi2___awdiv:
 10634                           	callstack 0
 10635                           
 10636 ;; *************** function i2_memset *****************
 10637 ;; Defined at:
 10638 ;;		line 3 in file "C:\Program Files\Microchip\xc8\v2.46\pic\sources\c99\common\memset.c"
 10639 ;; Parameters:    Size  Location     Type
 10640 ;;  dest            1    0[COMRAM] PTR void 
 10641 ;;		 -> can_D_str(6), can_C_str(6), can_B_str(6), can_A_str(6), 
 10642 ;;  c               2    1[COMRAM] int 
 10643 ;;  n               2    3[COMRAM] unsigned int 
 10644 ;; Auto vars:     Size  Location     Type
 10645 ;;  p               1    5[COMRAM] PTR unsigned char 
 10646 ;;		 -> can_D_str(6), can_C_str(6), can_B_str(6), can_A_str(6), 
 10647 ;; Return value:  Size  Location     Type
 10648 ;;                  2    0[COMRAM] PTR void 
 10649 ;; Registers used:
 10650 ;;		wreg, fsr2l, fsr2h, status,2, status,0
 10651 ;; Tracked objects:
 10652 ;;		On entry : 0/0
 10653 ;;		On exit  : 0/0
 10654 ;;		Unchanged: 0/0
 10655 ;; Data sizes:     COMRAM   BANK0   BANK1   BANK2   BANK3   BANK4   BANK5   BANK6   BANK7   BANK8   BANK9  BANK10  BANK1
      +1  BANK12  BANK13  BANK14  BANK15
 10656 ;;      Params:         5       0       0       0       0       0       0       0       0       0       0       0       
      +0       0       0       0       0
 10657 ;;      Locals:         1       0       0       0       0       0       0       0       0       0       0       0       
      +0       0       0       0       0
 10658 ;;      Temps:          0       0       0       0       0       0       0       0       0       0       0       0       
      +0       0       0       0       0
 10659 ;;      Totals:         6       0       0       0       0       0       0       0       0       0       0       0       
      +0       0       0       0       0
 10660 ;;Total ram usage:        6 bytes
 10661 ;; Hardware stack levels used: 1
 10662 ;; This function calls:
 10663 ;;		Nothing
 10664 ;; This function is called by:
 10665 ;;		i2_convert_uint16_to_string
 10666 ;; This function uses a non-reentrant model
 10667 ;;
 10668                           
 10669                           	psect	text70
 10670   003A52                     __ptext70:
 10671                           	callstack 0
 10672   003A52                     i2_memset:
 10673                           	callstack 18
 10674   003A52  C001  F006         	movff	i2memset@dest,i2memset@p
 10675   003A56  EF33  F01D         	goto	i2l4215
 10676   003A5A                     i2l4211:
 10677   003A5A  5006               	movf	i2memset@p^0,w,c
 10678   003A5C  6ED9               	movwf	fsr2l,c
 10679   003A5E  6ADA               	clrf	fsr2h,c
 10680   003A60  C002  FFDF         	movff	i2memset@c,indf2
 10681   003A64  2A06               	incf	i2memset@p^0,f,c
 10682   003A66                     i2l4215:
 10683   003A66  0604               	decf	i2memset@n^0,f,c
 10684   003A68  A0D8               	btfss	status,0,c
 10685   003A6A  0605               	decf	(i2memset@n+1)^0,f,c
 10686   003A6C  2804               	incf	i2memset@n^0,w,c
 10687   003A6E  E106               	bnz	i2u352_41
 10688   003A70  2805               	incf	(i2memset@n+1)^0,w,c
 10689   003A72  A4D8               	btfss	status,2,c
 10690   003A74  EF3E  F01D         	goto	i2u352_41
 10691   003A78  EF40  F01D         	goto	i2u352_40
 10692   003A7C                     i2u352_41:
 10693   003A7C  EF2D  F01D         	goto	i2l4211
 10694   003A80                     i2u352_40:
 10695   003A80  0012               	return		;funcret
 10696   003A82                     __end_ofi2_memset:
 10697                           	callstack 0
 10698                           
 10699 ;; *************** function _clear_eeprom *****************
 10700 ;; Defined at:
 10701 ;;		line 150 in file "application.c"
 10702 ;; Parameters:    Size  Location     Type
 10703 ;;		None
 10704 ;; Auto vars:     Size  Location     Type
 10705 ;;		None
 10706 ;; Return value:  Size  Location     Type
 10707 ;;                  1    wreg      void 
 10708 ;; Registers used:
 10709 ;;		wreg, status,2, status,0, cstack
 10710 ;; Tracked objects:
 10711 ;;		On entry : 0/0
 10712 ;;		On exit  : 0/0
 10713 ;;		Unchanged: 0/0
 10714 ;; Data sizes:     COMRAM   BANK0   BANK1   BANK2   BANK3   BANK4   BANK5   BANK6   BANK7   BANK8   BANK9  BANK10  BANK1
      +1  BANK12  BANK13  BANK14  BANK15
 10715 ;;      Params:         0       0       0       0       0       0       0       0       0       0       0       0       
      +0       0       0       0       0
 10716 ;;      Locals:         0       0       0       0       0       0       0       0       0       0       0       0       
      +0       0       0       0       0
 10717 ;;      Temps:          0       0       0       0       0       0       0       0       0       0       0       0       
      +0       0       0       0       0
 10718 ;;      Totals:         0       0       0       0       0       0       0       0       0       0       0       0       
      +0       0       0       0       0
 10719 ;;Total ram usage:        0 bytes
 10720 ;; Hardware stack levels used: 1
 10721 ;; Hardware stack levels required when called: 1
 10722 ;; This function calls:
 10723 ;;		_Data_EEPROM_WriteByte
 10724 ;; This function is called by:
 10725 ;;		_RB5_LOW_APP_ISR
 10726 ;; This function uses a non-reentrant model
 10727 ;;
 10728                           
 10729                           	psect	text71
 10730   0037B0                     __ptext71:
 10731                           	callstack 0
 10732   0037B0                     _clear_eeprom:
 10733                           	callstack 19
 10734   0037B0                     
 10735                           ;application.c: 151:     Data_EEPROM_WriteByte(0x0000, 0x00);
 10736   0037B0  0E00               	movlw	0
 10737   0037B2  6E02               	movwf	(Data_EEPROM_WriteByte@adr+1)^0,c
 10738   0037B4  0E00               	movlw	0
 10739   0037B6  6E01               	movwf	Data_EEPROM_WriteByte@adr^0,c
 10740   0037B8  0E00               	movlw	0
 10741   0037BA  6E03               	movwf	Data_EEPROM_WriteByte@data^0,c
 10742   0037BC  EC95  F01B         	call	_Data_EEPROM_WriteByte	;wreg free
 10743                           
 10744                           ;application.c: 152:     Data_EEPROM_WriteByte(0x0008, 0x00);
 10745   0037C0  0E00               	movlw	0
 10746   0037C2  6E02               	movwf	(Data_EEPROM_WriteByte@adr+1)^0,c
 10747   0037C4  0E08               	movlw	8
 10748   0037C6  6E01               	movwf	Data_EEPROM_WriteByte@adr^0,c
 10749   0037C8  0E00               	movlw	0
 10750   0037CA  6E03               	movwf	Data_EEPROM_WriteByte@data^0,c
 10751   0037CC  EC95  F01B         	call	_Data_EEPROM_WriteByte	;wreg free
 10752                           
 10753                           ;application.c: 153:     Data_EEPROM_WriteByte(0x0010, 0x00);
 10754   0037D0  0E00               	movlw	0
 10755   0037D2  6E02               	movwf	(Data_EEPROM_WriteByte@adr+1)^0,c
 10756   0037D4  0E10               	movlw	16
 10757   0037D6  6E01               	movwf	Data_EEPROM_WriteByte@adr^0,c
 10758   0037D8  0E00               	movlw	0
 10759   0037DA  6E03               	movwf	Data_EEPROM_WriteByte@data^0,c
 10760   0037DC  EC95  F01B         	call	_Data_EEPROM_WriteByte	;wreg free
 10761                           
 10762                           ;application.c: 154:     Data_EEPROM_WriteByte(0x0018, 0x00);
 10763   0037E0  0E00               	movlw	0
 10764   0037E2  6E02               	movwf	(Data_EEPROM_WriteByte@adr+1)^0,c
 10765   0037E4  0E18               	movlw	24
 10766   0037E6  6E01               	movwf	Data_EEPROM_WriteByte@adr^0,c
 10767   0037E8  0E00               	movlw	0
 10768   0037EA  6E03               	movwf	Data_EEPROM_WriteByte@data^0,c
 10769   0037EC  EC95  F01B         	call	_Data_EEPROM_WriteByte	;wreg free
 10770   0037F0  0012               	return		;funcret
 10771   0037F2                     __end_of_clear_eeprom:
 10772                           	callstack 0
 10773                           
 10774 ;; *************** function _INT2_ISR *****************
 10775 ;; Defined at:
 10776 ;;		line 57 in file "MCAL_Layer/Interrupt/mcal_external_interrupt.c"
 10777 ;; Parameters:    Size  Location     Type
 10778 ;;		None
 10779 ;; Auto vars:     Size  Location     Type
 10780 ;;		None
 10781 ;; Return value:  Size  Location     Type
 10782 ;;                  1    wreg      void 
 10783 ;; Registers used:
 10784 ;;		wreg, status,2, status,0, pcl, pclath, pclatu, tosl, cstack
 10785 ;; Tracked objects:
 10786 ;;		On entry : 0/0
 10787 ;;		On exit  : 0/0
 10788 ;;		Unchanged: 0/0
 10789 ;; Data sizes:     COMRAM   BANK0   BANK1   BANK2   BANK3   BANK4   BANK5   BANK6   BANK7   BANK8   BANK9  BANK10  BANK1
      +1  BANK12  BANK13  BANK14  BANK15
 10790 ;;      Params:         0       0       0       0       0       0       0       0       0       0       0       0       
      +0       0       0       0       0
 10791 ;;      Locals:         0       0       0       0       0       0       0       0       0       0       0       0       
      +0       0       0       0       0
 10792 ;;      Temps:          0       0       0       0       0       0       0       0       0       0       0       0       
      +0       0       0       0       0
 10793 ;;      Totals:         0       0       0       0       0       0       0       0       0       0       0       0       
      +0       0       0       0       0
 10794 ;;Total ram usage:        0 bytes
 10795 ;; Hardware stack levels used: 1
 10796 ;; Hardware stack levels required when called: 3
 10797 ;; This function calls:
 10798 ;;		NULL
 10799 ;;		_INT0_APP_ISR
 10800 ;;		_INT1_APP_ISR
 10801 ;;		_INT2_APP_ISR
 10802 ;; This function is called by:
 10803 ;;		_InterruptManager
 10804 ;; This function uses a non-reentrant model
 10805 ;;
 10806                           
 10807                           	psect	text72
 10808   003ADE                     __ptext72:
 10809                           	callstack 0
 10810   003ADE                     _INT2_ISR:
 10811                           	callstack 19
 10812   003ADE                     
 10813                           ;MCAL_Layer/Interrupt/mcal_external_interrupt.c: 58:     (INTCON3bits.INT2IF = 0);
 10814   003ADE  92F0               	bcf	240,1,c	;volatile
 10815   003AE0                     
 10816                           ;MCAL_Layer/Interrupt/mcal_external_interrupt.c: 60:     if(INT2_InterruptHandler){
 10817   003AE0  505F               	movf	_INT2_InterruptHandler^0,w,c
 10818   003AE2  1060               	iorwf	(_INT2_InterruptHandler+1)^0,w,c
 10819   003AE4  B4D8               	btfsc	status,2,c
 10820   003AE6  EF77  F01D         	goto	i2u431_41
 10821   003AEA  EF79  F01D         	goto	i2u431_40
 10822   003AEE                     i2u431_41:
 10823   003AEE  EF85  F01D         	goto	i2l440
 10824   003AF2                     i2u431_40:
 10825   003AF2                     
 10826                           ;MCAL_Layer/Interrupt/mcal_external_interrupt.c: 61:         INT2_InterruptHandler();
 10827   003AF2  D802               	call	i2u432_48
 10828   003AF4  EF85  F01D         	goto	i2u432_49
 10829   003AF8                     i2u432_48:
 10830   003AF8  0005               	push	
 10831   003AFA  6EFA               	movwf	pclath,c
 10832   003AFC  505F               	movf	_INT2_InterruptHandler^0,w,c
 10833   003AFE  6EFD               	movwf	tosl,c
 10834   003B00  5060               	movf	(_INT2_InterruptHandler+1)^0,w,c
 10835   003B02  6EFE               	movwf	tosh,c
 10836   003B04  6AFF               	clrf	tosu,c
 10837   003B06  50FA               	movf	pclath,w,c
 10838   003B08  0012               	return		;indir
 10839   003B0A                     i2u432_49:
 10840   003B0A                     i2l440:
 10841   003B0A  0012               	return		;funcret
 10842   003B0C                     __end_of_INT2_ISR:
 10843                           	callstack 0
 10844                           
 10845 ;; *************** function _INT1_ISR *****************
 10846 ;; Defined at:
 10847 ;;		line 49 in file "MCAL_Layer/Interrupt/mcal_external_interrupt.c"
 10848 ;; Parameters:    Size  Location     Type
 10849 ;;		None
 10850 ;; Auto vars:     Size  Location     Type
 10851 ;;		None
 10852 ;; Return value:  Size  Location     Type
 10853 ;;                  1    wreg      void 
 10854 ;; Registers used:
 10855 ;;		wreg, status,2, status,0, pcl, pclath, pclatu, tosl, cstack
 10856 ;; Tracked objects:
 10857 ;;		On entry : 0/0
 10858 ;;		On exit  : 0/0
 10859 ;;		Unchanged: 0/0
 10860 ;; Data sizes:     COMRAM   BANK0   BANK1   BANK2   BANK3   BANK4   BANK5   BANK6   BANK7   BANK8   BANK9  BANK10  BANK1
      +1  BANK12  BANK13  BANK14  BANK15
 10861 ;;      Params:         0       0       0       0       0       0       0       0       0       0       0       0       
      +0       0       0       0       0
 10862 ;;      Locals:         0       0       0       0       0       0       0       0       0       0       0       0       
      +0       0       0       0       0
 10863 ;;      Temps:          0       0       0       0       0       0       0       0       0       0       0       0       
      +0       0       0       0       0
 10864 ;;      Totals:         0       0       0       0       0       0       0       0       0       0       0       0       
      +0       0       0       0       0
 10865 ;;Total ram usage:        0 bytes
 10866 ;; Hardware stack levels used: 1
 10867 ;; Hardware stack levels required when called: 3
 10868 ;; This function calls:
 10869 ;;		NULL
 10870 ;;		_INT0_APP_ISR
 10871 ;;		_INT1_APP_ISR
 10872 ;;		_INT2_APP_ISR
 10873 ;; This function is called by:
 10874 ;;		_InterruptManager
 10875 ;; This function uses a non-reentrant model
 10876 ;;
 10877                           
 10878                           	psect	text73
 10879   003B0C                     __ptext73:
 10880                           	callstack 0
 10881   003B0C                     _INT1_ISR:
 10882                           	callstack 19
 10883   003B0C                     
 10884                           ;MCAL_Layer/Interrupt/mcal_external_interrupt.c: 50:     (INTCON3bits.INT1IF = 0);
 10885   003B0C  90F0               	bcf	240,0,c	;volatile
 10886   003B0E                     
 10887                           ;MCAL_Layer/Interrupt/mcal_external_interrupt.c: 52:     if(INT1_InterruptHandler){
 10888   003B0E  5061               	movf	_INT1_InterruptHandler^0,w,c
 10889   003B10  1062               	iorwf	(_INT1_InterruptHandler+1)^0,w,c
 10890   003B12  B4D8               	btfsc	status,2,c
 10891   003B14  EF8E  F01D         	goto	i2u429_41
 10892   003B18  EF90  F01D         	goto	i2u429_40
 10893   003B1C                     i2u429_41:
 10894   003B1C  EF9C  F01D         	goto	i2l436
 10895   003B20                     i2u429_40:
 10896   003B20                     
 10897                           ;MCAL_Layer/Interrupt/mcal_external_interrupt.c: 53:         INT1_InterruptHandler();
 10898   003B20  D802               	call	i2u430_48
 10899   003B22  EF9C  F01D         	goto	i2u430_49
 10900   003B26                     i2u430_48:
 10901   003B26  0005               	push	
 10902   003B28  6EFA               	movwf	pclath,c
 10903   003B2A  5061               	movf	_INT1_InterruptHandler^0,w,c
 10904   003B2C  6EFD               	movwf	tosl,c
 10905   003B2E  5062               	movf	(_INT1_InterruptHandler+1)^0,w,c
 10906   003B30  6EFE               	movwf	tosh,c
 10907   003B32  6AFF               	clrf	tosu,c
 10908   003B34  50FA               	movf	pclath,w,c
 10909   003B36  0012               	return		;indir
 10910   003B38                     i2u430_49:
 10911   003B38                     i2l436:
 10912   003B38  0012               	return		;funcret
 10913   003B3A                     __end_of_INT1_ISR:
 10914                           	callstack 0
 10915                           
 10916 ;; *************** function _INT0_ISR *****************
 10917 ;; Defined at:
 10918 ;;		line 41 in file "MCAL_Layer/Interrupt/mcal_external_interrupt.c"
 10919 ;; Parameters:    Size  Location     Type
 10920 ;;		None
 10921 ;; Auto vars:     Size  Location     Type
 10922 ;;		None
 10923 ;; Return value:  Size  Location     Type
 10924 ;;                  1    wreg      void 
 10925 ;; Registers used:
 10926 ;;		wreg, status,2, status,0, pcl, pclath, pclatu, tosl, cstack
 10927 ;; Tracked objects:
 10928 ;;		On entry : 0/0
 10929 ;;		On exit  : 0/0
 10930 ;;		Unchanged: 0/0
 10931 ;; Data sizes:     COMRAM   BANK0   BANK1   BANK2   BANK3   BANK4   BANK5   BANK6   BANK7   BANK8   BANK9  BANK10  BANK1
      +1  BANK12  BANK13  BANK14  BANK15
 10932 ;;      Params:         0       0       0       0       0       0       0       0       0       0       0       0       
      +0       0       0       0       0
 10933 ;;      Locals:         0       0       0       0       0       0       0       0       0       0       0       0       
      +0       0       0       0       0
 10934 ;;      Temps:          0       0       0       0       0       0       0       0       0       0       0       0       
      +0       0       0       0       0
 10935 ;;      Totals:         0       0       0       0       0       0       0       0       0       0       0       0       
      +0       0       0       0       0
 10936 ;;Total ram usage:        0 bytes
 10937 ;; Hardware stack levels used: 1
 10938 ;; Hardware stack levels required when called: 3
 10939 ;; This function calls:
 10940 ;;		NULL
 10941 ;;		_INT0_APP_ISR
 10942 ;;		_INT1_APP_ISR
 10943 ;;		_INT2_APP_ISR
 10944 ;; This function is called by:
 10945 ;;		_InterruptManager
 10946 ;; This function uses a non-reentrant model
 10947 ;;
 10948                           
 10949                           	psect	text74
 10950   003B3A                     __ptext74:
 10951                           	callstack 0
 10952   003B3A                     _INT0_ISR:
 10953                           	callstack 19
 10954   003B3A                     
 10955                           ;MCAL_Layer/Interrupt/mcal_external_interrupt.c: 42:     (INTCONbits.INT0IF = 0);
 10956   003B3A  92F2               	bcf	242,1,c	;volatile
 10957   003B3C                     
 10958                           ;MCAL_Layer/Interrupt/mcal_external_interrupt.c: 44:     if(INT0_InterruptHandler){
 10959   003B3C  5063               	movf	_INT0_InterruptHandler^0,w,c
 10960   003B3E  1064               	iorwf	(_INT0_InterruptHandler+1)^0,w,c
 10961   003B40  B4D8               	btfsc	status,2,c
 10962   003B42  EFA5  F01D         	goto	i2u427_41
 10963   003B46  EFA7  F01D         	goto	i2u427_40
 10964   003B4A                     i2u427_41:
 10965   003B4A  EFB3  F01D         	goto	i2l432
 10966   003B4E                     i2u427_40:
 10967   003B4E                     
 10968                           ;MCAL_Layer/Interrupt/mcal_external_interrupt.c: 45:         INT0_InterruptHandler();
 10969   003B4E  D802               	call	i2u428_48
 10970   003B50  EFB3  F01D         	goto	i2u428_49
 10971   003B54                     i2u428_48:
 10972   003B54  0005               	push	
 10973   003B56  6EFA               	movwf	pclath,c
 10974   003B58  5063               	movf	_INT0_InterruptHandler^0,w,c
 10975   003B5A  6EFD               	movwf	tosl,c
 10976   003B5C  5064               	movf	(_INT0_InterruptHandler+1)^0,w,c
 10977   003B5E  6EFE               	movwf	tosh,c
 10978   003B60  6AFF               	clrf	tosu,c
 10979   003B62  50FA               	movf	pclath,w,c
 10980   003B64  0012               	return		;indir
 10981   003B66                     i2u428_49:
 10982   003B66                     i2l432:
 10983   003B66  0012               	return		;funcret
 10984   003B68                     __end_of_INT0_ISR:
 10985                           	callstack 0
 10986                           
 10987 ;; *************** function _INT1_APP_ISR *****************
 10988 ;; Defined at:
 10989 ;;		line 63 in file "application.c"
 10990 ;; Parameters:    Size  Location     Type
 10991 ;;		None
 10992 ;; Auto vars:     Size  Location     Type
 10993 ;;		None
 10994 ;; Return value:  Size  Location     Type
 10995 ;;                  1    wreg      void 
 10996 ;; Registers used:
 10997 ;;		wreg, status,2, status,0, cstack
 10998 ;; Tracked objects:
 10999 ;;		On entry : 0/0
 11000 ;;		On exit  : 0/0
 11001 ;;		Unchanged: 0/0
 11002 ;; Data sizes:     COMRAM   BANK0   BANK1   BANK2   BANK3   BANK4   BANK5   BANK6   BANK7   BANK8   BANK9  BANK10  BANK1
      +1  BANK12  BANK13  BANK14  BANK15
 11003 ;;      Params:         0       0       0       0       0       0       0       0       0       0       0       0       
      +0       0       0       0       0
 11004 ;;      Locals:         0       0       0       0       0       0       0       0       0       0       0       0       
      +0       0       0       0       0
 11005 ;;      Temps:          0       0       0       0       0       0       0       0       0       0       0       0       
      +0       0       0       0       0
 11006 ;;      Totals:         0       0       0       0       0       0       0       0       0       0       0       0       
      +0       0       0       0       0
 11007 ;;Total ram usage:        0 bytes
 11008 ;; Hardware stack levels used: 1
 11009 ;; Hardware stack levels required when called: 2
 11010 ;; This function calls:
 11011 ;;		_store_eeprom
 11012 ;; This function is called by:
 11013 ;;		_INT0_ISR
 11014 ;;		_INT1_ISR
 11015 ;;		_INT2_ISR
 11016 ;; This function uses a non-reentrant model
 11017 ;;
 11018                           
 11019                           	psect	text75
 11020   003C6A                     __ptext75:
 11021                           	callstack 0
 11022   003C6A                     _INT1_APP_ISR:
 11023                           	callstack 19
 11024   003C6A                     
 11025                           ;application.c: 64:     if(operation_mode == 0){
 11026   003C6A  0100               	movlb	0	; () banked
 11027   003C6C  51E1               	movf	_operation_mode& (0+255),w,b
 11028   003C6E  A4D8               	btfss	status,2,c
 11029   003C70  EF3C  F01E         	goto	i2u416_41
 11030   003C74  EF3E  F01E         	goto	i2u416_40
 11031   003C78                     i2u416_41:
 11032   003C78  EF41  F01E         	goto	i2l766
 11033   003C7C                     i2u416_40:
 11034   003C7C                     
 11035                           ; BSR set to: 0
 11036                           ;application.c: 65:         can_B++;
 11037   003C7C  2BFC               	incf	_can_B& (0+255),f,b
 11038   003C7E                     
 11039                           ; BSR set to: 0
 11040                           ;application.c: 66:         store_eeprom();
 11041   003C7E  ECF9  F01B         	call	_store_eeprom	;wreg free
 11042   003C82                     i2l766:
 11043   003C82  0012               	return		;funcret
 11044   003C84                     __end_of_INT1_APP_ISR:
 11045                           	callstack 0
 11046                           
 11047 ;; *************** function _INT0_APP_ISR *****************
 11048 ;; Defined at:
 11049 ;;		line 56 in file "application.c"
 11050 ;; Parameters:    Size  Location     Type
 11051 ;;		None
 11052 ;; Auto vars:     Size  Location     Type
 11053 ;;		None
 11054 ;; Return value:  Size  Location     Type
 11055 ;;                  1    wreg      void 
 11056 ;; Registers used:
 11057 ;;		wreg, status,2, status,0, cstack
 11058 ;; Tracked objects:
 11059 ;;		On entry : 0/0
 11060 ;;		On exit  : 0/0
 11061 ;;		Unchanged: 0/0
 11062 ;; Data sizes:     COMRAM   BANK0   BANK1   BANK2   BANK3   BANK4   BANK5   BANK6   BANK7   BANK8   BANK9  BANK10  BANK1
      +1  BANK12  BANK13  BANK14  BANK15
 11063 ;;      Params:         0       0       0       0       0       0       0       0       0       0       0       0       
      +0       0       0       0       0
 11064 ;;      Locals:         0       0       0       0       0       0       0       0       0       0       0       0       
      +0       0       0       0       0
 11065 ;;      Temps:          0       0       0       0       0       0       0       0       0       0       0       0       
      +0       0       0       0       0
 11066 ;;      Totals:         0       0       0       0       0       0       0       0       0       0       0       0       
      +0       0       0       0       0
 11067 ;;Total ram usage:        0 bytes
 11068 ;; Hardware stack levels used: 1
 11069 ;; Hardware stack levels required when called: 2
 11070 ;; This function calls:
 11071 ;;		_store_eeprom
 11072 ;; This function is called by:
 11073 ;;		_INT0_ISR
 11074 ;;		_INT1_ISR
 11075 ;;		_INT2_ISR
 11076 ;; This function uses a non-reentrant model
 11077 ;;
 11078                           
 11079                           	psect	text76
 11080   003C84                     __ptext76:
 11081                           	callstack 0
 11082   003C84                     _INT0_APP_ISR:
 11083                           	callstack 19
 11084   003C84                     
 11085                           ;application.c: 57:     if(operation_mode == 0){
 11086   003C84  0100               	movlb	0	; () banked
 11087   003C86  51E1               	movf	_operation_mode& (0+255),w,b
 11088   003C88  A4D8               	btfss	status,2,c
 11089   003C8A  EF49  F01E         	goto	i2u415_41
 11090   003C8E  EF4B  F01E         	goto	i2u415_40
 11091   003C92                     i2u415_41:
 11092   003C92  EF4E  F01E         	goto	i2l762
 11093   003C96                     i2u415_40:
 11094   003C96                     
 11095                           ; BSR set to: 0
 11096                           ;application.c: 58:         can_A++;
 11097   003C96  2BFD               	incf	_can_A& (0+255),f,b
 11098   003C98                     
 11099                           ; BSR set to: 0
 11100                           ;application.c: 59:         store_eeprom();
 11101   003C98  ECF9  F01B         	call	_store_eeprom	;wreg free
 11102   003C9C                     i2l762:
 11103   003C9C  0012               	return		;funcret
 11104   003C9E                     __end_of_INT0_APP_ISR:
 11105                           	callstack 0
 11106                           
 11107 ;; *************** function _INT2_APP_ISR *****************
 11108 ;; Defined at:
 11109 ;;		line 70 in file "application.c"
 11110 ;; Parameters:    Size  Location     Type
 11111 ;;		None
 11112 ;; Auto vars:     Size  Location     Type
 11113 ;;		None
 11114 ;; Return value:  Size  Location     Type
 11115 ;;                  1    wreg      void 
 11116 ;; Registers used:
 11117 ;;		wreg, status,2, status,0, cstack
 11118 ;; Tracked objects:
 11119 ;;		On entry : 0/0
 11120 ;;		On exit  : 0/0
 11121 ;;		Unchanged: 0/0
 11122 ;; Data sizes:     COMRAM   BANK0   BANK1   BANK2   BANK3   BANK4   BANK5   BANK6   BANK7   BANK8   BANK9  BANK10  BANK1
      +1  BANK12  BANK13  BANK14  BANK15
 11123 ;;      Params:         0       0       0       0       0       0       0       0       0       0       0       0       
      +0       0       0       0       0
 11124 ;;      Locals:         0       0       0       0       0       0       0       0       0       0       0       0       
      +0       0       0       0       0
 11125 ;;      Temps:          0       0       0       0       0       0       0       0       0       0       0       0       
      +0       0       0       0       0
 11126 ;;      Totals:         0       0       0       0       0       0       0       0       0       0       0       0       
      +0       0       0       0       0
 11127 ;;Total ram usage:        0 bytes
 11128 ;; Hardware stack levels used: 1
 11129 ;; Hardware stack levels required when called: 2
 11130 ;; This function calls:
 11131 ;;		_store_eeprom
 11132 ;; This function is called by:
 11133 ;;		_INT0_ISR
 11134 ;;		_INT1_ISR
 11135 ;;		_INT2_ISR
 11136 ;; This function uses a non-reentrant model
 11137 ;;
 11138                           
 11139                           	psect	text77
 11140   003C9E                     __ptext77:
 11141                           	callstack 0
 11142   003C9E                     _INT2_APP_ISR:
 11143                           	callstack 19
 11144   003C9E                     
 11145                           ;application.c: 71:     if(operation_mode == 0){
 11146   003C9E  0100               	movlb	0	; () banked
 11147   003CA0  51E1               	movf	_operation_mode& (0+255),w,b
 11148   003CA2  A4D8               	btfss	status,2,c
 11149   003CA4  EF56  F01E         	goto	i2u417_41
 11150   003CA8  EF58  F01E         	goto	i2u417_40
 11151   003CAC                     i2u417_41:
 11152   003CAC  EF5B  F01E         	goto	i2l770
 11153   003CB0                     i2u417_40:
 11154   003CB0                     
 11155                           ; BSR set to: 0
 11156                           ;application.c: 72:         can_C++;
 11157   003CB0  2BFB               	incf	_can_C& (0+255),f,b
 11158   003CB2                     
 11159                           ; BSR set to: 0
 11160                           ;application.c: 73:         store_eeprom();
 11161   003CB2  ECF9  F01B         	call	_store_eeprom	;wreg free
 11162   003CB6                     i2l770:
 11163   003CB6  0012               	return		;funcret
 11164   003CB8                     __end_of_INT2_APP_ISR:
 11165                           	callstack 0
 11166                           
 11167 ;; *************** function _store_eeprom *****************
 11168 ;; Defined at:
 11169 ;;		line 157 in file "application.c"
 11170 ;; Parameters:    Size  Location     Type
 11171 ;;		None
 11172 ;; Auto vars:     Size  Location     Type
 11173 ;;		None
 11174 ;; Return value:  Size  Location     Type
 11175 ;;                  1    wreg      void 
 11176 ;; Registers used:
 11177 ;;		wreg, status,2, status,0, cstack
 11178 ;; Tracked objects:
 11179 ;;		On entry : 0/0
 11180 ;;		On exit  : 0/0
 11181 ;;		Unchanged: 0/0
 11182 ;; Data sizes:     COMRAM   BANK0   BANK1   BANK2   BANK3   BANK4   BANK5   BANK6   BANK7   BANK8   BANK9  BANK10  BANK1
      +1  BANK12  BANK13  BANK14  BANK15
 11183 ;;      Params:         0       0       0       0       0       0       0       0       0       0       0       0       
      +0       0       0       0       0
 11184 ;;      Locals:         0       0       0       0       0       0       0       0       0       0       0       0       
      +0       0       0       0       0
 11185 ;;      Temps:          0       0       0       0       0       0       0       0       0       0       0       0       
      +0       0       0       0       0
 11186 ;;      Totals:         0       0       0       0       0       0       0       0       0       0       0       0       
      +0       0       0       0       0
 11187 ;;Total ram usage:        0 bytes
 11188 ;; Hardware stack levels used: 1
 11189 ;; Hardware stack levels required when called: 1
 11190 ;; This function calls:
 11191 ;;		_Data_EEPROM_WriteByte
 11192 ;; This function is called by:
 11193 ;;		_INT0_APP_ISR
 11194 ;;		_INT1_APP_ISR
 11195 ;;		_INT2_APP_ISR
 11196 ;;		_RB4_HIGH_APP_ISR
 11197 ;; This function uses a non-reentrant model
 11198 ;;
 11199                           
 11200                           	psect	text78
 11201   0037F2                     __ptext78:
 11202                           	callstack 0
 11203   0037F2                     _store_eeprom:
 11204                           	callstack 19
 11205   0037F2                     
 11206                           ;application.c: 158:     Data_EEPROM_WriteByte(0x0000, can_A);
 11207   0037F2  0E00               	movlw	0
 11208   0037F4  6E02               	movwf	(Data_EEPROM_WriteByte@adr+1)^0,c
 11209   0037F6  0E00               	movlw	0
 11210   0037F8  6E01               	movwf	Data_EEPROM_WriteByte@adr^0,c
 11211   0037FA  C0FD  F003         	movff	_can_A,Data_EEPROM_WriteByte@data
 11212   0037FE  EC95  F01B         	call	_Data_EEPROM_WriteByte	;wreg free
 11213                           
 11214                           ;application.c: 159:     Data_EEPROM_WriteByte(0x0008, can_B);
 11215   003802  0E00               	movlw	0
 11216   003804  6E02               	movwf	(Data_EEPROM_WriteByte@adr+1)^0,c
 11217   003806  0E08               	movlw	8
 11218   003808  6E01               	movwf	Data_EEPROM_WriteByte@adr^0,c
 11219   00380A  C0FC  F003         	movff	_can_B,Data_EEPROM_WriteByte@data
 11220   00380E  EC95  F01B         	call	_Data_EEPROM_WriteByte	;wreg free
 11221                           
 11222                           ;application.c: 160:     Data_EEPROM_WriteByte(0x0010, can_C);
 11223   003812  0E00               	movlw	0
 11224   003814  6E02               	movwf	(Data_EEPROM_WriteByte@adr+1)^0,c
 11225   003816  0E10               	movlw	16
 11226   003818  6E01               	movwf	Data_EEPROM_WriteByte@adr^0,c
 11227   00381A  C0FB  F003         	movff	_can_C,Data_EEPROM_WriteByte@data
 11228   00381E  EC95  F01B         	call	_Data_EEPROM_WriteByte	;wreg free
 11229                           
 11230                           ;application.c: 161:     Data_EEPROM_WriteByte(0x0018, can_D);
 11231   003822  0E00               	movlw	0
 11232   003824  6E02               	movwf	(Data_EEPROM_WriteByte@adr+1)^0,c
 11233   003826  0E18               	movlw	24
 11234   003828  6E01               	movwf	Data_EEPROM_WriteByte@adr^0,c
 11235   00382A  C0FA  F003         	movff	_can_D,Data_EEPROM_WriteByte@data
 11236   00382E  EC95  F01B         	call	_Data_EEPROM_WriteByte	;wreg free
 11237   003832  0012               	return		;funcret
 11238   003834                     __end_of_store_eeprom:
 11239                           	callstack 0
 11240                           
 11241 ;; *************** function _Data_EEPROM_WriteByte *****************
 11242 ;; Defined at:
 11243 ;;		line 16 in file "MCAL_Layer/EEPROM/hal_eeprom.c"
 11244 ;; Parameters:    Size  Location     Type
 11245 ;;  adr             2    0[COMRAM] unsigned short 
 11246 ;;  data            1    2[COMRAM] unsigned char 
 11247 ;; Auto vars:     Size  Location     Type
 11248 ;;  Global_Inter    1    3[COMRAM] unsigned char 
 11249 ;;  ret             1    0        unsigned char 
 11250 ;; Return value:  Size  Location     Type
 11251 ;;                  1    wreg      unsigned char 
 11252 ;; Registers used:
 11253 ;;		wreg, status,2, status,0
 11254 ;; Tracked objects:
 11255 ;;		On entry : 0/0
 11256 ;;		On exit  : 0/0
 11257 ;;		Unchanged: 0/0
 11258 ;; Data sizes:     COMRAM   BANK0   BANK1   BANK2   BANK3   BANK4   BANK5   BANK6   BANK7   BANK8   BANK9  BANK10  BANK1
      +1  BANK12  BANK13  BANK14  BANK15
 11259 ;;      Params:         3       0       0       0       0       0       0       0       0       0       0       0       
      +0       0       0       0       0
 11260 ;;      Locals:         1       0       0       0       0       0       0       0       0       0       0       0       
      +0       0       0       0       0
 11261 ;;      Temps:          0       0       0       0       0       0       0       0       0       0       0       0       
      +0       0       0       0       0
 11262 ;;      Totals:         4       0       0       0       0       0       0       0       0       0       0       0       
      +0       0       0       0       0
 11263 ;;Total ram usage:        4 bytes
 11264 ;; Hardware stack levels used: 1
 11265 ;; This function calls:
 11266 ;;		Nothing
 11267 ;; This function is called by:
 11268 ;;		_clear_eeprom
 11269 ;;		_store_eeprom
 11270 ;; This function uses a non-reentrant model
 11271 ;;
 11272                           
 11273                           	psect	text79
 11274   00372A                     __ptext79:
 11275                           	callstack 0
 11276   00372A                     _Data_EEPROM_WriteByte:
 11277                           	callstack 19
 11278   00372A                     
 11279                           ;MCAL_Layer/EEPROM/hal_eeprom.c: 19:     uint8 Global_Interrupt_status = INTCONbits.GIE;
 11280   00372A  0E00               	movlw	0
 11281   00372C  BEF2               	btfsc	242,7,c	;volatile
 11282   00372E  0E01               	movlw	1
 11283   003730  6E04               	movwf	Data_EEPROM_WriteByte@Global_Interrupt_status^0,c
 11284   003732                     
 11285                           ;MCAL_Layer/EEPROM/hal_eeprom.c: 22:     EEADRH = (uint8)((adr >> 8) & 0x03);
 11286   003732  5002               	movf	(Data_EEPROM_WriteByte@adr+1)^0,w,c
 11287   003734  0B03               	andlw	3
 11288   003736  6EAA               	movwf	170,c	;volatile
 11289   003738                     
 11290                           ;MCAL_Layer/EEPROM/hal_eeprom.c: 23:     EEADR = (uint8)(adr & 0xFF);
 11291   003738  C001  FFA9         	movff	Data_EEPROM_WriteByte@adr,4009	;volatile
 11292   00373C                     
 11293                           ;MCAL_Layer/EEPROM/hal_eeprom.c: 26:     EEDATA = data;
 11294   00373C  C003  FFA8         	movff	Data_EEPROM_WriteByte@data,4008	;volatile
 11295   003740                     
 11296                           ;MCAL_Layer/EEPROM/hal_eeprom.c: 29:     EECON1bits.EEPGD = 0;
 11297   003740  9EA6               	bcf	166,7,c	;volsfr
 11298   003742                     
 11299                           ;MCAL_Layer/EEPROM/hal_eeprom.c: 30:     EECON1bits.CFGS = 0;
 11300   003742  9CA6               	bcf	166,6,c	;volsfr
 11301   003744                     
 11302                           ;MCAL_Layer/EEPROM/hal_eeprom.c: 33:     EECON1bits.WREN = 1;
 11303   003744  84A6               	bsf	166,2,c	;volsfr
 11304   003746                     
 11305                           ;MCAL_Layer/EEPROM/hal_eeprom.c: 36:     (INTCONbits.GIE = 0);
 11306   003746  9EF2               	bcf	242,7,c	;volatile
 11307   003748                     
 11308                           ;MCAL_Layer/EEPROM/hal_eeprom.c: 39:     EECON2 = 0x55;
 11309   003748  0E55               	movlw	85
 11310   00374A  6EA7               	movwf	167,c	;volsfr
 11311   00374C                     
 11312                           ;MCAL_Layer/EEPROM/hal_eeprom.c: 40:     EECON2 = 0xAA;
 11313   00374C  0EAA               	movlw	170
 11314   00374E  6EA7               	movwf	167,c	;volsfr
 11315   003750                     
 11316                           ;MCAL_Layer/EEPROM/hal_eeprom.c: 43:     EECON1bits.WR = 1;
 11317   003750  82A6               	bsf	166,1,c	;volsfr
 11318   003752                     i2l259:
 11319   003752  B2A6               	btfsc	166,1,c	;volsfr
 11320   003754  EFAE  F01B         	goto	i2u356_41
 11321   003758  EFB0  F01B         	goto	i2u356_40
 11322   00375C                     i2u356_41:
 11323   00375C  EFA9  F01B         	goto	i2l259
 11324   003760                     i2u356_40:
 11325   003760                     
 11326                           ;MCAL_Layer/EEPROM/hal_eeprom.c: 49:     EECON1bits.WREN = 0;
 11327   003760  94A6               	bcf	166,2,c	;volsfr
 11328                           
 11329                           ;MCAL_Layer/EEPROM/hal_eeprom.c: 52:     INTCONbits.GIE = Global_Interrupt_status;
 11330   003762  B004               	btfsc	Data_EEPROM_WriteByte@Global_Interrupt_status^0,0,c
 11331   003764  D002               	bra	i2u357_45
 11332   003766  9EF2               	bcf	242,7,c	;volatile
 11333   003768  D001               	bra	i2u357_46
 11334   00376A                     i2u357_45:
 11335   00376A  8EF2               	bsf	242,7,c	;volatile
 11336   00376C                     i2u357_46:
 11337   00376C  0012               	return		;funcret
 11338   00376E                     __end_of_Data_EEPROM_WriteByte:
 11339                           	callstack 0
 11340                           
 11341                           	psect	rparam
 11342   000000                     
 11343                           	psect	temp
 11344   00007D                     btemp:
 11345                           	callstack 0
 11346   00007D                     	ds	1
 11347   000000                     int$flags	set	btemp
 11348   000000                     wtemp8	set	btemp+1
 11349   000000                     ttemp5	set	btemp+1
 11350   000000                     ttemp6	set	btemp+4
 11351   000000                     ttemp7	set	btemp+8
 11352                           
 11353                           	psect	config
 11354                           
 11355                           ; Padding undefined space
 11356   300000                     	org	3145728
 11357   300000  FF                 	db	255
 11358                           
 11359                           ;Config register CONFIG1H @ 0x300001
 11360                           ;	Oscillator Selection bits
 11361                           ;	OSC = HS, HS oscillator
 11362                           ;	Fail-Safe Clock Monitor Enable bit
 11363                           ;	FCMEN = OFF, Fail-Safe Clock Monitor disabled
 11364                           ;	Internal/External Oscillator Switchover bit
 11365                           ;	IESO = OFF, Oscillator Switchover mode disabled
 11366   300001                     	org	3145729
 11367   300001  02                 	db	2
 11368                           
 11369                           ;Config register CONFIG2L @ 0x300002
 11370                           ;	Power-up Timer Enable bit
 11371                           ;	PWRT = OFF, PWRT disabled
 11372                           ;	Brown-out Reset Enable bits
 11373                           ;	BOREN = OFF, Brown-out Reset disabled in hardware and software
 11374                           ;	Brown Out Reset Voltage bits
 11375                           ;	BORV = 1, 
 11376   300002                     	org	3145730
 11377   300002  09                 	db	9
 11378                           
 11379                           ;Config register CONFIG2H @ 0x300003
 11380                           ;	Watchdog Timer Enable bit
 11381                           ;	WDT = OFF, WDT disabled (control is placed on the SWDTEN bit)
 11382                           ;	Watchdog Timer Postscale Select bits
 11383                           ;	WDTPS = 32768, 1:32768
 11384   300003                     	org	3145731
 11385   300003  1E                 	db	30
 11386                           
 11387                           ; Padding undefined space
 11388   300004                     	org	3145732
 11389   300004  FF                 	db	255
 11390                           
 11391                           ;Config register CONFIG3H @ 0x300005
 11392                           ;	CCP2 MUX bit
 11393                           ;	CCP2MX = PORTC, CCP2 input/output is multiplexed with RC1
 11394                           ;	PORTB A/D Enable bit
 11395                           ;	PBADEN = OFF, PORTB<4:0> pins are configured as digital I/O on Reset
 11396                           ;	Low-Power Timer1 Oscillator Enable bit
 11397                           ;	LPT1OSC = OFF, Timer1 configured for higher power operation
 11398                           ;	MCLR Pin Enable bit
 11399                           ;	MCLRE = ON, MCLR pin enabled; RE3 input pin disabled
 11400   300005                     	org	3145733
 11401   300005  81                 	db	129
 11402                           
 11403                           ;Config register CONFIG4L @ 0x300006
 11404                           ;	Stack Full/Underflow Reset Enable bit
 11405                           ;	STVREN = ON, Stack full/underflow will cause Reset
 11406                           ;	Single-Supply ICSP Enable bit
 11407                           ;	LVP = OFF, Single-Supply ICSP disabled
 11408                           ;	Extended Instruction Set Enable bit
 11409                           ;	XINST = OFF, Instruction set extension and Indexed Addressing mode disabled (Legacy mo
      +                          de)
 11410                           ;	Background Debugger Enable bit
 11411                           ;	DEBUG = 0x1, unprogrammed default
 11412   300006                     	org	3145734
 11413   300006  81                 	db	129
 11414                           
 11415                           ; Padding undefined space
 11416   300007                     	org	3145735
 11417   300007  FF                 	db	255
 11418                           
 11419                           ;Config register CONFIG5L @ 0x300008
 11420                           ;	Code Protection bit
 11421                           ;	CP0 = OFF, Block 0 (000800-003FFFh) not code-protected
 11422                           ;	Code Protection bit
 11423                           ;	CP1 = OFF, Block 1 (004000-007FFFh) not code-protected
 11424                           ;	Code Protection bit
 11425                           ;	CP2 = OFF, Block 2 (008000-00BFFFh) not code-protected
 11426                           ;	Code Protection bit
 11427                           ;	CP3 = OFF, Block 3 (00C000-00FFFFh) not code-protected
 11428   300008                     	org	3145736
 11429   300008  0F                 	db	15
 11430                           
 11431                           ;Config register CONFIG5H @ 0x300009
 11432                           ;	Boot Block Code Protection bit
 11433                           ;	CPB = OFF, Boot block (000000-0007FFh) not code-protected
 11434                           ;	Data EEPROM Code Protection bit
 11435                           ;	CPD = OFF, Data EEPROM not code-protected
 11436   300009                     	org	3145737
 11437   300009  C0                 	db	192
 11438                           
 11439                           ;Config register CONFIG6L @ 0x30000A
 11440                           ;	Write Protection bit
 11441                           ;	WRT0 = OFF, Block 0 (000800-003FFFh) not write-protected
 11442                           ;	Write Protection bit
 11443                           ;	WRT1 = OFF, Block 1 (004000-007FFFh) not write-protected
 11444                           ;	Write Protection bit
 11445                           ;	WRT2 = OFF, Block 2 (008000-00BFFFh) not write-protected
 11446                           ;	Write Protection bit
 11447                           ;	WRT3 = OFF, Block 3 (00C000-00FFFFh) not write-protected
 11448   30000A                     	org	3145738
 11449   30000A  0F                 	db	15
 11450                           
 11451                           ;Config register CONFIG6H @ 0x30000B
 11452                           ;	Configuration Register Write Protection bit
 11453                           ;	WRTC = OFF, Configuration registers (300000-3000FFh) not write-protected
 11454                           ;	Boot Block Write Protection bit
 11455                           ;	WRTB = OFF, Boot Block (000000-0007FFh) not write-protected
 11456                           ;	Data EEPROM Write Protection bit
 11457                           ;	WRTD = OFF, Data EEPROM not write-protected
 11458   30000B                     	org	3145739
 11459   30000B  E0                 	db	224
 11460                           
 11461                           ;Config register CONFIG7L @ 0x30000C
 11462                           ;	Table Read Protection bit
 11463                           ;	EBTR0 = OFF, Block 0 (000800-003FFFh) not protected from table reads executed in other
      +                           blocks
 11464                           ;	Table Read Protection bit
 11465                           ;	EBTR1 = OFF, Block 1 (004000-007FFFh) not protected from table reads executed in other
      +                           blocks
 11466                           ;	Table Read Protection bit
 11467                           ;	EBTR2 = OFF, Block 2 (008000-00BFFFh) not protected from table reads executed in other
      +                           blocks
 11468                           ;	Table Read Protection bit
 11469                           ;	EBTR3 = OFF, Block 3 (00C000-00FFFFh) not protected from table reads executed in other
      +                           blocks
 11470   30000C                     	org	3145740
 11471   30000C  0F                 	db	15
 11472                           
 11473                           ;Config register CONFIG7H @ 0x30000D
 11474                           ;	Boot Block Table Read Protection bit
 11475                           ;	EBTRB = OFF, Boot Block (000000-0007FFh) not protected from table reads executed in ot
      +                          her blocks
 11476   30000D                     	org	3145741
 11477   30000D  40                 	db	64
 11478                           tosu	equ	0xFFF
 11479                           tosh	equ	0xFFE
 11480                           tosl	equ	0xFFD
 11481                           stkptr	equ	0xFFC
 11482                           pclatu	equ	0xFFB
 11483                           pclath	equ	0xFFA
 11484                           pcl	equ	0xFF9
 11485                           tblptru	equ	0xFF8
 11486                           tblptrh	equ	0xFF7
 11487                           tblptrl	equ	0xFF6
 11488                           tablat	equ	0xFF5
 11489                           prodh	equ	0xFF4
 11490                           prodl	equ	0xFF3
 11491                           indf0	equ	0xFEF
 11492                           postinc0	equ	0xFEE
 11493                           postdec0	equ	0xFED
 11494                           preinc0	equ	0xFEC
 11495                           plusw0	equ	0xFEB
 11496                           fsr0h	equ	0xFEA
 11497                           fsr0l	equ	0xFE9
 11498                           wreg	equ	0xFE8
 11499                           indf1	equ	0xFE7
 11500                           postinc1	equ	0xFE6
 11501                           postdec1	equ	0xFE5
 11502                           preinc1	equ	0xFE4
 11503                           plusw1	equ	0xFE3
 11504                           fsr1h	equ	0xFE2
 11505                           fsr1l	equ	0xFE1
 11506                           bsr	equ	0xFE0
 11507                           indf2	equ	0xFDF
 11508                           postinc2	equ	0xFDE
 11509                           postdec2	equ	0xFDD
 11510                           preinc2	equ	0xFDC
 11511                           plusw2	equ	0xFDB
 11512                           fsr2h	equ	0xFDA
 11513                           fsr2l	equ	0xFD9
 11514                           status	equ	0xFD8

Data Sizes:
    Strings     115
    Constant    0
    Data        94
    BSS         94
    Persistent  1
    Stack       0

Auto Spaces:
    Space          Size  Autos    Used
    COMRAM          126     68     124
    BANK0           128     53     126
    BANK1           256      0      60
    BANK2           256      0       0
    BANK3           256      0       0
    BANK4           256      0       0
    BANK5           256      0       0
    BANK6           256      0       0
    BANK7           256      0       0
    BANK8           256      0       0
    BANK9           256      0       0
    BANK10          256      0       0
    BANK11          256      0       0
    BANK12          256      0       0
    BANK13          256      0       0
    BANK14          256      0       0
    BANK15          128      0       0

Pointer List with Targets:

    button_initialize@btn	PTR const struct . size(1) Largest target is 3
		 -> btn1(BANK0[3]), btn2(BANK0[3]), btn3(BANK0[3]), btn4(BANK0[3]), 
		 -> btn5(BANK0[3]), btn6(BANK0[3]), 

    convert_uint16_to_string@str	PTR unsigned char  size(1) Largest target is 6
		 -> can_A_str(BANK0[6]), can_B_str(BANK0[6]), can_C_str(BANK0[6]), can_D_str(BANK0[6]), 

    Data_EEPROM_ReadByte@data	PTR unsigned char  size(1) Largest target is 1
		 -> can_A(BANK0[1]), can_B(BANK0[1]), can_C(BANK0[1]), can_D(BANK0[1]), 

    f$.$buffer	PTR unsigned char  size(2) Largest target is 0

    f$.$source	PTR const unsigned char  size(2) Largest target is 0

    fputc@fp	PTR struct _IO_FILE size(1) Largest target is 12
		 -> sprintf@f(BANK0[12]), 

    fputc@fp$.$buffer	PTR unsigned char  size(2) Largest target is 0

    fputc@fp$.$source	PTR const unsigned char  size(2) Largest target is 0

    gpio_pin_direction_initialize@pin_config	PTR const struct . size(2) Largest target is 6
		 -> btn1(BANK0[3]), btn2(BANK0[3]), btn3(BANK0[3]), btn4(BANK0[3]), 
		 -> btn5(BANK0[3]), btn6(BANK0[3]), int0_obj(BANK1[6]), int1_obj(BANK1[6]), 
		 -> int2_obj(BANK1[6]), lcd(BANK0[6]), lcd$lcd_data(BANK0[4]), rb4_obj(COMRAM[6]), 
		 -> rb5_obj(COMRAM[6]), rb6_obj(COMRAM[6]), 

    gpio_pin_initialize@pin_config	PTR const struct . size(2) Largest target is 6
		 -> int0_obj(BANK1[6]), int1_obj(BANK1[6]), int2_obj(BANK1[6]), lcd(BANK0[6]), 
		 -> lcd$lcd_data(BANK0[4]), 

    gpio_pin_write_logic@pin_config	PTR const struct . size(2) Largest target is 6
		 -> int0_obj(BANK1[6]), int1_obj(BANK1[6]), int2_obj(BANK1[6]), lcd(BANK0[6]), 
		 -> lcd$lcd_data(BANK0[4]), 

    i2sprintf@f$.$buffer	PTR unsigned char  size(2) Largest target is 0

    i2sprintf@f$.$source	PTR const unsigned char  size(2) Largest target is 0

    INT0_InterruptHandler	PTR FTN()void  size(2) Largest target is 1
		 -> INT0_APP_ISR(), INT1_APP_ISR(), INT2_APP_ISR(), NULL(), 

    int0_obj$InterruptHandler	PTR FTN()void  size(2) Largest target is 1
		 -> INT0_APP_ISR(), INT1_APP_ISR(), INT2_APP_ISR(), 

    INT0_SetInterruptHandler@InterruptHandler	PTR FTN()void  size(2) Largest target is 1
		 -> INT0_APP_ISR(), INT1_APP_ISR(), INT2_APP_ISR(), 

    INT1_InterruptHandler	PTR FTN()void  size(2) Largest target is 1
		 -> INT0_APP_ISR(), INT1_APP_ISR(), INT2_APP_ISR(), NULL(), 

    int1_obj$InterruptHandler	PTR FTN()void  size(2) Largest target is 1
		 -> INT0_APP_ISR(), INT1_APP_ISR(), INT2_APP_ISR(), 

    INT1_SetInterruptHandler@InterruptHandler	PTR FTN()void  size(2) Largest target is 1
		 -> INT0_APP_ISR(), INT1_APP_ISR(), INT2_APP_ISR(), 

    INT2_InterruptHandler	PTR FTN()void  size(2) Largest target is 1
		 -> INT0_APP_ISR(), INT1_APP_ISR(), INT2_APP_ISR(), NULL(), 

    int2_obj$InterruptHandler	PTR FTN()void  size(2) Largest target is 1
		 -> INT0_APP_ISR(), INT1_APP_ISR(), INT2_APP_ISR(), 

    INT2_SetInterruptHandler@InterruptHandler	PTR FTN()void  size(2) Largest target is 1
		 -> INT0_APP_ISR(), INT1_APP_ISR(), INT2_APP_ISR(), 

    interrupt_INTx_clear_flag@int_obj	PTR const struct . size(2) Largest target is 6
		 -> int0_obj(BANK1[6]), int1_obj(BANK1[6]), int2_obj(BANK1[6]), 

    interrupt_INTx_clear_flag@int_obj$InterruptHandler	PTR FTN()void  size(2) Largest target is 1
		 -> INT0_APP_ISR(), INT1_APP_ISR(), INT2_APP_ISR(), 

    interrupt_INTx_disable@int_obj	PTR const struct . size(2) Largest target is 6
		 -> int0_obj(BANK1[6]), int1_obj(BANK1[6]), int2_obj(BANK1[6]), 

    interrupt_INTx_disable@int_obj$InterruptHandler	PTR FTN()void  size(2) Largest target is 1
		 -> INT0_APP_ISR(), INT1_APP_ISR(), INT2_APP_ISR(), 

    interrupt_INTx_edge_init@int_obj	PTR const struct . size(2) Largest target is 6
		 -> int0_obj(BANK1[6]), int1_obj(BANK1[6]), int2_obj(BANK1[6]), 

    interrupt_INTx_edge_init@int_obj$InterruptHandler	PTR FTN()void  size(2) Largest target is 1
		 -> INT0_APP_ISR(), INT1_APP_ISR(), INT2_APP_ISR(), 

    interrupt_INTx_enable@int_obj	PTR const struct . size(2) Largest target is 6
		 -> int0_obj(BANK1[6]), int1_obj(BANK1[6]), int2_obj(BANK1[6]), 

    interrupt_INTx_enable@int_obj$InterruptHandler	PTR FTN()void  size(2) Largest target is 1
		 -> INT0_APP_ISR(), INT1_APP_ISR(), INT2_APP_ISR(), 

    interrupt_INTx_initialize@int_obj	PTR const struct . size(2) Largest target is 6
		 -> int0_obj(BANK1[6]), int1_obj(BANK1[6]), int2_obj(BANK1[6]), 

    interrupt_INTx_pin_init@int_obj	PTR const struct . size(2) Largest target is 6
		 -> int0_obj(BANK1[6]), int1_obj(BANK1[6]), int2_obj(BANK1[6]), 

    interrupt_INTx_pin_init@int_obj$InterruptHandler	PTR FTN()void  size(2) Largest target is 1
		 -> INT0_APP_ISR(), INT1_APP_ISR(), INT2_APP_ISR(), 

    interrupt_INTx_SetInterruptHandler@int_obj	PTR const struct . size(2) Largest target is 6
		 -> int0_obj(BANK1[6]), int1_obj(BANK1[6]), int2_obj(BANK1[6]), 

    interrupt_INTx_SetInterruptHandler@int_obj$InterruptHandler	PTR FTN()void  size(2) Largest target is 1
		 -> INT0_APP_ISR(), INT1_APP_ISR(), INT2_APP_ISR(), 

    interrupt_RBx_initialize@int_obj	PTR const struct . size(1) Largest target is 6
		 -> rb4_obj(COMRAM[6]), rb5_obj(COMRAM[6]), rb6_obj(COMRAM[6]), 

    interrupt_RBx_initialize@int_obj$InterruptHandler_HIGH	PTR FTN()void  size(2) Largest target is 1
		 -> RB4_HIGH_APP_ISR(), RB6_HIGH_APP_ISR(), NULL(), 

    interrupt_RBx_initialize@int_obj$InterruptHandler_LOW	PTR FTN()void  size(2) Largest target is 1
		 -> RB5_LOW_APP_ISR(), NULL(), 

    lat_registers	PTR volatile unsigned char [5] size(2) Largest target is 1
		 -> LATA(BITBIGSFRlllll[1]), LATB(BITBIGSFRllllh[1]), LATC(BITBIGSFRllllh[1]), LATD(BITBIGSFRllllh[1]), 
		 -> LATE(BITBIGSFRllllh[1]), 

    lcd_4bit_enable_signal@lcd	PTR const struct . size(1) Largest target is 6
		 -> lcd(BANK0[6]), 

    lcd_4bit_initialize@lcd	PTR const struct . size(1) Largest target is 6
		 -> lcd(BANK0[6]), 

    lcd_4bit_send_char_data@lcd	PTR const struct . size(1) Largest target is 6
		 -> lcd(BANK0[6]), 

    lcd_4bit_send_char_data_pos@lcd	PTR const struct . size(1) Largest target is 6
		 -> lcd(BANK0[6]), 

    lcd_4bit_send_command@lcd	PTR const struct . size(1) Largest target is 6
		 -> lcd(BANK0[6]), 

    lcd_4bit_send_string_pos@lcd	PTR const struct . size(1) Largest target is 6
		 -> lcd(BANK0[6]), 

    lcd_4bit_send_string_pos@str	PTR unsigned char  size(2) Largest target is 16
		 -> can_A_str(BANK0[6]), can_B_str(BANK0[6]), can_C_str(BANK0[6]), can_D_str(BANK0[6]), 
		 -> STR_10(CODE[3]), STR_11(CODE[3]), STR_12(CODE[16]), STR_13(CODE[16]), 
		 -> STR_14(CODE[16]), STR_15(CODE[16]), STR_4(CODE[8]), STR_5(CODE[8]), 
		 -> STR_6(CODE[4]), STR_7(CODE[16]), STR_8(CODE[3]), STR_9(CODE[3]), 

    lcd_4bit_set_cursor@lcd	PTR const struct . size(1) Largest target is 6
		 -> lcd(BANK0[6]), 

    lcd_send_4bits@lcd	PTR const struct . size(1) Largest target is 6
		 -> lcd(BANK0[6]), 

    memset@dest	PTR void  size(1) Largest target is 6
		 -> can_A_str(BANK0[6]), can_B_str(BANK0[6]), can_C_str(BANK0[6]), can_D_str(BANK0[6]), 

    memset@p	PTR unsigned char  size(1) Largest target is 6
		 -> can_A_str(BANK0[6]), can_B_str(BANK0[6]), can_C_str(BANK0[6]), can_D_str(BANK0[6]), 

    port_registers	PTR volatile unsigned char [5] size(2) Largest target is 1
		 -> PORTA(BITBIGSFRlllll[1]), PORTB(BITBIGSFRlllll[1]), PORTC(BITBIGSFRlllll[1]), PORTD(BITBIGSFRlllll[1]), 
		 -> PORTE(BITBIGSFRlllll[1]), 

    RB4_InterruptHandler_HIGH	PTR FTN()void  size(2) Largest target is 1
		 -> RB4_HIGH_APP_ISR(), RB6_HIGH_APP_ISR(), NULL(), 

    RB4_InterruptHandler_LOW	PTR FTN()void  size(2) Largest target is 1
		 -> RB5_LOW_APP_ISR(), NULL(), 

    rb4_obj$InterruptHandler_HIGH	PTR FTN()void  size(2) Largest target is 1
		 -> RB4_HIGH_APP_ISR(), RB6_HIGH_APP_ISR(), NULL(), 

    rb4_obj$InterruptHandler_LOW	PTR FTN()void  size(2) Largest target is 1
		 -> RB5_LOW_APP_ISR(), NULL(), 

    RB5_InterruptHandler_HIGH	PTR FTN()void  size(2) Largest target is 1
		 -> RB4_HIGH_APP_ISR(), RB6_HIGH_APP_ISR(), NULL(), 

    RB5_InterruptHandler_LOW	PTR FTN()void  size(2) Largest target is 1
		 -> RB5_LOW_APP_ISR(), NULL(), 

    rb5_obj$InterruptHandler_HIGH	PTR FTN()void  size(2) Largest target is 1
		 -> RB4_HIGH_APP_ISR(), RB6_HIGH_APP_ISR(), NULL(), 

    rb5_obj$InterruptHandler_LOW	PTR FTN()void  size(2) Largest target is 1
		 -> RB5_LOW_APP_ISR(), NULL(), 

    RB6_InterruptHandler_HIGH	PTR FTN()void  size(2) Largest target is 1
		 -> RB4_HIGH_APP_ISR(), RB6_HIGH_APP_ISR(), NULL(), 

    RB6_InterruptHandler_LOW	PTR FTN()void  size(2) Largest target is 1
		 -> RB5_LOW_APP_ISR(), NULL(), 

    rb6_obj$InterruptHandler_HIGH	PTR FTN()void  size(2) Largest target is 1
		 -> RB4_HIGH_APP_ISR(), RB6_HIGH_APP_ISR(), NULL(), 

    rb6_obj$InterruptHandler_LOW	PTR FTN()void  size(2) Largest target is 1
		 -> RB5_LOW_APP_ISR(), NULL(), 

    RB7_InterruptHandler_HIGH	PTR FTN()void  size(2) Largest target is 1
		 -> RB4_HIGH_APP_ISR(), RB6_HIGH_APP_ISR(), NULL(), 

    RB7_InterruptHandler_LOW	PTR FTN()void  size(2) Largest target is 1
		 -> RB5_LOW_APP_ISR(), NULL(), 

    S1960$buffer	PTR unsigned char  size(2) Largest target is 0

    S1960$source	PTR const unsigned char  size(2) Largest target is 0

    S818$InterruptHandler	PTR FTN()void  size(2) Largest target is 1
		 -> INT0_APP_ISR(), INT1_APP_ISR(), INT2_APP_ISR(), 

    S856$InterruptHandler_HIGH	PTR FTN()void  size(2) Largest target is 1
		 -> RB4_HIGH_APP_ISR(), RB6_HIGH_APP_ISR(), NULL(), 

    S856$InterruptHandler_LOW	PTR FTN()void  size(2) Largest target is 1
		 -> RB5_LOW_APP_ISR(), NULL(), 

    sp__memset	PTR void  size(1) Largest target is 6
		 -> can_A_str(BANK0[6]), can_B_str(BANK0[6]), can_C_str(BANK0[6]), can_D_str(BANK0[6]), 

    sprintf@ap	PTR void [1] size(1) Largest target is 2
		 -> ?_sprintf(BANK0[2]), 

    sprintf@fmt	PTR const unsigned char  size(1) Largest target is 3
		 -> STR_1(CODE[3]), STR_2(CODE[3]), STR_3(CODE[3]), 

    sprintf@s	PTR unsigned char  size(1) Largest target is 6
		 -> convert_uint16_to_string@temp_str(BANK0[6]), 

    tric_registers	PTR volatile unsigned char [5] size(2) Largest target is 1
		 -> TRISA(BITBIGSFRlllll[1]), TRISB(BITBIGSFRlllh[1]), TRISC(BITBIGSFRlllh[1]), TRISD(BITBIGSFRlllh[1]), 
		 -> TRISE(BITBIGSFRlllh[1]), 

    vfpfcnvrt@ap	PTR PTR void  size(1) Largest target is 1
		 -> sprintf@ap(BANK0[1]), 

    vfpfcnvrt@cp	PTR unsigned char  size(1) Largest target is 3
		 -> STR_1(CODE[3]), STR_2(CODE[3]), STR_3(CODE[3]), 

    vfpfcnvrt@fmt	PTR PTR unsigned char  size(1) Largest target is 1
		 -> vfprintf@cfmt(BANK0[1]), 

    vfpfcnvrt@fp	PTR struct _IO_FILE size(1) Largest target is 12
		 -> sprintf@f(BANK0[12]), 

    vfprintf@ap	PTR PTR void  size(1) Largest target is 1
		 -> sprintf@ap(BANK0[1]), 

    vfprintf@cfmt	PTR unsigned char  size(1) Largest target is 3
		 -> STR_1(CODE[3]), STR_2(CODE[3]), STR_3(CODE[3]), 

    vfprintf@fmt	PTR const unsigned char  size(1) Largest target is 3
		 -> STR_1(CODE[3]), STR_2(CODE[3]), STR_3(CODE[3]), 

    vfprintf@fp	PTR struct _IO_FILE size(1) Largest target is 12
		 -> sprintf@f(BANK0[12]), 


Critical Paths under _main in COMRAM

    None.

Critical Paths under _InterruptManager in COMRAM

    _InterruptManager->_RB4_ISR
    _InterruptManager->_RB5_ISR
    _InterruptManager->_RB6_ISR
    _InterruptManager->_RB7_ISR
    i2_winner->i2_lcd_4bit_send_string_pos
    i2_display->i2_convert_uint16_to_string
    i2_read_eeprom->i2_Data_EEPROM_ReadByte
    i2_lcd_4bit_send_string_pos->i2_lcd_4bit_set_cursor
    i2_lcd_4bit_set_cursor->i2_lcd_4bit_send_command
    i2_lcd_4bit_send_command->i2_lcd_send_4bits
    i2_lcd_4bit_send_char_data->i2_lcd_send_4bits
    i2_lcd_send_4bits->i2_gpio_pin_write_logic
    i2_lcd_4bit_enable_signal->i2_gpio_pin_write_logic
    i2_convert_uint16_to_string->i2_sprintf
    i2_sprintf->i2_vfprintf
    i2_vfprintf->i2_vfpfcnvrt
    i2_vfpfcnvrt->i2_abs
    i2_abs->i2___awmod
    _clear_eeprom->_Data_EEPROM_WriteByte
    _store_eeprom->_Data_EEPROM_WriteByte

Critical Paths under _main in BANK0

    _winner->_lcd_4bit_send_string_pos
    _welcome_message->_lcd_4bit_send_string_pos
    _mcal_initialize->_interrupt_INTx_initialize
    _interrupt_RBx_initialize->_gpio_pin_direction_initialize
    _interrupt_INTx_initialize->_interrupt_INTx_pin_init
    _interrupt_INTx_pin_init->_gpio_pin_initialize
    _interrupt_INTx_SetInterruptHandler->_INT0_SetInterruptHandler
    _interrupt_INTx_SetInterruptHandler->_INT1_SetInterruptHandler
    _interrupt_INTx_SetInterruptHandler->_INT2_SetInterruptHandler
    _loading_screen->_lcd_4bit_send_string_pos
    _lcd_4bit_send_char_data_pos->_lcd_4bit_set_cursor
    _ecu_initialize->_lcd_4bit_initialize
    _lcd_4bit_initialize->_lcd_4bit_send_command
    _gpio_pin_initialize->_gpio_pin_write_logic
    _button_initialize->_gpio_pin_direction_initialize
    _display->_convert_uint16_to_string
    _read_eeprom->_Data_EEPROM_ReadByte
    _lcd_4bit_send_string_pos->_lcd_4bit_set_cursor
    _lcd_4bit_set_cursor->_lcd_4bit_send_command
    _lcd_4bit_send_command->_lcd_send_4bits
    _lcd_4bit_send_char_data->_lcd_send_4bits
    _lcd_send_4bits->_gpio_pin_write_logic
    _lcd_4bit_enable_signal->_gpio_pin_write_logic
    _convert_uint16_to_string->_sprintf
    _sprintf->_vfprintf
    _vfprintf->_vfpfcnvrt
    _vfpfcnvrt->_abs
    _abs->___awmod

Critical Paths under _InterruptManager in BANK0

    None.

Critical Paths under _main in BANK1

    None.

Critical Paths under _InterruptManager in BANK1

    None.

Critical Paths under _main in BANK2

    None.

Critical Paths under _InterruptManager in BANK2

    None.

Critical Paths under _main in BANK3

    None.

Critical Paths under _InterruptManager in BANK3

    None.

Critical Paths under _main in BANK4

    None.

Critical Paths under _InterruptManager in BANK4

    None.

Critical Paths under _main in BANK5

    None.

Critical Paths under _InterruptManager in BANK5

    None.

Critical Paths under _main in BANK6

    None.

Critical Paths under _InterruptManager in BANK6

    None.

Critical Paths under _main in BANK7

    None.

Critical Paths under _InterruptManager in BANK7

    None.

Critical Paths under _main in BANK8

    None.

Critical Paths under _InterruptManager in BANK8

    None.

Critical Paths under _main in BANK9

    None.

Critical Paths under _InterruptManager in BANK9

    None.

Critical Paths under _main in BANK10

    None.

Critical Paths under _InterruptManager in BANK10

    None.

Critical Paths under _main in BANK11

    None.

Critical Paths under _InterruptManager in BANK11

    None.

Critical Paths under _main in BANK12

    None.

Critical Paths under _InterruptManager in BANK12

    None.

Critical Paths under _main in BANK13

    None.

Critical Paths under _InterruptManager in BANK13

    None.

Critical Paths under _main in BANK14

    None.

Critical Paths under _InterruptManager in BANK14

    None.

Critical Paths under _main in BANK15

    None.

Critical Paths under _InterruptManager in BANK15

    None.

Call Graph Tables:

 ---------------------------------------------------------------------------------
 (Depth) Function   	        Calls       Base Space   Used Autos Params    Refs
 ---------------------------------------------------------------------------------
 (0) _main                                                 0     0      0  253116
                            _display
                     _ecu_initialize
                     _loading_screen
                    _mcal_initialize
                    _welcome_message
                             _winner
 ---------------------------------------------------------------------------------
 (1) _winner                                               0     0      0   47548
              _lcd_4bit_send_command
           _lcd_4bit_send_string_pos
 ---------------------------------------------------------------------------------
 (1) _welcome_message                                      2     2      0   47548
                                             26 BANK0      2     2      0
              _lcd_4bit_send_command
           _lcd_4bit_send_string_pos
 ---------------------------------------------------------------------------------
 (1) _mcal_initialize                                      1     1      0    8090
                                             19 BANK0      1     1      0
          _interrupt_INTx_initialize
           _interrupt_RBx_initialize
 ---------------------------------------------------------------------------------
 (2) _interrupt_RBx_initialize                             3     2      1    1199
                                              8 BANK0      3     2      1
      _gpio_pin_direction_initialize
 ---------------------------------------------------------------------------------
 (2) _interrupt_INTx_initialize                            3     1      2    6870
                                             16 BANK0      3     1      2
 _interrupt_INTx_SetInterruptHandler
          _interrupt_INTx_clear_flag
             _interrupt_INTx_disable
           _interrupt_INTx_edge_init
              _interrupt_INTx_enable
            _interrupt_INTx_pin_init
 ---------------------------------------------------------------------------------
 (3) _interrupt_INTx_pin_init                              3     1      2    4519
                                             13 BANK0      3     1      2
                _gpio_pin_initialize
 ---------------------------------------------------------------------------------
 (3) _interrupt_INTx_enable                                5     3      2     201
                                              0 BANK0      5     3      2
 ---------------------------------------------------------------------------------
 (3) _interrupt_INTx_edge_init                             5     3      2     387
                                              0 BANK0      5     3      2
 ---------------------------------------------------------------------------------
 (3) _interrupt_INTx_disable                               5     3      2     291
                                              0 BANK0      5     3      2
 ---------------------------------------------------------------------------------
 (3) _interrupt_INTx_clear_flag                            5     3      2     201
                                              0 BANK0      5     3      2
 ---------------------------------------------------------------------------------
 (3) _interrupt_INTx_SetInterruptHandler                   5     3      2     729
                                              2 BANK0      5     3      2
           _INT0_SetInterruptHandler
           _INT1_SetInterruptHandler
           _INT2_SetInterruptHandler
 ---------------------------------------------------------------------------------
 (4) _INT2_SetInterruptHandler                             3     1      2     145
                                              0 BANK0      2     0      2
 ---------------------------------------------------------------------------------
 (4) _INT1_SetInterruptHandler                             3     1      2     145
                                              0 BANK0      2     0      2
 ---------------------------------------------------------------------------------
 (4) _INT0_SetInterruptHandler                             3     1      2     145
                                              0 BANK0      2     0      2
 ---------------------------------------------------------------------------------
 (1) _loading_screen                                       4     4      0   75602
                                             26 BANK0      4     4      0
        _lcd_4bit_send_char_data_pos
              _lcd_4bit_send_command
           _lcd_4bit_send_string_pos
 ---------------------------------------------------------------------------------
 (2) _lcd_4bit_send_char_data_pos                          5     1      4   27881
                                             20 BANK0      5     1      4
            _lcd_4bit_send_char_data
                _lcd_4bit_set_cursor
 ---------------------------------------------------------------------------------
 (1) _ecu_initialize                                       1     1      0   20796
                                             20 BANK0      1     1      0
                  _button_initialize
                _lcd_4bit_initialize
 ---------------------------------------------------------------------------------
 (2) _lcd_4bit_initialize                                  4     3      1   19594
                                             16 BANK0      4     3      1
                _gpio_pin_initialize
              _lcd_4bit_send_command
 ---------------------------------------------------------------------------------
 (4) _gpio_pin_initialize                                  4     2      2    4327
                                              9 BANK0      4     2      2
      _gpio_pin_direction_initialize
               _gpio_pin_write_logic
 ---------------------------------------------------------------------------------
 (2) _button_initialize                                    2     1      1    1178
                                              8 BANK0      2     1      1
      _gpio_pin_direction_initialize
 ---------------------------------------------------------------------------------
 (3) _gpio_pin_direction_initialize                        8     6      2     533
                                              0 BANK0      8     6      2
 ---------------------------------------------------------------------------------
 (1) _display                                              0     0      0   53532
           _convert_uint16_to_string
              _lcd_4bit_send_command
           _lcd_4bit_send_string_pos
                        _read_eeprom
 ---------------------------------------------------------------------------------
 (2) _read_eeprom                                          0     0      0     705
               _Data_EEPROM_ReadByte
 ---------------------------------------------------------------------------------
 (3) _Data_EEPROM_ReadByte                                 4     1      3     705
                                              0 BANK0      3     0      3
 ---------------------------------------------------------------------------------
 (2) _lcd_4bit_send_string_pos                             6     1      5   32986
                                             20 BANK0      6     1      5
            _lcd_4bit_send_char_data
                _lcd_4bit_set_cursor
 ---------------------------------------------------------------------------------
 (3) _lcd_4bit_set_cursor                                  4     1      3   15467
                                             16 BANK0      4     1      3
              _lcd_4bit_send_command
 ---------------------------------------------------------------------------------
 (4) _lcd_4bit_send_command                                3     1      2   14562
                                             13 BANK0      3     1      2
               _gpio_pin_write_logic
             _lcd_4bit_enable_signal
                     _lcd_send_4bits
 ---------------------------------------------------------------------------------
 (3) _lcd_4bit_send_char_data                              3     1      2   11462
                                             13 BANK0      3     1      2
               _gpio_pin_write_logic
             _lcd_4bit_enable_signal
                     _lcd_send_4bits
 ---------------------------------------------------------------------------------
 (5) _lcd_send_4bits                                       4     2      2    4014
                                              9 BANK0      4     2      2
               _gpio_pin_write_logic
 ---------------------------------------------------------------------------------
 (5) _lcd_4bit_enable_signal                               3     2      1    3462
                                              9 BANK0      3     2      1
               _gpio_pin_write_logic
 ---------------------------------------------------------------------------------
 (6) _gpio_pin_write_logic                                 9     6      3    2963
                                              0 BANK0      9     6      3
 ---------------------------------------------------------------------------------
 (2) _convert_uint16_to_string                            11     8      3    5279
                                             42 BANK0     11     8      3
                             _memset
                            _sprintf
 ---------------------------------------------------------------------------------
 (3) _sprintf                                             19    15      4    3611
                                             25 BANK0     17    13      4
                           _vfprintf
 ---------------------------------------------------------------------------------
 (4) _vfprintf                                             4     1      3    2947
                                             21 BANK0      4     1      3
                          _vfpfcnvrt
 ---------------------------------------------------------------------------------
 (5) _vfpfcnvrt                                           11     8      3    2586
                                             10 BANK0     11     8      3
                            ___awdiv
                            ___awmod
                                _abs
                              _fputc
 ---------------------------------------------------------------------------------
 (6) _fputc                                                8     5      3     782
                                              0 BANK0      8     5      3
                              _putch
 ---------------------------------------------------------------------------------
 (7) _putch                                                1     1      0       0
 ---------------------------------------------------------------------------------
 (6) _abs                                                  4     2      2     142
                                              6 BANK0      4     2      2
                            ___awmod (ARG)
 ---------------------------------------------------------------------------------
 (6) ___awmod                                              6     2      4     448
                                              0 BANK0      6     2      4
 ---------------------------------------------------------------------------------
 (6) ___awdiv                                              8     4      4     452
                                              0 BANK0      8     4      4
 ---------------------------------------------------------------------------------
 (3) _memset                                               6     1      5     780
                                              0 BANK0      6     1      5
 ---------------------------------------------------------------------------------
 Estimated maximum stack depth 7
 ---------------------------------------------------------------------------------
 (Depth) Function   	        Calls       Base Space   Used Autos Params    Refs
 ---------------------------------------------------------------------------------
 (8) _InterruptManager                                    14    14      0  185896
                                             54 COMRAM    14    14      0
                           _INT0_ISR
                           _INT1_ISR
                           _INT2_ISR
                            _RB4_ISR
                            _RB5_ISR
                            _RB6_ISR
                            _RB7_ISR
 ---------------------------------------------------------------------------------
 (9) _RB7_ISR                                              1     1      0   43522
                                             53 COMRAM     1     1      0
                                NULL *
                   _RB4_HIGH_APP_ISR *
                    _RB5_LOW_APP_ISR *
                   _RB6_HIGH_APP_ISR *
 ---------------------------------------------------------------------------------
 (9) _RB6_ISR                                              1     1      0   43522
                                             53 COMRAM     1     1      0
                                NULL *
                   _RB4_HIGH_APP_ISR *
                    _RB5_LOW_APP_ISR *
                   _RB6_HIGH_APP_ISR *
 ---------------------------------------------------------------------------------
 (9) _RB5_ISR                                              1     1      0   43522
                                             53 COMRAM     1     1      0
                                NULL *
                   _RB4_HIGH_APP_ISR *
                    _RB5_LOW_APP_ISR *
                   _RB6_HIGH_APP_ISR *
 ---------------------------------------------------------------------------------
 (9) _RB4_ISR                                              1     1      0   43522
                                             53 COMRAM     1     1      0
                                NULL *
                   _RB4_HIGH_APP_ISR *
                    _RB5_LOW_APP_ISR *
                   _RB6_HIGH_APP_ISR *
 ---------------------------------------------------------------------------------
 (10) _RB6_HIGH_APP_ISR                                    0     0      0   18845
            i2_lcd_4bit_send_command
                           i2_winner
 ---------------------------------------------------------------------------------
 (11) i2_winner                                            0     0      0   14623
            i2_lcd_4bit_send_command
         i2_lcd_4bit_send_string_pos
 ---------------------------------------------------------------------------------
 (10) _RB5_LOW_APP_ISR                                     0     0      0   23303
                       _clear_eeprom
                          i2_display
            i2_lcd_4bit_send_command
 ---------------------------------------------------------------------------------
 (11) i2_display                                           0     0      0   17769
         i2_convert_uint16_to_string
            i2_lcd_4bit_send_command
         i2_lcd_4bit_send_string_pos
                      i2_read_eeprom
 ---------------------------------------------------------------------------------
 (12) i2_read_eeprom                                       0     0      0     305
             i2_Data_EEPROM_ReadByte
 ---------------------------------------------------------------------------------
 (13) i2_Data_EEPROM_ReadByte                              4     1      3     305
                                              0 COMRAM     3     0      3
 ---------------------------------------------------------------------------------
 (12) i2_lcd_4bit_send_string_pos                          6     1      5   10401
                                             20 COMRAM     6     1      5
          i2_lcd_4bit_send_char_data
              i2_lcd_4bit_set_cursor
 ---------------------------------------------------------------------------------
 (13) i2_lcd_4bit_set_cursor                               4     1      3    4692
                                             16 COMRAM     4     1      3
            i2_lcd_4bit_send_command
 ---------------------------------------------------------------------------------
 (14) i2_lcd_4bit_send_command                             3     1      2    4222
                                             13 COMRAM     3     1      2
             i2_gpio_pin_write_logic
           i2_lcd_4bit_enable_signal
                   i2_lcd_send_4bits
 ---------------------------------------------------------------------------------
 (13) i2_lcd_4bit_send_char_data                           3     1      2    3732
                                             13 COMRAM     3     1      2
             i2_gpio_pin_write_logic
           i2_lcd_4bit_enable_signal
                   i2_lcd_send_4bits
 ---------------------------------------------------------------------------------
 (15) i2_lcd_send_4bits                                    4     2      2    1434
                                              9 COMRAM     4     2      2
             i2_gpio_pin_write_logic
 ---------------------------------------------------------------------------------
 (15) i2_lcd_4bit_enable_signal                            3     2      1    1102
                                              9 COMRAM     3     2      1
             i2_gpio_pin_write_logic
 ---------------------------------------------------------------------------------
 (16) i2_gpio_pin_write_logic                              9     6      3     823
                                              0 COMRAM     9     6      3
 ---------------------------------------------------------------------------------
 (12) i2_convert_uint16_to_string                         11     8      3    2841
                                             42 COMRAM    11     8      3
                           i2_memset
                          i2_sprintf
 ---------------------------------------------------------------------------------
 (13) i2_sprintf                                          19    15      4    2185
                                             25 COMRAM    17    13      4
                         i2_vfprintf
 ---------------------------------------------------------------------------------
 (14) i2_vfprintf                                          4     1      3    1934
                                             21 COMRAM     4     1      3
                        i2_vfpfcnvrt
 ---------------------------------------------------------------------------------
 (15) i2_vfpfcnvrt                                        11     8      3    1734
                                             10 COMRAM    11     8      3
                          i2___awdiv
                          i2___awmod
                              i2_abs
                            i2_fputc
 ---------------------------------------------------------------------------------
 (16) i2_fputc                                             8     5      3     330
                                              0 COMRAM     8     5      3
                            i2_putch
 ---------------------------------------------------------------------------------
 (17) i2_putch                                             1     1      0       0
 ---------------------------------------------------------------------------------
 (16) i2_abs                                               4     2      2      92
                                              6 COMRAM     4     2      2
                          i2___awmod (ARG)
 ---------------------------------------------------------------------------------
 (16) i2___awmod                                           6     2      4     348
                                              0 COMRAM     6     2      4
 ---------------------------------------------------------------------------------
 (16) i2___awdiv                                           8     4      4     352
                                              0 COMRAM     8     4      4
 ---------------------------------------------------------------------------------
 (13) i2_memset                                            6     1      5     174
                                              0 COMRAM     6     1      5
 ---------------------------------------------------------------------------------
 (11) _clear_eeprom                                        0     0      0    1312
              _Data_EEPROM_WriteByte
 ---------------------------------------------------------------------------------
 (10) _RB4_HIGH_APP_ISR                                    0     0      0    1312
                       _store_eeprom
 ---------------------------------------------------------------------------------
 (9) _INT2_ISR                                             0     0      0    3936
                                NULL *
                       _INT0_APP_ISR *
                       _INT1_APP_ISR *
                       _INT2_APP_ISR *
 ---------------------------------------------------------------------------------
 (9) _INT1_ISR                                             0     0      0    3936
                                NULL *
                       _INT0_APP_ISR *
                       _INT1_APP_ISR *
                       _INT2_APP_ISR *
 ---------------------------------------------------------------------------------
 (9) _INT0_ISR                                             0     0      0    3936
                                NULL *
                       _INT0_APP_ISR *
                       _INT1_APP_ISR *
                       _INT2_APP_ISR *
 ---------------------------------------------------------------------------------
 (10) _INT2_APP_ISR                                        0     0      0    1312
                       _store_eeprom
 ---------------------------------------------------------------------------------
 (10) _INT1_APP_ISR                                        0     0      0    1312
                       _store_eeprom
 ---------------------------------------------------------------------------------
 (10) _INT0_APP_ISR                                        0     0      0    1312
                       _store_eeprom
 ---------------------------------------------------------------------------------
 (11) _store_eeprom                                        0     0      0    1312
              _Data_EEPROM_WriteByte
 ---------------------------------------------------------------------------------
 (12) _Data_EEPROM_WriteByte                               5     2      3    1312
                                              0 COMRAM     4     1      3
 ---------------------------------------------------------------------------------
 (10) NULL(Fake)                                           0     0      0       0
 ---------------------------------------------------------------------------------
 Estimated maximum stack depth 17
 ---------------------------------------------------------------------------------

 Call Graph Graphs:

 _main (ROOT)
   _display
     _convert_uint16_to_string
       _memset
       _sprintf
         _vfprintf
           _vfpfcnvrt
             ___awdiv
             ___awmod
             _abs
               ___awmod (ARG)
             _fputc
               _putch
     _lcd_4bit_send_command
       _gpio_pin_write_logic
       _lcd_4bit_enable_signal
         _gpio_pin_write_logic
       _lcd_send_4bits
         _gpio_pin_write_logic
     _lcd_4bit_send_string_pos
       _lcd_4bit_send_char_data
         _gpio_pin_write_logic
         _lcd_4bit_enable_signal
         _lcd_send_4bits
       _lcd_4bit_set_cursor
         _lcd_4bit_send_command
     _read_eeprom
       _Data_EEPROM_ReadByte
   _ecu_initialize
     _button_initialize
       _gpio_pin_direction_initialize
     _lcd_4bit_initialize
       _gpio_pin_initialize
         _gpio_pin_direction_initialize
         _gpio_pin_write_logic
       _lcd_4bit_send_command
   _loading_screen
     _lcd_4bit_send_char_data_pos
       _lcd_4bit_send_char_data
       _lcd_4bit_set_cursor
     _lcd_4bit_send_command
     _lcd_4bit_send_string_pos
   _mcal_initialize
     _interrupt_INTx_initialize
       _interrupt_INTx_SetInterruptHandler
         _INT0_SetInterruptHandler
         _INT1_SetInterruptHandler
         _INT2_SetInterruptHandler
       _interrupt_INTx_clear_flag
       _interrupt_INTx_disable
       _interrupt_INTx_edge_init
       _interrupt_INTx_enable
       _interrupt_INTx_pin_init
         _gpio_pin_initialize
     _interrupt_RBx_initialize
       _gpio_pin_direction_initialize
   _welcome_message
     _lcd_4bit_send_command
     _lcd_4bit_send_string_pos
   _winner
     _lcd_4bit_send_command
     _lcd_4bit_send_string_pos

 _InterruptManager (ROOT)
   _INT0_ISR
     NULL(Fake) *
     _INT0_APP_ISR *
       _store_eeprom
         _Data_EEPROM_WriteByte
     _INT1_APP_ISR *
       _store_eeprom
     _INT2_APP_ISR *
       _store_eeprom
   _INT1_ISR
     NULL(Fake) *
     _INT0_APP_ISR *
     _INT1_APP_ISR *
     _INT2_APP_ISR *
   _INT2_ISR
     NULL(Fake) *
     _INT0_APP_ISR *
     _INT1_APP_ISR *
     _INT2_APP_ISR *
   _RB4_ISR
     NULL(Fake) *
     _RB4_HIGH_APP_ISR *
       _store_eeprom
     _RB5_LOW_APP_ISR *
       _clear_eeprom
         _Data_EEPROM_WriteByte
       i2_display
         i2_convert_uint16_to_string
           i2_memset
           i2_sprintf
             i2_vfprintf
               i2_vfpfcnvrt
                 i2___awdiv
                 i2___awmod
                 i2_abs
                   i2___awmod (ARG)
                 i2_fputc
                   i2_putch
         i2_lcd_4bit_send_command
           i2_gpio_pin_write_logic
           i2_lcd_4bit_enable_signal
             i2_gpio_pin_write_logic
           i2_lcd_send_4bits
             i2_gpio_pin_write_logic
         i2_lcd_4bit_send_string_pos
           i2_lcd_4bit_send_char_data
             i2_gpio_pin_write_logic
             i2_lcd_4bit_enable_signal
             i2_lcd_send_4bits
           i2_lcd_4bit_set_cursor
             i2_lcd_4bit_send_command
         i2_read_eeprom
           i2_Data_EEPROM_ReadByte
       i2_lcd_4bit_send_command
     _RB6_HIGH_APP_ISR *
       i2_lcd_4bit_send_command
       i2_winner
         i2_lcd_4bit_send_command
         i2_lcd_4bit_send_string_pos
   _RB5_ISR
     NULL(Fake) *
     _RB4_HIGH_APP_ISR *
     _RB5_LOW_APP_ISR *
     _RB6_HIGH_APP_ISR *
   _RB6_ISR
     NULL(Fake) *
     _RB4_HIGH_APP_ISR *
     _RB5_LOW_APP_ISR *
     _RB6_HIGH_APP_ISR *
   _RB7_ISR
     NULL(Fake) *
     _RB4_HIGH_APP_ISR *
     _RB5_LOW_APP_ISR *
     _RB6_HIGH_APP_ISR *

 Address spaces:
Name               Size   Autos  Total    Cost      Usage
BIGRAM             F7F      0       0      42        0.0%
EEDATA             400      0       0       0        0.0%
BITBANK14          100      0       0      32        0.0%
BANK14             100      0       0      33        0.0%
BITBANK13          100      0       0      30        0.0%
BANK13             100      0       0      31        0.0%
BITBANK12          100      0       0      28        0.0%
BANK12             100      0       0      29        0.0%
BITBANK11          100      0       0      26        0.0%
BANK11             100      0       0      27        0.0%
BITBANK10          100      0       0      24        0.0%
BANK10             100      0       0      25        0.0%
BITBANK9           100      0       0      22        0.0%
BANK9              100      0       0      23        0.0%
BITBANK8           100      0       0      20        0.0%
BANK8              100      0       0      21        0.0%
BITBANK7           100      0       0      18        0.0%
BANK7              100      0       0      19        0.0%
BITBANK6           100      0       0      16        0.0%
BANK6              100      0       0      17        0.0%
BITBANK5           100      0       0      14        0.0%
BANK5              100      0       0      15        0.0%
BITBANK4           100      0       0      12        0.0%
BANK4              100      0       0      13        0.0%
BITBANK3           100      0       0      10        0.0%
BANK3              100      0       0      11        0.0%
BITBANK2           100      0       0       8        0.0%
BANK2              100      0       0       9        0.0%
BITBANK1           100      0       0       6        0.0%
BANK1              100      0      3C       7       23.4%
BITBANK15           80      0       0      34        0.0%
BANK15              80      0       0      35        0.0%
BITBANK0            80      0       0       4        0.0%
BANK0               80     35      7E       5       98.4%
BITCOMRAM           7E      0       0       0        0.0%
COMRAM              7E     44      7C       1       98.4%
BITBIGSFRlhl        45      0       0      37        0.0%
BITBIGSFRlllh        F      0       0      38        0.0%
BITBIGSFRh           D      0       0      36        0.0%
BITBIGSFRllllh       4      0       0      39        0.0%
BITBIGSFRlllll       4      0       0      40        0.0%
BIGSFR               0      0       0     200        0.0%
BITSFR               0      0       0     200        0.0%
SFR                  0      0       0     200        0.0%
STACK                0      0       0       2        0.0%
NULL                 0      0       0       0        0.0%
ABS                  0      0     136      41        0.0%
DATA                 0      0     136       3        0.0%
CODE                 0      0       0       0        0.0%


Microchip Technology PIC18 Macro Assembler V2.46 build 20240104201356 
Symbol Table                                                                                   Tue Sep 10 12:48:06 2024

                          ??_InterruptManager 0037                                             l9 3AAE  
                             ?_lcd_send_4bits 0089                                            l61 336A  
                                          l71 36E4                                            l56 1FBE  
                                          l66 33D8                                            l91 27D2  
                                          l87 27D0                                  ___awdiv@sign 0085  
                            ??_loading_screen 009A                    i2lcd_4bit_send_command@lcd 000E  
                  i2lcd_4bit_send_command@ret 0010              interrupt_INTx_initialize@int_obj 0090  
                                         l202 2B26                                           l153 2C62  
                                         l242 35AA                                           l315 20E4  
                                         l334 2206                                           l158 3602  
                                         l510 2F2E                                           l175 2CFA  
                                         l167 2CF8                                           l521 3288  
                                         l505 2ECC                                           l267 38AA  
                                         l355 3214                                           l507 2EDA  
                                         l196 2B24                                           l516 3232  
                                         l508 2EE4                                           l541 1E96  
                                         l518 323C                                           l519 3242  
                                         l552 32A6                                           l562 3C0A  
                                         l554 32B0                                           l546 3982  
                                         l555 32B6                                           l804 369E  
                                         l572 3BBA                                           l557 32FC  
                                         l477 319E                                           l485 233E  
                                         l494 2434                                           l670 3552  
                                         l814 1AE8                                           l567 3BE2  
                                         l583 2670                                           l489 2430  
                                         l791 19A6                                           l784 34FA  
                                         l795 1862                    ??_INT0_SetInterruptHandler 0082  
               gpio_pin_initialize@pin_config 0089                                           _abs 391A  
                               ?_INT0_APP_ISR 0001                                           _lcd 00C9  
                   _RB5_InterruptHandler_HIGH 0059                                           _ret 007C  
                                ___awmod@sign 0085                               _mcal_initialize 34FC  
                                         tosl 0FFD                                           wreg 0FE8  
                               ?_INT1_APP_ISR 0001                           __end_ofi2_vfpfcnvrt 170E  
                               ?_INT2_APP_ISR 0001                     ?_convert_uint16_to_string 00AA  
                   ?_interrupt_RBx_initialize 0088                               __end_of_RB4_ISR 3128  
                             __end_of_RB5_ISR 30AA                               __end_of_RB6_ISR 302C  
                             __end_of_RB7_ISR 2FAE                                          ?_abs 0086  
                                        l1061 2722                                          l1048 24FA  
                                        l1501 38E2                                          l4001 26FC  
                                        l4003 2702                                          l4011 2884  
                                        l4005 2712                                          l4021 28FE  
                                        l4013 2896                                          l4007 271A  
                                        l4015 28A6                                          l4111 13AA  
                                        l4103 136C                                          l1552 394E  
                                        l4025 391A                                          l4017 28B0  
                                        l4121 1412                                          l4113 13B4  
                                        l4105 1392                                          l1545 3728  
                                        l4027 392A                                          l4019 28CC  
                                        l1539 1540                                          l4131 14A0  
                                        l4123 142A                                          l4115 13D2  
                                        l4107 139A                                          l1564 292E  
                                        l1549 3936                                          l4133 14B0  
                                        l4141 14F8                                          l4125 1460  
                                        l4117 13F0                                          l4109 13A6  
                                        l4301 3BD4                                          l1494 3A50  
                                        l1575 3CCE                                          l4135 14C0  
                                        l4127 147C                                          l4119 1408  
                                        l4143 150E                                          l4311 3B94  
                                        l4137 14D6                                          l4129 1490  
                                        l4305 3BE0                                          l4313 3BA8  
                                        l4411 3A28                                          l4139 14F4  
                                        l4147 151C                                          l4323 36E6  
                                        l6011 35FA                                          l6003 35AC  
                                        l4315 3BAC                                          l4413 3A32  
                                        l4325 36EE                                          l4421 38BE  
                                        l6013 3600                                          l6005 35BE  
                                        l6101 33D2                                          l4309 3B94  
                                        l4415 3A34                                          l4327 3700  
                                        l4423 38C6                                          l6007 35C6  
                                        l6103 33D6                                          l6111 2C7E  
                                        l4431 3886                                          l4319 3BB8  
                                        l4409 3A20                                          l4329 371E  
                                        l4425 38D6                                          l4417 38AC  
                                        l6009 35DC                                          l6113 2C84  
                                        l6121 2CCC                                          l4441 3898  
                                        l4433 388A                                          l4281 3BE4  
                                        l6201 1E0C                                          l4419 38B6  
                                        l6115 2C96                                          l6123 2CF2  
                                        l6107 2C64                                          l4443 389A  
                                        l4435 3890                                          l6051 31A0  
                                        l4291 3C08                                          l4283 3BE4  
                                        l6131 322A                                          l6211 1E50  
                                        l6117 2CA8                                          l6109 2C76  
                                        l4445 389C                                          l4437 3894  
                                        l4429 3874                                          l6061 3212  
                                        l6053 31B4                                          l4285 3BF8  
                                        l6133 3234                                          l6141 3248  
                                        l6205 1E12                                          l6071 3364  
                                        l6119 2CBA                                          l4447 389E  
                                        l4439 3896                                          l6055 31D6  
                                        l4287 3BFC                                          l4295 3BBC  
                                        l6143 3286                                          l6127 3216  
                                        l6207 1E2E                                          l6231 3964  
                                        l6073 3368                                          l6065 32FE  
                                        l4449 38AA                                          l6057 31DE  
                                        l6049 31A0                                          l6401 1F9A  
                                        l4297 3BBC                                          l6241 25C0  
                                        l6153 328A                                          l6129 3216  
                                        l6209 1E34                                          l6217 1E56  
                                        l6233 396C                                          l7121 3906  
                                        l7113 38E4                                          l3931 2436  
                                        l6067 3310                                          l6059 320E  
                                        l6403 1FA8                                          l6411 36A0  
                                        l4299 3BD0                                          l6243 25D4  
                                        l6155 328A                                          l6219 1E94  
                                        l6235 3980                                          l6227 3950  
                                        l7123 390E                                          l7115 38EC  
                                        l3941 2464                                          l3933 243C  
                                        l4821 2A9C                                          l6069 3318  
                                        l6405 1FB6                                          l6413 36B2  
                                        l6245 25DC                                          l6253 2630  
                                        l7301 32DC                                          l6157 329E  
                                        l6181 1D6A                                          l6229 3950  
                                        l6501 319C                                          l7117 38F0  
                                        l3951 2492                                          l3943 246C  
                                        l3935 244A                                          l4831 2AF0  
                                        l4823 2AAE                                          l6095 336C  
                                        l6431 2764                                          l6423 2724  
                                        l6351 3A94                                          l6407 1FBC  
                                        l6415 36BA                                          l7303 2650  
                                        l6247 25F8                                          l6255 266E  
                                        l6239 25C0                                          l6159 32A8  
                                        l6167 32BC                                          l6191 1DC4  
                                        l6183 1D7E                                          l6263 2EB0  
                                        l6511 235C                                          l7119 38F4  
                                        l3961 24CC                                          l3953 249A  
                                        l3945 2470                                          l3937 2452  
                                        l4833 2B04                                          l4825 2AB2  
                                        l4817 2A82                                          l7305 21EE  
                                        l6097 337E                                          l6433 2792  
                                        l6425 2736                                          l6353 3A9C  
                                        l6361 1E98                                          l6417 36DE  
                                        l6249 2614                                          l6169 32FA  
                                        l6193 1DC6                                          l6185 1D86  
                                        l6265 2EB0                                          l6513 236A  
                                        l6505 2324                                          l3971 24F2  
                                        l3963 24CE                                          l3955 24A8  
                                        l3947 2478                                          l3939 2456  
                                        l4835 2B06                                          l4827 2ACA  
                                        l4819 2A94                                          l6099 3386  
                                        l6435 2798                                          l6427 2748  
                                        l6355 3AA6                                          l6363 1EAA  
                                        l6419 36E2                                          l6195 1DCE  
                                        l6187 1DA2                                          l6179 1D6A  
                                        l6267 2EC4                                          l6531 23DA  
                                        l6523 23A8                                          l6515 237C  
                                        l6507 2336                                          l3965 24D4  
                                        l3957 24AE                                          l3949 248A  
                                        l3981 268E                                          l4837 2B20  
                                        l4829 2AD8                                          l6437 27CA  
                                        l6429 2750                                          l6357 3AAC  
                                        l6349 3A82                                          l6381 1F02  
                                        l6365 1EB2                                          l6197 1DEA  
                                        l6189 1DA8                                          l6269 2ED2  
                                        l6277 2EEE                                          l6525 23B6  
                                        l6517 2384                                          l6509 2346  
                                        l6541 2432                                          l3959 24C4  
                                        l3967 24DA                                          l3991 26C2  
                                        l3983 2692                                          l3975 2672  
                                        l6391 1F54                                          l6383 1F14  
                                        l6375 1EDA                                          l6367 1ED6  
                                        l6631 3554                                          l6199 1DF0  
                                        l6279 2F2C                                          l6535 23F0  
                                        l6519 2392                                          l6711 352E  
                                        l6703 34FC                                          l3969 24EA  
                                        l3993 26CA                                          l3985 26A0  
                                        l3977 2678                                          l6801 1712  
                                        l6393 1F62                                          l6385 1F22  
                                        l6377 1EEE                                          l6369 1ED6  
                                        l6641 3586                                          l6633 3554  
                                        l6529 23CC                                          l6713 353A  
                                        l6705 34FC                                          l6721 34D8  
                                        l3995 26D8                                          l3987 26A8  
                                        l3979 2686                                          l5931 2124  
                                        l5923 20E6                                          l4947 3656  
                                        l6811 177A                                          l6803 1724  
                                        l6395 1F70                                          l6387 1F40  
                                        l6379 1EF2                                          l6643 3592  
                                        l6635 3562                                          l6731 18A2  
                                        l6491 313C                                          l6539 23F8  
                                        l6715 3546                                          l6707 350E  
                                        l6723 34E8                                          l3997 26EE  
                                        l3989 26BA                                          l5933 217C  
                                        l5925 20E6                                          l6821 1808  
                                        l6813 1794                                          l6805 1736  
                                        l6397 1F7E                                          l6389 1F46  
                                        l6645 359E                                          l6637 356E  
                                        l6725 1864                                          l6493 3144  
                                        l6709 351E                                          l6717 349E  
                                        l3999 26F6                                          l5935 2184  
                                        l5943 21DA                                          l5927 20FA  
                                        l6823 1828                                          l6815 17B4  
                                        l6807 1748                                          l6399 1F8C  
                                        l6639 357A                                          l6751 18F0  
                                        l6743 18AC                                          l6727 186A  
                                        l7295 2F0E                                          l6495 3174  
                                        l6487 3128                                          l6719 34BE  
                                        l5945 2204                                          l5929 211C  
                                        l6825 1842                                          l6817 17CE  
                                        l6809 175A                                          l6761 194A  
                                        l6753 190E                                          l6745 18C2  
                                        l6737 18A8                                          l6729 1888  
                                        l7297 1E76                                          l6497 3180  
                                        l6489 3128                                          l6827 1854  
                                        l6819 17EE                                          l5971 1FF6  
                                        l6763 195C                                          l6755 1928  
                                        l6747 18DC                                          l7299 3268  
                                        l6499 318C                                          l6771 19BC  
                                        l5973 1FFE                                          l5965 1FC0  
                                        l6765 197C                                          l6757 192C  
                                        l6749 18E0                                          l6781 1A24  
                                        l6773 19CE                       ??_Data_EEPROM_WriteByte 0004  
                                        l5991 2BC8                                          l5975 2056  
                                        l5967 1FC0                                          l6767 1996  
                                        l6759 193C                                          l6791 1A8C  
                                        l6783 1A36                                          l6775 19E0  
                                        l5993 2BDA                                          l5977 205E  
                                        l5985 20B4                                          l5969 1FD4  
                                        l6793 1AAC                                          l6785 1A56  
                                        l6777 1A00                                          l6769 19A8  
                                        l5995 2BE2                                          l5987 20E2  
                                        l6787 1A68                                          l6779 1A12  
                                        l6795 1AC8                                          l5997 2C5C  
                                        l6797 1ADA                                          l6789 1A7A  
                                        l5999 2C60                                          l6799 170E  
                                        STR_1 1071                                          STR_2 1071  
                                        STR_4 1051                                          STR_5 1059  
                                        STR_6 1061                                          STR_7 1041  
                                        STR_8 1065                                          STR_9 1068  
                                        _LATA 0F89                                          _LATB 0F8A  
                                        _LATC 0F8B                                          u3200 26A0  
                                        _LATD 0F8C                                          u3201 269C  
                                        _LATE 0F8D                                          u3130 244A  
                                        u3210 26BA                                          u3131 2446  
                                        u3211 26B6                                          u3140 2464  
                                        u3220 26D8                                          u4100 2A94  
                                        u3141 2460                                          u3221 26D4  
                                        u4101 2A90                                          u3150 248A  
                                        u3230 26EE                                          u3151 2486  
                                        u3231 26EA                                          u4111 2AA6  
                                        u3160 24A8                                          u3240 2712  
                                        u3400 13D2                                          u4120 2B20  
                                        u3161 24A4                                          u3241 270E  
                                        u3401 13CE                                          u4121 2B1C  
                                        u3170 24C4                                          u3250 2896  
                                        u3410 13F0                                          u3171 24C0  
                                        u3251 2892                                          u3411 13EC  
                                        u3180 24EA                                          u3260 28A6  
                                        u3420 1426                                          u3181 24E6  
                                        u3261 28A2                                          u3421 1420  
                                        u3190 2686                                          u3270 28CC  
                                        u3430 1428                                          u3191 2682  
                                        u3271 28C8                                          u3280 28FE  
                                        u3440 1490                                          u3600 3BA8  
                                        u3281 28FA                                          u3441 148C  
                                        u3601 3BA4                                          u3290 392A  
                                        u3450 14A0                                          u3610 371E  
                                        u3291 3926                                          u3451 149C  
                                        u3611 371A                                          u3460 14B0  
                                        u6100 27BA                                          u3461 14AC  
                                        u3470 14C0                                          u3390 1392  
                                        u6110 27CA                                          u6030 3A94  
                                        u3471 14BC                                          u3391 138E  
                                        u6111 27C6                                          u6031 3A90  
                                        u3720 3A50                                          u3480 150A  
                                        u6040 1EAA                                          u3721 3A4C  
                                        u3481 1506                                          u6041 1EA6  
                                        u3730 3886                                          u6050 1F02  
                                        u6107 27B0                                          u3731 3882  
                                        u6051 1EFE                                          u6060 36B2  
                                        u3580 3BF8                                          u6061 36AE  
                                        u3581 3BF4                                          u6070 2736  
                                        u3590 3BD0                                          u6071 2732  
                                        u3591 3BCC                                          u6080 2748  
                                        u6160 313C                                          u6081 2744  
                                        u6161 3138                                          u6090 278A  
                                        u5610 1FD4                                          u6170 2336  
                                        u5611 1FD0                                          u6171 2332  
                                        u5620 1FF6                                          u5700 31B4  
                                        u6500 18F0                                          u7140 3906  
                                        u5621 1FF2                                          u5701 31B0  
                                        u6501 18EC                                          u7141 3902  
                                        u5710 31D6                                          u6510 193C  
                                        u5711 31D2                                          u7207 1952  
                                        u6511 1938                                          u5560 20FA  
                                        u5720 3310                                          u5800 322A  
                                        u6600 1A8C                                          u6520 19BC  
                                        u5561 20F6                                          u5721 330C  
                                        u6097 2780                                          u7217 1988  
                                        u5801 3226                                          u6601 1A88  
                                        u6521 19B8                                          u5570 211C  
                                        u5650 20CC                                          u5634 201E  
                                        u5810 329E                                          u6610 1ADA  
                                        u6530 19CE                                          u5571 2118  
                                        u5651 20C6                                          u5635 201A  
                                        u7227 1F0A                                          u5811 329A  
                                        u6611 1AD6                                          u6531 19CA  
                                        u5660 2BDA                                          u6620 1854  
                                        u5644 207E                                          u5900 25D4  
                                        u5820 1D7E                                          u6540 19E0  
                                        i2l61 343A                                          u5661 2BD6  
                                        u6621 1850                                          u5645 207A  
                                        u7237 1F2A                                          u5901 25D0  
                                        u5821 1D7A                                          u7157 34CA  
                                        u6541 19DC                                          u5670 35BE  
                                        u5830 1DA2                                          u5910 2EC4  
                                        u6550 1A12                                          u5671 35BA  
                                        u7247 1F42                                          u5831 1D9E  
                                        u5911 2EC0                                          u7167 34F0  
                                        u6551 1A0E                                          u5584 2144  
                                        u5656 20CE                                          u5840 1DC4  
                                        u6560 1A24                                          u5585 2140  
                                        u7177 1894                                          u5841 1DC0  
                                        u6561 1A20                                          i2l66 349C  
                                        u5594 21A4                                          u5850 1DEA  
                                        u6570 1A36                                          i2l91 2A80  
                                        u5595 21A0                                          u7187 18CE  
                                        u5851 1DE6                                          u6571 1A32  
                                        u5780 337E                                          u5860 1E0C  
                                        u6580 1A68                                          u5781 337A  
                                        u7197 191A                                          u5861 1E08  
                                        u6581 1A64                                          u5790 2C76  
                                        u5870 1E2E                                          u6590 1A7A  
                                        i2l87 2A7E                                          u5791 2C72  
                                        u5871 1E2A                                          u6591 1A76  
                                        u5880 1E50                                          u5881 1E4C  
                                        u5890 3964                                          u5891 3960  
           __end_of_interrupt_INTx_clear_flag 32FE                      _RB4_InterruptHandler_LOW 005B  
                                        abs@a 0086                                          _btn1 00DE  
                                        _btn2 00DB                                          _btn3 00D8  
                                        _btn4 00D5                                          _btn5 00D2  
                                        _btn6 00CF                                          _dbuf 0100  
                                        _main 38E4                                          _prec 004D  
                    _RB7_InterruptHandler_LOW 004F                                          fsr0h 0FEA  
                                        fsr1h 0FE2                                          indf0 0FEF  
                                        fsr2h 0FDA                                          fsr0l 0FE9  
                                        indf1 0FE7                                          indf2 0FDF  
                                        fsr1l 0FE1                                          fsr2l 0FD9  
                                        btemp 007D             lcd_4bit_send_char_data_pos@column 0097  
                   ?_INT2_SetInterruptHandler 0080                                          prodh 0FF4  
                                        prodl 0FF3                                          start 000E  
                             __end_ofi2_fputc 29DA                               __end_ofi2_putch 3CD2  
                                ___param_bank 0000                       _interrupt_INTx_pin_init 3950  
                       _lcd_4bit_send_command 32FE                      _interrupt_INTx_edge_init 1D6A  
                                       ??_abs 0088                          _gpio_pin_write_logic 20E6  
            i2lcd_4bit_send_string_pos@column 0019                lcd_4bit_send_string_pos@column 0098  
                    ??_lcd_4bit_enable_signal 008A                                    i2_vfprintf 3834  
                            __end_of_INT0_ISR 3B68                              __end_of_INT1_ISR 3B3A  
                            __end_of_INT2_ISR 3B0C                                         ?_main 0001  
                             __end_of___awdiv 24FC                                         _EEADR 0FA9  
                                       STR_10 106B                                         STR_11 106E  
                                       STR_12 1001                                         STR_13 1011  
                                       STR_14 1021                                         STR_15 1031  
                             __end_of___awmod 2724                               ___awdiv@divisor 0082  
                              ??_INT0_APP_ISR 0005                                         i2l202 2BC6  
                                       i2l153 2E20                                         i2l261 3760  
                                       i2l262 376C                                         i2l334 2322  
                                       i2l158 3654                                         i2l175 2D8E  
                                       i2l167 2D8C                                         i2l432 3B66  
                                       i2l440 3B0A                                         i2l259 3752  
                                       i2l267 39B6                                         i2l436 3B38  
                                       i2l196 2BC4                                         i2l448 3126  
                                       i2l456 30A8                                         i2l464 302A  
                                       i2l472 2FAC                                         i2l801 3832  
                                       i2l627 1330                                         i2l804 37AE  
                                       i2l814 1C2A                                         i2l770 3CB6  
                                       i2l762 3C9C                                         i2l781 3C32  
                                       i2l766 3C82                                         i2l774 3C68  
                                       i2l777 3ADC                                         i2l795 1D68  
                             ___awdiv@counter 0084                                         i2l798 37F0  
                             _RB5_LOW_APP_ISR 3AB0                                  vfpfcnvrt@fmt 008B  
                                       _PORTA 0F80                                         _PORTB 0F81  
                                       _PORTC 0F82                                         _PORTD 0F83  
                                       _PORTE 0F84                                ??_INT1_APP_ISR 0005  
                                       _TRISA 0F92                          __end_of_clear_eeprom 37F2  
                                       _TRISB 0F93                                         _TRISC 0F94  
                                       _TRISD 0F95                                         _TRISE 0F96  
                                       i2_abs 39EC                     lcd_4bit_set_cursor@column 0092  
                              ??_INT2_APP_ISR 0005                                  ?_read_eeprom 0001  
                             __end_of_display 1864                                         _can_A 00FD  
                                       _can_B 00FC                                         _can_C 00FB  
                                       _can_D 00FA                                         _flags 0065  
                                       _fputc 2884                                         _width 004B  
                                       _putch 3CCE                            mcal_initialize@ret 0093  
                    _INT1_SetInterruptHandler 3BBC                                _tric_registers 00BF  
                                       pclath 0FFA                                         pclatu 0FFB  
                                       tablat 0FF5                                         plusw1 0FE3  
                                       plusw2 0FDB                                         ttemp5 007E  
                                       ttemp6 0081                                         ttemp7 0085  
                                       status 0FD8                                         wtemp8 007E  
                             __end_of_sprintf 38E4                              __end_ofi2_memset 3A82  
                __end_of_Data_EEPROM_ReadByte 38AC                             ?_RB4_HIGH_APP_ISR 0001  
                    __end_of_RB6_HIGH_APP_ISR 3C34     interrupt_INTx_SetInterruptHandler@int_obj 0082  
              ?_gpio_pin_direction_initialize 0080                              __end_ofi2_winner 1C2C  
                             __initialization 2E22                            ??_RB4_HIGH_APP_ISR 0005  
                                _store_eeprom 37F2             __end_of_interrupt_INTx_initialize 31A0  
                                __end_of_main 391A                             ecu_initialize@ret 0094  
                   i2gpio_pin_write_logic@ret 0009                         ?_gpio_pin_write_logic 0080  
                         i2lcd_send_4bits@lcd 000A                           i2lcd_send_4bits@ret 000D  
                 i2gpio_pin_write_logic@logic 0003                       __end_of_mcal_initialize 3554  
                     ?i2_Data_EEPROM_ReadByte 0001                                   i2_vfpfcnvrt 1542  
                               _lat_registers 00B5                                 i2vfpfcnvrt@ap 000D  
                               i2vfpfcnvrt@cp 0010                                 i2vfpfcnvrt@fp 000B  
              interrupt_INTx_pin_init@int_obj 008D                                        ??_main 00B5  
                               __activetblptr 0003            __end_ofi2_convert_uint16_to_string 2BC8  
                  i2_convert_uint16_to_string 2B28                                    i2sprintf@f 001F  
                                  i2sprintf@s 001A                                     ??_RB4_ISR 0036  
                                   ??_RB5_ISR 0036                                     ??_RB6_ISR 0036  
                                   ??_RB7_ISR 0036                                        ?i2_abs 0007  
                           _button_initialize 3A82                                        ?_fputc 0080  
                                      _EEADRH 0FAA                                        _EEDATA 0FA8  
                                      _EECON2 0FA7                              ___awdiv@dividend 0080  
                                      ?_putch 0001                            ?_button_initialize 0088  
                                      i2l1061 2882                                        i2l1048 25BE  
                                      i2l1501 39EA                                        i2l1552 3A1E  
                                      i2l1545 3872                                        i2l4041 3834  
                                      i2l4201 39AA                                        i2l4211 3A5A  
                                      i2l1539 170C                                        i2l4043 383C  
                                      i2l4203 39AC                                        i2l1564 29D8  
                                      i2l4213 3A64                                        i2l1549 3A06  
                                      i2l4045 384C                                        i2l4221 39C8  
                                      i2l4205 39B6                                        i2l1494 3A80  
                                      i2l5031 3B4E                                        i2l4215 3A66  
                                      i2l1575 3CD0                                        i2l4047 386A  
                                      i2l4223 39D0                                        i2l5033 3B0C  
                                      i2l5041 3AE0                                        i2l4209 3A52  
                                      i2l4225 39E0                                        i2l4217 39B8  
                                      i2l5027 3B3A                                        i2l5035 3B0E  
                                      i2l5043 3AF2                                        i2l4219 39C0  
                                      i2l4261 3732                                        i2l5029 3B3C  
                                      i2l5037 3B20                                        i2l6021 3454  
                                      i2l4271 3744                                        i2l4263 3738  
                                      i2l5039 3ADE                                        i2l4351 2B28  
                                      i2l6023 3496                                        i2l6031 2D0C  
                                      i2l4191 399E                                        i2l4273 3746  
                                      i2l4265 373C                                        i2l4257 372A  
                                      i2l3801 2872                                        i2l4361 2B6E  
                                      i2l4353 2B38                                        i2l6025 349A  
                                      i2l6017 343C                                        i2l6041 2D50  
                                      i2l6033 2D14                                        i2l4193 39A2  
                                      i2l4185 3984                                        i2l7001 10BE  
                                      i2l4275 3748                                        i2l4267 3740  
                                      i2l4259 372A                                        i2l3731 250E  
                                      i2l3803 287A                                        i2l3811 2930  
                                      i2l4371 2BC0                                        i2l4363 2B7A  
                                      i2l4355 2B40                                        i2l6019 344C  
                                      i2l6035 2D1A                                        i2l6043 2D62  
                                      i2l4195 39A4                                        i2l4187 3994  
                                      i2l7011 10F0                                        i2l7003 10CC  
                                      i2l4277 374C                                        i2l4269 3742  
                                      i2l3741 2534                                        i2l3733 2516  
                                      i2l3821 29A8                                        i2l3813 2940  
                                      i2l4365 2B92                                        i2l4357 2B52  
                                      i2l6037 2D2C                                        i2l6045 2D88  
                                      i2l6029 2CFC                                        i2l4197 39A6  
                                      i2l4189 3998                                        i2l6301 1C8E  
                                      i2l7101 12EC                                        i2l7021 112C  
                                      i2l7013 10FE                                        i2l7005 10D0  
                                      i2l4279 3750                                        i2l4615 37F2  
                                      i2l3751 256C                                        i2l3743 253C  
                                      i2l3735 251A                                        i2l3727 24FC  
                                      i2l3807 39EC                                        i2l3815 2950  
                                      i2l4367 2BA6                                        i2l4359 2B56  
                                      i2l6039 2D3E                                        i2l4199 39A8  
                                      i2l4375 376E                                        i2l6311 1D12  
                                      i2l6303 1CA6                                        i2l7111 132A  
                                      i2l7103 12FA                                        i2l7031 1162  
                                      i2l7023 113A                                        i2l7015 110C  
                                      i2l7007 10DE                                        i2l4617 37B0  
                                      i2l3761 2598                                        i2l3753 2572  
                                      i2l3745 254E                                        i2l3737 2528  
                                      i2l3729 2500                                        i2l3809 39FA  
                                      i2l3817 295A                                        i2l4369 2BA8  
                                      i2l6081 29FC                                        i2l6313 1D30  
                                      i2l6305 1CC4                                        i2l6321 1AFE  
                                      i2l7105 1308                                        i2l7033 1170  
                                      i2l7041 1198                                        i2l7025 114A  
                                      i2l7017 1110                                        i2l7009 10EC  
                                      i2l3755 2588                                        i2l3747 2556  
                                      i2l3763 259E                                        i2l3739 2530  
                                      i2l3771 27D4                                        i2l3819 2976  
                                      i2l3851 1542                                        i2l6091 2A7A  
                                      i2l6083 2A04                                        i2l6315 1D48  
                                      i2l6307 1CDC                                        i2l6331 1B66  
                                      i2l6323 1B10                                        i2l7107 1316  
                                      i2l7051 11D6                                        i2l7043 11A6  
                                      i2l7035 117E                                        i2l7027 114E  
                                      i2l7019 111E                                        i2l4901 3C96  
                                      i2l3765 25AE                                        i2l3757 2590  
                                      i2l3749 255E                                        i2l3781 2800  
                                      i2l3773 27D8                                        i2l3861 1588  
                                      i2l3853 1566                                        i2l6085 2A18  
                                      i2l6077 29DA                                        i2l6317 1D5A  
                                      i2l6309 1CFA                                        i2l6341 1BCE  
                                      i2l6333 1B78                                        i2l6325 1B22  
                                      i2l7109 1326                                        i2l7061 1216  
                                      i2l7045 11B4                                        i2l7053 11DC  
                                      i2l7037 118E                                        i2l7029 1154  
                                      i2l4911 3C9E                                        i2l4903 3C98  
                                      i2l3767 25B6                                        i2l3759 2592  
                                      i2l3791 2838                                        i2l3783 2808  
                                      i2l3775 27E6                                        i2l3871 15FE  
                                      i2l3863 15A6                                        i2l3855 156E  
                                      i2l6087 2A44                                        i2l6079 29EA  
                                      i2l6343 1BEE                                        i2l6335 1B98  
                                      i2l6327 1B42                                        i2l6319 1AEA  
                                      i2l7071 124A                                        i2l7063 121A  
                                      i2l7055 11EA                                        i2l7047 11C2  
                                      i2l7039 1192                                        i2l4913 3CB0  
                                      i2l4905 3C6A                                        i2l3793 284E  
                                      i2l3785 281A                                        i2l3777 27EE  
                                      i2l3881 1680                                        i2l3873 1632  
                                      i2l3865 15C4                                        i2l3857 157A  
                                      i2l6089 2A48                                        i2l6337 1BAA  
                                      i2l6329 1B54                                        i2l6345 1C0A  
                                      i2l4921 3C64                                        i2l7081 1280  
                                      i2l7073 125A                                        i2l7057 11F8  
                                      i2l7065 1220                                        i2l7049 11D2  
                                      i2l4915 3CB2                                        i2l4907 3C7C  
                                      i2l3795 2856                                        i2l3787 2822  
                                      i2l3779 27F2                                        i2l3883 1690  
                                      i2l3875 164E                                        i2l3867 15DC  
                                      i2l3891 16DC                                        i2l3859 157E  
                                      i2l7307 230A                                        i2l6291 1C30  
                                      i2l6347 1C1C                                        i2l6339 1BBC  
                                      i2l7091 12B6                                        i2l7083 128E  
                                      i2l7075 125E                                        i2l7067 122E  
                                      i2l7059 1206                                        i2l4909 3C7E  
                                      i2l3797 285C                                        i2l3789 282A  
                                      i2l3885 16A6                                        i2l3877 1660  
                                      i2l3869 15E6                                        i2l5901 2DA8  
                                      i2l6293 1C40                                        i2l4917 3C50  
                                      i2l6701 2F94                                        i2l7093 12C4  
                                      i2l7085 129E                                        i2l7069 123C  
                                      i2l7077 1264                                        i2l3799 2862  
                                      i2l3887 16C4                                        i2l3879 1670  
                                      i2l3895 16E8                                        i2l5911 3614  
                                      i2l5903 2E1A                                        i2l6295 1C50  
                                      i2l6551 3AC8                                        i2l4919 3C62  
                                      i2l7095 12D2                                        i2l7087 12A2  
                                      i2l7079 1272                                        i2l3889 16C6  
                                      i2l5913 361C                                        i2l5905 2E1E  
                                      i2l6297 1C60                                        i2l6289 1C2C  
                                      i2l6553 3ACC                                        i2l6545 3AB0  
                                      i2l6561 3C0C                                        i2l7097 12E2  
                                      i2l7089 12A8                                        i2l5915 3632  
                                      i2l6299 1C70                                        i2l6555 3AD0  
                                      i2l6547 3AB6                                        i2l6563 3C1E  
                                      i2l6651 30BE                                        i2l7099 12E6  
                                      i2l5917 364E                                        i2l5909 3604  
                                      i2l6557 3AD4                                        i2l6549 3AC2  
                                      i2l6565 3C22                                        i2l6653 30D0  
                                      i2l6661 302E                                        i2l5871 221A  
                                      i2l5919 3652                                        i2l6559 3AD8  
                                      i2l6567 3C2E                                        i2l6655 30EC  
                                      i2l6647 30AC                                        i2l6671 307E  
                                      i2l6663 3030                                        i2l5873 223C  
                                      i2l5961 3438                                        i2l5953 33DA  
                                      i2l6657 30FC                                        i2l6649 30AE  
                                      i2l6673 3090                                        i2l6665 3040  
                                      i2l6681 2FD4                                        i2l4899 3C84  
                                      i2l5875 2244                                        i2l5867 2208  
                                      i2l5955 33EA                                        i2l6659 310E  
                                      i2l6667 3052                                        i2l6683 2FF0  
                                      i2l6675 2FB0                                        i2l6691 2F34  
                                      i2l5877 229A                                        i2l5869 2208  
                                      i2l5957 33F2                                        i2l6669 306E  
                                      i2l6685 3000                                        i2l6677 2FB2  
                                      i2l6693 2F44                                        i2l5879 22A2  
                                      i2l5887 22F6                                        i2l5959 3434  
                                      i2l6687 3012                                        i2l6679 2FC2  
                                      i2l6695 2F56                                        i2l5889 2320  
                                      i2l5897 2D90                                        i2l6697 2F72  
                                      i2l6689 2F32                                        i2l5899 2DA0  
                                      i2l6699 2F82                                        i2l6999 10B0  
                                   ??i2_fputc 0004                                 vfpfcnvrt@done 008E  
                                   ??i2_putch 0001                                        i2abs@a 0007  
            __end_of_lcd_4bit_send_string_pos 27D4                     ??_interrupt_INTx_pin_init 008F  
                         ??_button_initialize 0089                 i2convert_uint16_to_string@ret 0034  
               i2convert_uint16_to_string@str 002D                        ?_lcd_4bit_send_command 008D  
                    i2lcd_4bit_set_cursor@lcd 0011                                  vfprintf@cfmt 0098  
                    i2lcd_4bit_set_cursor@ret 0014                      i2lcd_4bit_set_cursor@row 0012  
                               i2vfprintf@fmt 0017                                     ??___awdiv 0084  
                                   ??___awmod 0084                     interrupt_INTx_disable@ret 0084  
                     __end_of_RB5_LOW_APP_ISR 3ADE                __end_ofi2_Data_EEPROM_ReadByte 39B8  
                                 ?i2_vfprintf 0016                                        _memset 3A20  
                                      clear_0 2E88                                        clear_1 2E94  
                                      clear_2 2EA0                              ___awdiv@quotient 0086  
                             ___awmod@divisor 0082                                        isa$std 0001  
                             ___awmod@counter 0084                                        _winner 19A8  
               interrupt_INTx_disable@int_obj 0080                                     ??_display 00B5  
                              i2___awdiv@sign 0006                             ?i2_lcd_send_4bits 000A  
                                      fputc@c 0080                                  __pdataCOMRAM 0066  
                           __end_ofi2___awdiv 25C0                     __end_of_button_initialize 3AB0  
                           __end_ofi2___awmod 2884                                  __mediumconst 0000  
                          ??i2_lcd_send_4bits 000C                                        tblptrh 0FF7  
                                      tblptrl 0FF6                                        tblptru 0FF8  
                                      putch@c 0001                              __end_of_vfprintf 372A  
                              i2___awmod@sign 0006      INT2_SetInterruptHandler@InterruptHandler 0080  
    INT1_SetInterruptHandler@InterruptHandler 0080      INT0_SetInterruptHandler@InterruptHandler 0080  
                                   ??_sprintf 009D                             __end_ofi2_display 1D6A  
                                  __accesstop 0080                       __end_of__initialization 2EA6  
                                   ?_INT0_ISR 0001                                     ?_INT1_ISR 0001  
                                   ?_INT2_ISR 0001                                 ___rparam_used 0001  
                        __end_of_INT0_APP_ISR 3C9E                              ??_lcd_send_4bits 008B  
                           __end_ofi2_sprintf 39EC                         _interrupt_INTx_enable 2EB0  
                        __end_of_INT1_APP_ISR 3C84                    ?i2_lcd_4bit_send_char_data 000E  
                     _lcd_4bit_send_char_data 336C                                 __end_ofi2_abs 3A20  
                 i2lcd_4bit_enable_signal@lcd 000A                   i2lcd_4bit_enable_signal@ret 000C  
            interrupt_INTx_clear_flag@int_obj 0080                       i2_lcd_4bit_send_command 33DA  
                      ??_gpio_pin_write_logic 0083                          __end_of_INT2_APP_ISR 3CB8  
                              __pcstackCOMRAM 0001                                  __pidataBANK0 3B68  
                                __pidataBANK1 3C34                          button_initialize@btn 0088  
                        button_initialize@ret 0089                                 __end_of_fputc 2930  
                               __end_of_putch 3CD0                              ?_mcal_initialize 0001  
                    lcd_4bit_send_command@lcd 008D                             RB5_ISR@RB5_source 0036  
                    lcd_4bit_send_command@ret 008F                          i2lcd_send_4bits@data 000B  
                ??i2_lcd_4bit_send_string_pos 001A                      ??_interrupt_INTx_disable 0082  
             __end_of_interrupt_INTx_pin_init 3984                       Data_EEPROM_ReadByte@adr 0080  
                                     ??i2_abs 0009                          _Data_EEPROM_ReadByte 3874  
                                   ?i2_memset 0001              __end_of_INT2_SetInterruptHandler 3BBC  
                              i2vfpfcnvrt@fmt 000C                      interrupt_INTx_enable@ret 0084  
                                   ?i2_winner 0001                  ?_lcd_4bit_send_char_data_pos 0094  
                                     ??_fputc 0083                                       ??_putch 0080  
                   ?i2_lcd_4bit_enable_signal 000A                        _lcd_4bit_enable_signal 35AC  
                                  __pbssBANK0 00E1                                    __pbssBANK1 0100  
                                 i2sprintf@ap 001E                 __end_of_Data_EEPROM_WriteByte 376E  
                       _INT0_InterruptHandler 0063                                    ??_INT0_ISR 0005  
                                  ??_INT1_ISR 0005                                    ??_INT2_ISR 0005  
                  i2Data_EEPROM_ReadByte@data 0003                                    __pnvCOMRAM 007C  
                interrupt_INTx_clear_flag@ret 0084                    ??_interrupt_INTx_edge_init 0082  
                                _clear_eeprom 37B0                         i2_lcd_4bit_set_cursor 2CFC  
           __end_ofi2_lcd_4bit_send_char_data 349E                              ?_RB5_LOW_APP_ISR 0001  
                 convert_uint16_to_string@ret 00B3                   convert_uint16_to_string@str 00AC  
                                     ?_memset 0080    __end_of_interrupt_INTx_SetInterruptHandler 2672  
        ??_interrupt_INTx_SetInterruptHandler 0084           ?_interrupt_INTx_SetInterruptHandler 0082  
          _interrupt_INTx_SetInterruptHandler 25C0                                       ?_winner 0001  
                  ??_INT1_SetInterruptHandler 0082                                       _RB4_ISR 30AA  
                                     _RB5_ISR 302C                         ?_Data_EEPROM_ReadByte 0080  
                                     _RB6_ISR 2FAE                                       _RB7_ISR 2F30  
                   ?_lcd_4bit_send_string_pos 0094                     _RB6_InterruptHandler_HIGH 0055  
                                  ??i2_memset 0006                                    ??i2_winner 001B  
                           RB7_ISR@RB7_source 0036                   interrupt_RBx_initialize@ret 008A  
                                     i2_fputc 2930                                       i2_putch 3CD0  
                    _RB6_InterruptHandler_LOW 0053                     ??_lcd_4bit_send_char_data 008F  
                  interrupt_INTx_pin_init@ret 008F                        ?_interrupt_INTx_enable 0080  
                  ?_interrupt_INTx_clear_flag 0080                     ??i2_lcd_4bit_send_command 0010  
                   ?_INT0_SetInterruptHandler 0080                 i2lcd_4bit_send_string_pos@lcd 0015  
               i2lcd_4bit_send_string_pos@ret 001A                 i2lcd_4bit_send_string_pos@row 0018  
               i2lcd_4bit_send_string_pos@str 0016                                       __Hparam 0000  
                           ?_RB6_HIGH_APP_ISR 0001                                       __Lparam 0000  
                         _gpio_pin_initialize 31A0                            ??_RB6_HIGH_APP_ISR 001B  
                                     ___awdiv 2436                                       ___awmod 2672  
                                   ?_vfprintf 0095                                i2vfprintf@cfmt 0019  
                                __psmallconst 1000                                       _rb4_obj 0076  
                                     _rb5_obj 0070                                       _rb6_obj 006A  
                                ?i2_vfpfcnvrt 000B                                       __pcinit 2E22  
                                     __ramtop 1000                                       __ptext0 38E4  
                                     __ptext1 19A8                                       __ptext2 349E  
                                     __ptext3 34FC                                       __ptext4 2324  
                                     __ptext5 3128                                       __ptext6 3950  
                                     __ptext7 2EB0                                       __ptext8 1D6A  
                                     __ptext9 3216                                  i2memset@dest 0001  
                i2lcd_4bit_send_char_data@lcd 000E                  i2lcd_4bit_send_char_data@ret 0010  
                                     _display 170E               ??_gpio_pin_direction_initialize 0082  
                 ?i2_convert_uint16_to_string 002B                      _convert_uint16_to_string 2A82  
                    _interrupt_RBx_initialize 2324                              ___awmod@dividend 0080  
                        ?_gpio_pin_initialize 0089                                 i2_read_eeprom 376E  
                    ??i2_gpio_pin_write_logic 0004                                       _sprintf 38AC  
                              __pintcode_body 1076                          end_of_initialization 2EA6  
                           lcd_send_4bits@lcd 0089                             lcd_send_4bits@ret 008C  
                           ??_welcome_message 009A                      _INT2_SetInterruptHandler 3B94  
                                     fputc@fp 0082                                       memset@c 0081  
                                     memset@n 0083                                       memset@p 0085  
                                     int_func 1076                       ??_lcd_4bit_send_command 008F  
                              _operation_mode 00E1                        ?i2_lcd_4bit_set_cursor 0011  
             interrupt_INTx_edge_init@int_obj 0080                             __end_of_vfpfcnvrt 1542  
                                     postdec1 0FE5                                       postdec2 0FDD  
                                     postinc0 0FEE                                       postinc1 0FE6  
                                     postinc2 0FDE                              vfpfcnvrt@convarg 0090  
                  ?_interrupt_INTx_initialize 0090                                  ??i2_vfprintf 0019  
                                  ??_vfprintf 0098            __end_ofi2_lcd_4bit_send_string_pos 2A82  
                  i2_lcd_4bit_send_string_pos 29DA                           _lcd_4bit_initialize 1E98  
             __end_of_lcd_4bit_send_char_data 33DA                         _INT1_InterruptHandler 0061  
                                   _PORTBbits 0F81                        ??_Data_EEPROM_ReadByte 0083  
                              _ecu_initialize 3554                              _InterruptManager 0008  
                  lcd_4bit_send_char_data@lcd 008D                                  _INT0_APP_ISR 3C84  
                  lcd_4bit_send_char_data@ret 008F                                  _INT1_APP_ISR 3C6A  
                              ?i2_read_eeprom 0001                         ??_gpio_pin_initialize 008B  
                                _INT2_APP_ISR 3C9E                                     i2___awdiv 24FC  
                                   i2___awmod 27D4               lcd_4bit_send_char_data_pos@data 0095  
                interrupt_INTx_enable@int_obj 0080                          ?_lcd_4bit_initialize 0090  
            __end_of_interrupt_INTx_edge_init 1E98                            __end_ofi2_vfprintf 3874  
                                   i2_display 1C2C                        _interrupt_INTx_disable 3216  
                          i2___awdiv@dividend 0001                   ??i2_lcd_4bit_send_char_data 0010  
                         _lcd_4bit_set_cursor 2C64                   lcd_4bit_send_string_pos@lcd 0094  
                 lcd_4bit_send_string_pos@ret 0099                   lcd_4bit_send_string_pos@row 0097  
                 lcd_4bit_send_string_pos@str 0095                                     i2_sprintf 39B8  
               convert_uint16_to_string@F3236 0045                                   vfpfcnvrt@ap 008C  
                                 vfpfcnvrt@cp 008F                                   vfpfcnvrt@fp 008A  
                      __end_of_ecu_initialize 35AC                                 __pidataCOMRAM 3CB8  
            __end_ofi2_lcd_4bit_enable_signal 3656                                     i2fputc@fp 0003  
                                   i2memset@c 0002                                     i2memset@n 0004  
                                   i2memset@p 0006                                __end_of_memset 3A52  
             interrupt_RBx_initialize@int_obj 0088                   i2lcd_4bit_set_cursor@column 0013  
                              __end_of_winner 1AEA                           start_initialization 2E22  
                          i2___awdiv@quotient 0007                          ?_lcd_4bit_set_cursor 0090  
                     ?_lcd_4bit_enable_signal 0089               i2convert_uint16_to_string@value 002B  
               convert_uint16_to_string@value 00AA                                   __end_of_abs 3950  
       __end_of_gpio_pin_direction_initialize 20E6                 _gpio_pin_direction_initialize 1FC0  
                                  ?i2___awdiv 0001                                    ?i2___awmod 0001  
                                i2vfpfcnvrt@c 0015                         ??_lcd_4bit_initialize 0091  
                    ?_interrupt_INTx_pin_init 008D                                    ?i2_display 0001  
                    Data_EEPROM_ReadByte@data 0082                                   vfprintf@fmt 0096  
                                i2vfprintf@ap 0018                               i2vfpfcnvrt@done 000F  
                                i2vfprintf@fp 0016                                    ?i2_sprintf 001A  
                                 __pdataBANK0 00B5                                   __pdataBANK1 0120  
                                    ??_memset 0085                               ?_ecu_initialize 0001  
                                  memset@dest 0080                  lcd_4bit_send_command@command 008E  
                                    ??_winner 009A                              _RB4_HIGH_APP_ISR 3C50  
              __end_of_lcd_4bit_enable_signal 3604                                      ?_RB4_ISR 0001  
                                    ?_RB5_ISR 0001                               ??i2_read_eeprom 0004  
                                    ?_RB6_ISR 0001                                      ?_RB7_ISR 0001  
                                i2sprintf@fmt 001B                                   __pbssCOMRAM 0045  
                       ??_lcd_4bit_set_cursor 0093                     i2_lcd_4bit_send_char_data 343C  
                               ??_read_eeprom 0083              __end_of_INT0_SetInterruptHandler 3C0C  
                               __pcstackBANK0 0080                                _loading_screen 1864  
                                   _can_A_str 00F4                                     _can_B_str 00EE  
                                   _can_C_str 00E8                                     _can_D_str 00E2  
                     ??_interrupt_INTx_enable 0082                                      ?i2_fputc 0001  
                                    ?i2_putch 0001                         _INT2_InterruptHandler 005F  
            i2gpio_pin_write_logic@pin_config 0001                gpio_pin_write_logic@pin_config 0080  
                 ??_interrupt_INTx_clear_flag 0082                      ??i2_Data_EEPROM_ReadByte 0004  
                   i2Data_EEPROM_ReadByte@adr 0001                         _Data_EEPROM_WriteByte 372A  
                               ?_store_eeprom 0001                                     __pintcode 0008  
                  ??_convert_uint16_to_string 00AD                        i2_gpio_pin_write_logic 2208  
                                    ?___awdiv 0080                    ??_interrupt_RBx_initialize 0089  
                                    ?___awmod 0080                  interrupt_INTx_initialize@ret 0092  
                   gpio_pin_write_logic@logic 0082                      Data_EEPROM_WriteByte@adr 0001  
                   ?_interrupt_INTx_edge_init 0080                                      ?_display 0001  
                             _welcome_message 349E                                   __smallconst 1000  
                   _RB4_InterruptHandler_HIGH 005D                    ??_INT2_SetInterruptHandler 0082  
                      __end_of_loading_screen 19A8          lcd_4bit_initialize@data_pins_counter 0092  
                   _RB7_InterruptHandler_HIGH 0051                      i2_lcd_4bit_enable_signal 3604  
                                 ??i2___awdiv 0005                                   ??i2___awmod 0005  
                                    ?_sprintf 0099                       ??i2_lcd_4bit_set_cursor 0014  
                         __end_of_read_eeprom 36A0            i2convert_uint16_to_string@temp_str 002E  
            convert_uint16_to_string@temp_str 00AD                      _RB5_InterruptHandler_LOW 0057  
                                    _INT0_ISR 3B3A                                      _INT1_ISR 3B0C  
                                    _INT2_ISR 3ADE                              i2_lcd_send_4bits 2D90  
                                 ??i2_display 0036                     ?_INT1_SetInterruptHandler 0080  
                    __end_of_InterruptManager 136C                                      _RB4_flag 0069  
                                    _RB5_flag 0068                                      _RB6_flag 0067  
                                    _RB7_flag 0066                                ??_store_eeprom 0005  
                                    i2u300_40 15A6                                      i2u300_41 15A2  
               __end_of_lcd_4bit_send_command 336C                                      i2u301_40 15C4  
                                    i2u301_41 15C0                                      i2u302_40 15FA  
                                    i2u302_41 15F4                                      i2u303_40 15FC  
                                    i2u304_40 1660                                      i2u304_41 165C  
                                    i2u305_40 1670                                      i2u305_41 166C  
                                    i2u306_40 1680                                      i2u306_41 167C  
                                    i2u307_40 1690                                      i2u331_40 386A  
                                    i2u307_41 168C                                      i2u331_41 3866  
                                    i2u308_40 16D8                                      i2u308_41 16D4  
                                    i2u415_40 3C96                                      i2u430_48 3B26  
                                    i2u431_40 3AF2                                      i2u351_40 3994  
                                    i2u415_41 3C92                                      i2u430_49 3B38  
                                    i2u431_41 3AEE                                      i2u351_41 3990  
                                    i2u416_40 3C7C                                      i2u352_40 3A80  
                                    i2u280_40 250E                                      i2u600_40 1BBC  
                                    i2u416_41 3C78                                      i2u352_41 3A7C  
                                    i2u280_41 250A                                      i2u600_41 1BB8  
                                    i2u417_40 3CB0                                      i2u432_48 3AF8  
                                    i2u281_40 2528                                      i2u601_40 1BCE  
                                    i2u417_41 3CAC                                      i2u432_49 3B0A  
                                    i2u281_41 2524                                      i2u601_41 1BCA  
                                    i2u282_40 254E                                      i2u290_40 284E  
                                    i2u602_40 1C1C                                      i2u418_40 3C62  
                                    i2u282_41 254A                                      i2u290_41 284A  
                                    i2u602_41 1C18                                      i2u418_41 3C5E  
                                    i2u427_40 3B4E                                      i2u283_40 256C  
                                    i2u291_40 2872                                      i2u427_41 3B4A  
                                    i2u283_41 2568                                      i2u291_41 286E  
                                    i2u356_40 3760                                      i2u284_40 2588  
                                    i2u292_40 39FA                                      i2u700_40 124A  
                                    i2u356_41 375C                                      i2u284_41 2584  
                                    i2u292_41 39F6                                      i2u700_41 1246  
                                    i2u428_48 3B54                                      i2u429_40 3B20  
                                    i2u285_40 25AE                                      i2u293_40 2940  
                                    i2u701_40 125A                                      i2u428_49 3B66  
                                    i2u429_41 3B1C                                      i2u285_41 25AA  
                                    i2u293_41 293C                                      i2u701_41 1256  
                                    i2u357_45 376A                                      i2u357_46 376C  
                                    i2u286_40 27E6                                      i2u294_40 2950  
                                    i2u550_40 221A                                      i2u630_40 310E  
                                    i2u710_40 12FA                                      i2u702_40 1272  
                                    i2u286_41 27E2                                      i2u294_41 294C  
                                    i2u550_41 2216                                      i2u630_41 310A  
                                    i2u710_41 12F6                                      i2u702_41 126E  
                                    i2u287_40 2800                                      i2u295_40 2976  
                                    i2u367_40 2B38                                      i2u551_40 223C  
                                    i2u711_40 1308                                      i2u703_40 1280  
                                    i2u287_41 27FC                                      i2u295_41 2972  
                                    i2u367_41 2B34                                      i2u551_41 2238  
                                    i2u711_41 1304                                      i2u703_41 127C  
                                    i2u288_40 281A                                      i2u296_40 29A8  
                                    i2u560_40 33EA                                      i2u631_48 3114  
                                    i2u632_40 3040                                      i2u712_40 1316  
                                    i2u704_40 128E                                      i2u288_41 2816  
                                    i2u296_41 29A4                                      i2u368_41 2B4A  
                                    i2u560_41 33E6                                      i2u631_49 3126  
                                    i2u632_41 303C                                      i2u712_41 1312  
                                    i2u704_41 128A                                      i2u552_44 2264  
                                    i2u552_45 2260                                      i2u289_40 2838  
                                    i2u369_40 2BC0                                      i2u633_40 3052  
                                    i2u641_40 3000                                      i2u640_48 2FDA  
                                    i2u713_40 1326                                      i2u705_40 129E  
                                    i2u289_41 2834                                      i2u369_41 2BBC  
                                    i2u633_41 304E                                      i2u641_41 2FFC  
                                    i2u640_49 2FEC                                      i2u713_41 1322  
                                    i2u705_41 129A                                      i2u553_44 22C2  
                                    i2u553_45 22BE                                      i2u554_40 2DA0  
                                    i2u618_40 3C1E                                      i2u626_40 30BE  
                                    i2u642_40 3012                                      i2u706_40 12B6  
                                    i2u554_41 2D9C                                      i2u618_41 3C1A  
                                    i2u626_41 30BA                                      i2u642_41 300E  
                                    i2u706_41 12B2                                      i2u299_40 1566  
                                    i2u555_40 3614                                      i2u627_40 30D0  
                                    i2u635_40 307E                                      i2u634_48 3058  
                                    i2u707_40 12C4                                      i2u299_41 1562  
                                    i2u555_41 3610                                      i2u627_41 30CC  
                                    i2u635_41 307A                                      i2u634_49 306A  
                                    i2u707_41 12C0                                      i2u636_40 3090  
                                    i2u643_48 3018                                      i2u644_40 2F44  
                                    i2u708_40 12D2                                      i2u636_41 308C  
                                    i2u643_49 302A                                      i2u644_41 2F40  
                                    i2u708_41 12CE                                      i2u573_40 29EA  
                                    i2u629_40 30FC                                      i2u628_48 30D6  
                                    i2u645_40 2F56                                      i2u709_40 12E2  
                                    i2u573_41 29E6                                      i2u629_41 30F8  
                                    i2u628_49 30E8                                      i2u645_41 2F52  
                                    i2u709_41 12DE                                      i2u574_40 29FC  
                                    i2u637_48 3096                                      i2u638_40 2FC2  
                                    i2u574_41 29F8                                      i2u637_49 30A8  
                                    i2u638_41 2FBE                                      i2u575_40 2A3E  
                                    i2u639_40 2FD4                                      i2u647_40 2F82  
                                    i2u646_48 2F5C                                      i2u639_41 2FD0  
                                    i2u647_41 2F7E                                      i2u646_49 2F6E  
                                    i2u575_47 2A34                                      i2u568_40 344C  
                                    i2u576_40 2A6A                                      i2u592_40 1D5A  
                                    i2u648_40 2F94                                      i2u680_40 10FE  
                                    i2u568_41 3448                                      i2u592_41 1D56  
                                    i2u648_41 2F90                                      i2u680_41 10FA  
                                    i2u576_47 2A60                                      i2u569_40 2D0C  
                                    i2u577_40 2A7A                                      i2u593_40 1AFE  
                                    i2u681_40 110C                                      i2u569_41 2D08  
                                    i2u577_41 2A76                                      i2u593_41 1AFA  
                                    i2u681_41 1108                                      i2u594_40 1B10  
                                    i2u649_48 2F9A                                      i2u690_40 11A6  
                                    i2u682_40 111E                                      i2u594_41 1B0C  
                                    i2u649_49 2FAC                                      i2u690_41 11A2  
                                    i2u682_41 111A                                      i2u595_40 1B22  
                                    i2u691_40 11B4                                      i2u683_40 112C  
                                    i2u595_41 1B1E                                      i2u691_41 11B0  
                                    i2u683_41 1128                                      i2u596_40 1B54  
                                    i2u692_40 11C2                                      i2u684_40 113A  
                                    i2u676_40 10BE                                      i2u596_41 1B50  
                                    i2u692_41 11BE                                      i2u684_41 1136  
                                    i2u676_41 10BA                                      i2u597_40 1B66  
                                    i2u693_40 11D2                                      i2u685_40 114A  
                                    i2u677_40 10CC                                      i2u597_41 1B62  
                                    i2u693_41 11CE                                      i2u685_41 1146  
                                    i2u677_41 10C8                                      i2u598_40 1B78  
                                    i2u694_40 11EA                                      i2u686_40 1162  
                                    i2u678_40 10DE                                      i2u598_41 1B74  
                                    i2u694_41 11E6                                      i2u686_41 115E  
                                    i2u678_41 10DA                                      i2u599_40 1BAA  
                                    i2u695_40 11F8                                      i2u687_40 1170  
                                    i2u679_40 10EC                                      i2u599_41 1BA6  
                                    i2u695_41 11F4                                      i2u687_41 116C  
                                    i2u679_41 10E8                                      i2u696_40 1206  
                                    i2u688_40 117E                                      i2u696_41 1202  
                                    i2u688_41 117A                                      i2u697_40 1216  
                                    i2u689_40 118E                                      i2u697_41 1212  
                                    i2u689_41 118A                                      i2u698_40 122E  
                                    i2u698_41 122A                                      i2u699_40 123C  
                                    i2u699_41 1238              gpio_pin_direction_initialize@ret 0087  
                                 ??i2_sprintf 001E                             RB4_ISR@RB4_source 0036  
                 ??_interrupt_INTx_initialize 0092                                     _vfpfcnvrt 136C  
                 interrupt_INTx_edge_init@ret 0084                   ?i2_lcd_4bit_send_string_pos 0015  
                    _lcd_4bit_send_string_pos 2724                     _interrupt_INTx_clear_flag 328A  
              lcd_4bit_send_char_data_pos@lcd 0094                lcd_4bit_send_char_data_pos@ret 0098  
              lcd_4bit_send_char_data_pos@row 0096       gpio_pin_direction_initialize@pin_config 0080  
                             ?_loading_screen 0001                        gpio_pin_initialize@ret 008C  
                           i2___awdiv@divisor 0003                                      i2_memset 3A52  
                           i2___awdiv@counter 0005           __end_of_lcd_4bit_send_char_data_pos 36E6  
                 _lcd_4bit_send_char_data_pos 36A0                                      i2_winner 1AEA  
                                  vfpfcnvrt@c 0094                       gpio_pin_write_logic@ret 0088  
                                 _INTCON2bits 0FF1                                   _INTCON3bits 0FF0  
                    ?_lcd_4bit_send_char_data 008D                                     copy_data0 2E36  
                                   copy_data1 2E56                                      i2fputc@c 0001  
                                   copy_data2 2E76                      ?i2_lcd_4bit_send_command 000E  
                    _INT0_SetInterruptHandler 3BE4                       ?_interrupt_INTx_disable 0080  
                          i2___awmod@dividend 0001                             ??_mcal_initialize 0093  
                      ?_Data_EEPROM_WriteByte 0001                 ??_lcd_4bit_send_char_data_pos 0098  
                                  _EECON1bits 0FA6  Data_EEPROM_WriteByte@Global_Interrupt_status 0004  
                                    __Hrparam 0000                                    vfprintf@ap 0097  
                                    __Lrparam 0000                                    vfprintf@fp 0095  
                   lcd_4bit_enable_signal@lcd 0089                     lcd_4bit_enable_signal@ret 008B  
                     __end_of_welcome_message 34FC                        lcd_4bit_set_cursor@lcd 0090  
                      lcd_4bit_set_cursor@ret 0093                                    ?_vfpfcnvrt 008A  
                      lcd_4bit_set_cursor@row 0091                   __end_of_gpio_pin_initialize 3216  
                          i2vfpfcnvrt@convarg 0011                                    sprintf@fmt 009A  
                           RB6_ISR@RB6_source 0036                                   _read_eeprom 3656  
                                    __ptext10 328A                                      __ptext11 25C0  
                                    __ptext20 3A82                                      __ptext12 3B94  
                                    __ptext21 1FC0                                      __ptext13 3BBC  
                                    __ptext30 35AC                                      __ptext22 170E  
                                    __ptext14 3BE4                                      __ptext31 20E6  
                                    __ptext23 3656                                      __ptext15 1864  
                                    __ptext40 2436                                      __ptext32 2A82  
                                    __ptext24 3874                                      __ptext16 36A0  
                                    __ptext41 3A20                                      __ptext33 38AC  
                                    __ptext25 2724                                      __ptext17 3554  
                                    __ptext50 3AB0                                      __ptext34 36E6  
                                    __ptext26 2C64                                      __ptext18 1E98  
                                    __ptext51 1C2C                                      __ptext43 2F30  
                                    __ptext35 136C                                      __ptext27 32FE  
                                    __ptext19 31A0                                      __ptext60 2208  
                                    __ptext52 376E                                      __ptext44 2FAE  
                                    __ptext36 2884                                      __ptext28 336C  
                                    __ptext61 2B28                                      __ptext53 3984  
                                    __ptext45 302C                                      __ptext37 3CCE  
                                    __ptext29 2BC8                                      __ptext70 3A52  
                                    __ptext62 39B8                                      __ptext54 29DA  
                                    __ptext46 30AA                                      __ptext38 391A  
                                    __ptext71 37B0                                      __ptext63 3834  
                                    __ptext55 2CFC                                      __ptext47 3C50  
                                    __ptext39 2672                                      __ptext72 3ADE  
                                    __ptext64 1542                                      __ptext56 33DA  
                                    __ptext48 3C0C                                      __ptext73 3B0C  
                                    __ptext65 2930                                      __ptext57 343C  
                                    __ptext49 1AEA                                      __ptext74 3B3A  
                                    __ptext66 3CD0                                      __ptext58 2D90  
                                    __ptext75 3C6A                                      __ptext67 39EC  
                                    __ptext59 3604                                      __ptext76 3C84  
                                    __ptext68 27D4                                      __ptext77 3C9E  
                                    __ptext69 24FC                                      __ptext78 37F2  
                                    __ptext79 372A                __end_of_interrupt_INTx_disable 328A  
                   _interrupt_INTx_initialize 3128                 i2lcd_4bit_send_char_data@data 000F  
                                    _int0_obj 0136                                      _int1_obj 0130  
                                    _int2_obj 012A                             ??_RB5_LOW_APP_ISR 0036  
                      loading_screen@counter1 009D                        loading_screen@counter2 009C  
      i2convert_uint16_to_string@data_counter 0035          convert_uint16_to_string@data_counter 00B4  
                    __end_of_RB4_HIGH_APP_ISR 3C6A                                 ?_clear_eeprom 0001  
                            ??_ecu_initialize 0094              __end_of_convert_uint16_to_string 2B28  
                                    isa$xinst 0000              __end_of_interrupt_RBx_initialize 2436  
                                    int$flags 007D                                      _vfprintf 36E6  
                              _lcd_send_4bits 2BC8                            lcd_send_4bits@data 008A  
                           i2___awmod@divisor 0003                        i2_Data_EEPROM_ReadByte 3984  
                           i2___awmod@counter 0005                              _RB6_HIGH_APP_ISR 3C0C  
                                  _INTCONbits 0FF2                   __end_of_lcd_4bit_initialize 1FC0  
             __end_ofi2_lcd_4bit_send_command 343C                          __end_of_store_eeprom 3834  
                __end_of_gpio_pin_write_logic 2208                                      intlevel2 0000  
                                   sprintf@ap 009D                i2lcd_4bit_send_command@command 000F  
               __end_of_interrupt_INTx_enable 2F30                                ??_clear_eeprom 0005  
                     ?i2_gpio_pin_write_logic 0001         interrupt_INTx_SetInterruptHandler@ret 0086  
                            ?_welcome_message 0001                        __end_of_lcd_send_4bits 2C64  
                  ??i2_lcd_4bit_enable_signal 000B                                 ??i2_vfpfcnvrt 000E  
                                 ??_vfpfcnvrt 008D                   __end_of_lcd_4bit_set_cursor 2CFC  
                    __end_ofi2_lcd_send_4bits 2E22                                      sprintf@f 009E  
                                    sprintf@s 0099                                _port_registers 0120  
                ??i2_convert_uint16_to_string 002E              __end_of_INT1_SetInterruptHandler 3BE4  
                   Data_EEPROM_WriteByte@data 0003                         __end_ofi2_read_eeprom 37B0  
                 lcd_4bit_send_char_data@data 008E                __end_ofi2_gpio_pin_write_logic 2324  
               __end_ofi2_lcd_4bit_set_cursor 2D90                             ?_InterruptManager 0001  
                  ??_lcd_4bit_send_string_pos 0099                        lcd_4bit_initialize@lcd 0090  
                      lcd_4bit_initialize@ret 0093  
